Archive member included because of file (symbol)

c:/program files (x86)/gnu tools arm embedded/4.8 2013q4/bin/../lib/gcc/arm-none-eabi/4.8.3/../../../../arm-none-eabi/lib/armv7e-m\libm.a(lib_a-w_pow.o)
                              ../build/obj/bget.o (pow)
c:/program files (x86)/gnu tools arm embedded/4.8 2013q4/bin/../lib/gcc/arm-none-eabi/4.8.3/../../../../arm-none-eabi/lib/armv7e-m\libm.a(lib_a-e_pow.o)
                              c:/program files (x86)/gnu tools arm embedded/4.8 2013q4/bin/../lib/gcc/arm-none-eabi/4.8.3/../../../../arm-none-eabi/lib/armv7e-m\libm.a(lib_a-w_pow.o) (__ieee754_pow)
c:/program files (x86)/gnu tools arm embedded/4.8 2013q4/bin/../lib/gcc/arm-none-eabi/4.8.3/../../../../arm-none-eabi/lib/armv7e-m\libm.a(lib_a-e_sqrt.o)
                              c:/program files (x86)/gnu tools arm embedded/4.8 2013q4/bin/../lib/gcc/arm-none-eabi/4.8.3/../../../../arm-none-eabi/lib/armv7e-m\libm.a(lib_a-e_pow.o) (__ieee754_sqrt)
c:/program files (x86)/gnu tools arm embedded/4.8 2013q4/bin/../lib/gcc/arm-none-eabi/4.8.3/../../../../arm-none-eabi/lib/armv7e-m\libm.a(lib_a-s_fabs.o)
                              c:/program files (x86)/gnu tools arm embedded/4.8 2013q4/bin/../lib/gcc/arm-none-eabi/4.8.3/../../../../arm-none-eabi/lib/armv7e-m\libm.a(lib_a-e_pow.o) (fabs)
c:/program files (x86)/gnu tools arm embedded/4.8 2013q4/bin/../lib/gcc/arm-none-eabi/4.8.3/../../../../arm-none-eabi/lib/armv7e-m\libm.a(lib_a-s_finite.o)
                              c:/program files (x86)/gnu tools arm embedded/4.8 2013q4/bin/../lib/gcc/arm-none-eabi/4.8.3/../../../../arm-none-eabi/lib/armv7e-m\libm.a(lib_a-w_pow.o) (finite)
c:/program files (x86)/gnu tools arm embedded/4.8 2013q4/bin/../lib/gcc/arm-none-eabi/4.8.3/../../../../arm-none-eabi/lib/armv7e-m\libm.a(lib_a-s_fpclassify.o)
                              c:/program files (x86)/gnu tools arm embedded/4.8 2013q4/bin/../lib/gcc/arm-none-eabi/4.8.3/../../../../arm-none-eabi/lib/armv7e-m\libm.a(lib_a-w_pow.o) (__fpclassifyd)
c:/program files (x86)/gnu tools arm embedded/4.8 2013q4/bin/../lib/gcc/arm-none-eabi/4.8.3/../../../../arm-none-eabi/lib/armv7e-m\libm.a(lib_a-s_lib_ver.o)
                              c:/program files (x86)/gnu tools arm embedded/4.8 2013q4/bin/../lib/gcc/arm-none-eabi/4.8.3/../../../../arm-none-eabi/lib/armv7e-m\libm.a(lib_a-w_pow.o) (__fdlib_version)
c:/program files (x86)/gnu tools arm embedded/4.8 2013q4/bin/../lib/gcc/arm-none-eabi/4.8.3/../../../../arm-none-eabi/lib/armv7e-m\libm.a(lib_a-s_matherr.o)
                              c:/program files (x86)/gnu tools arm embedded/4.8 2013q4/bin/../lib/gcc/arm-none-eabi/4.8.3/../../../../arm-none-eabi/lib/armv7e-m\libm.a(lib_a-w_pow.o) (matherr)
c:/program files (x86)/gnu tools arm embedded/4.8 2013q4/bin/../lib/gcc/arm-none-eabi/4.8.3/../../../../arm-none-eabi/lib/armv7e-m\libm.a(lib_a-s_nan.o)
                              c:/program files (x86)/gnu tools arm embedded/4.8 2013q4/bin/../lib/gcc/arm-none-eabi/4.8.3/../../../../arm-none-eabi/lib/armv7e-m\libm.a(lib_a-e_pow.o) (nan)
c:/program files (x86)/gnu tools arm embedded/4.8 2013q4/bin/../lib/gcc/arm-none-eabi/4.8.3/../../../../arm-none-eabi/lib/armv7e-m\libm.a(lib_a-s_rint.o)
                              c:/program files (x86)/gnu tools arm embedded/4.8 2013q4/bin/../lib/gcc/arm-none-eabi/4.8.3/../../../../arm-none-eabi/lib/armv7e-m\libm.a(lib_a-w_pow.o) (rint)
c:/program files (x86)/gnu tools arm embedded/4.8 2013q4/bin/../lib/gcc/arm-none-eabi/4.8.3/../../../../arm-none-eabi/lib/armv7e-m\libm.a(lib_a-s_scalbn.o)
                              c:/program files (x86)/gnu tools arm embedded/4.8 2013q4/bin/../lib/gcc/arm-none-eabi/4.8.3/../../../../arm-none-eabi/lib/armv7e-m\libm.a(lib_a-e_pow.o) (scalbn)
c:/program files (x86)/gnu tools arm embedded/4.8 2013q4/bin/../lib/gcc/arm-none-eabi/4.8.3/../../../../arm-none-eabi/lib/armv7e-m\libm.a(lib_a-s_copysign.o)
                              c:/program files (x86)/gnu tools arm embedded/4.8 2013q4/bin/../lib/gcc/arm-none-eabi/4.8.3/../../../../arm-none-eabi/lib/armv7e-m\libm.a(lib_a-s_scalbn.o) (copysign)
c:/program files (x86)/gnu tools arm embedded/4.8 2013q4/bin/../lib/gcc/arm-none-eabi/4.8.3/../../../../arm-none-eabi/lib/armv7e-m\libstdc++.a(pointer_type_info.o)
                              ../build/obj/udp_color_server.o (vtable for __cxxabiv1::__pointer_type_info)
c:/program files (x86)/gnu tools arm embedded/4.8 2013q4/bin/../lib/gcc/arm-none-eabi/4.8.3/../../../../arm-none-eabi/lib/armv7e-m\libstdc++.a(fundamental_type_info.o)
                              c:/program files (x86)/gnu tools arm embedded/4.8 2013q4/bin/../lib/gcc/arm-none-eabi/4.8.3/../../../../arm-none-eabi/lib/armv7e-m\libstdc++.a(pointer_type_info.o) (typeinfo for void)
c:/program files (x86)/gnu tools arm embedded/4.8 2013q4/bin/../lib/gcc/arm-none-eabi/4.8.3/../../../../arm-none-eabi/lib/armv7e-m\libstdc++.a(si_class_type_info.o)
                              ../build/obj/oscreceivedelements.o (vtable for __cxxabiv1::__si_class_type_info)
c:/program files (x86)/gnu tools arm embedded/4.8 2013q4/bin/../lib/gcc/arm-none-eabi/4.8.3/../../../../arm-none-eabi/lib/armv7e-m\libstdc++.a(pure.o)
                              ../build/obj/udp_color_server.o (__cxa_pure_virtual)
c:/program files (x86)/gnu tools arm embedded/4.8 2013q4/bin/../lib/gcc/arm-none-eabi/4.8.3/../../../../arm-none-eabi/lib/armv7e-m\libstdc++.a(pbase_type_info.o)
                              c:/program files (x86)/gnu tools arm embedded/4.8 2013q4/bin/../lib/gcc/arm-none-eabi/4.8.3/../../../../arm-none-eabi/lib/armv7e-m\libstdc++.a(pointer_type_info.o) (__cxxabiv1::__pbase_type_info::~__pbase_type_info())
c:/program files (x86)/gnu tools arm embedded/4.8 2013q4/bin/../lib/gcc/arm-none-eabi/4.8.3/../../../../arm-none-eabi/lib/armv7e-m\libstdc++.a(eh_exception.o)
                              ../build/obj/oscreceivedelements.o (std::exception::~exception())
c:/program files (x86)/gnu tools arm embedded/4.8 2013q4/bin/../lib/gcc/arm-none-eabi/4.8.3/../../../../arm-none-eabi/lib/armv7e-m\libstdc++.a(del_op.o)
                              ../build/obj/oscreceivedelements.o (operator delete(void*))
c:/program files (x86)/gnu tools arm embedded/4.8 2013q4/bin/../lib/gcc/arm-none-eabi/4.8.3/../../../../arm-none-eabi/lib/armv7e-m\libstdc++.a(class_type_info.o)
                              c:/program files (x86)/gnu tools arm embedded/4.8 2013q4/bin/../lib/gcc/arm-none-eabi/4.8.3/../../../../arm-none-eabi/lib/armv7e-m\libstdc++.a(si_class_type_info.o) (__cxxabiv1::__class_type_info::__do_upcast(__cxxabiv1::__class_type_info const*, void**) const)
c:/program files (x86)/gnu tools arm embedded/4.8 2013q4/bin/../lib/gcc/arm-none-eabi/4.8.3/../../../../arm-none-eabi/lib/armv7e-m\libstdc++.a(atexit_arm.o)
                              ../build/obj/udp_color_server.o (__aeabi_atexit)
c:/program files (x86)/gnu tools arm embedded/4.8 2013q4/bin/../lib/gcc/arm-none-eabi/4.8.3/../../../../arm-none-eabi/lib/armv7e-m\libstdc++.a(eh_throw.o)
                              ../build/obj/oscreceivedelements.o (__cxa_throw)
c:/program files (x86)/gnu tools arm embedded/4.8 2013q4/bin/../lib/gcc/arm-none-eabi/4.8.3/../../../../arm-none-eabi/lib/armv7e-m\libstdc++.a(new_op.o)
                              ../build/obj/udp_color_server.o (operator new(unsigned int))
c:/program files (x86)/gnu tools arm embedded/4.8 2013q4/bin/../lib/gcc/arm-none-eabi/4.8.3/../../../../arm-none-eabi/lib/armv7e-m\libstdc++.a(eh_personality.o)
                              c:/program files (x86)/gnu tools arm embedded/4.8 2013q4/bin/../lib/gcc/arm-none-eabi/4.8.3/../../../../arm-none-eabi/lib/armv7e-m\libstdc++.a(new_op.o) (__gxx_personality_v0)
c:/program files (x86)/gnu tools arm embedded/4.8 2013q4/bin/../lib/gcc/arm-none-eabi/4.8.3/../../../../arm-none-eabi/lib/armv7e-m\libstdc++.a(eh_term_handler.o)
                              c:/program files (x86)/gnu tools arm embedded/4.8 2013q4/bin/../lib/gcc/arm-none-eabi/4.8.3/../../../../arm-none-eabi/lib/armv7e-m\libstdc++.a(eh_throw.o) (__cxxabiv1::__terminate_handler)
c:/program files (x86)/gnu tools arm embedded/4.8 2013q4/bin/../lib/gcc/arm-none-eabi/4.8.3/../../../../arm-none-eabi/lib/armv7e-m\libstdc++.a(eh_alloc.o)
                              ../build/obj/oscreceivedelements.o (__cxa_allocate_exception)
c:/program files (x86)/gnu tools arm embedded/4.8 2013q4/bin/../lib/gcc/arm-none-eabi/4.8.3/../../../../arm-none-eabi/lib/armv7e-m\libstdc++.a(function_type_info.o)
                              ../build/obj/udp_color_server.o (vtable for __cxxabiv1::__function_type_info)
c:/program files (x86)/gnu tools arm embedded/4.8 2013q4/bin/../lib/gcc/arm-none-eabi/4.8.3/../../../../arm-none-eabi/lib/armv7e-m\libstdc++.a(eh_terminate.o)
                              c:/program files (x86)/gnu tools arm embedded/4.8 2013q4/bin/../lib/gcc/arm-none-eabi/4.8.3/../../../../arm-none-eabi/lib/armv7e-m\libstdc++.a(eh_throw.o) (__cxxabiv1::__terminate(void (*)()))
c:/program files (x86)/gnu tools arm embedded/4.8 2013q4/bin/../lib/gcc/arm-none-eabi/4.8.3/../../../../arm-none-eabi/lib/armv7e-m\libstdc++.a(tinfo.o)
                              c:/program files (x86)/gnu tools arm embedded/4.8 2013q4/bin/../lib/gcc/arm-none-eabi/4.8.3/../../../../arm-none-eabi/lib/armv7e-m\libstdc++.a(fundamental_type_info.o) (std::type_info::~type_info())
c:/program files (x86)/gnu tools arm embedded/4.8 2013q4/bin/../lib/gcc/arm-none-eabi/4.8.3/../../../../arm-none-eabi/lib/armv7e-m\libstdc++.a(eh_unex_handler.o)
                              c:/program files (x86)/gnu tools arm embedded/4.8 2013q4/bin/../lib/gcc/arm-none-eabi/4.8.3/../../../../arm-none-eabi/lib/armv7e-m\libstdc++.a(eh_throw.o) (__cxxabiv1::__unexpected_handler)
c:/program files (x86)/gnu tools arm embedded/4.8 2013q4/bin/../lib/gcc/arm-none-eabi/4.8.3/../../../../arm-none-eabi/lib/armv7e-m\libstdc++.a(string-inst.o)
                              ../build/obj/udp_color_server.o (std::string::_Rep::_S_empty_rep_storage)
c:/program files (x86)/gnu tools arm embedded/4.8 2013q4/bin/../lib/gcc/arm-none-eabi/4.8.3/../../../../arm-none-eabi/lib/armv7e-m\libstdc++.a(hashtable_c++0x.o)
                              ../build/obj/udp_color_server.o (std::__detail::_Prime_rehash_policy::_M_need_rehash(unsigned int, unsigned int, unsigned int) const)
c:/program files (x86)/gnu tools arm embedded/4.8 2013q4/bin/../lib/gcc/arm-none-eabi/4.8.3/../../../../arm-none-eabi/lib/armv7e-m\libstdc++.a(functexcept.o)
                              ../build/obj/udp_color_server.o (std::__throw_bad_alloc())
c:/program files (x86)/gnu tools arm embedded/4.8 2013q4/bin/../lib/gcc/arm-none-eabi/4.8.3/../../../../arm-none-eabi/lib/armv7e-m\libstdc++.a(functional.o)
                              c:/program files (x86)/gnu tools arm embedded/4.8 2013q4/bin/../lib/gcc/arm-none-eabi/4.8.3/../../../../arm-none-eabi/lib/armv7e-m\libstdc++.a(functexcept.o) (std::bad_function_call::~bad_function_call())
c:/program files (x86)/gnu tools arm embedded/4.8 2013q4/bin/../lib/gcc/arm-none-eabi/4.8.3/../../../../arm-none-eabi/lib/armv7e-m\libstdc++.a(eh_call.o)
                              c:/program files (x86)/gnu tools arm embedded/4.8 2013q4/bin/../lib/gcc/arm-none-eabi/4.8.3/../../../../arm-none-eabi/lib/armv7e-m\libstdc++.a(eh_personality.o) (__cxa_call_terminate)
c:/program files (x86)/gnu tools arm embedded/4.8 2013q4/bin/../lib/gcc/arm-none-eabi/4.8.3/../../../../arm-none-eabi/lib/armv7e-m\libstdc++.a(eh_arm.o)
                              c:/program files (x86)/gnu tools arm embedded/4.8 2013q4/bin/../lib/gcc/arm-none-eabi/4.8.3/../../../../arm-none-eabi/lib/armv7e-m\libstdc++.a(new_op.o) (__cxa_end_cleanup)
c:/program files (x86)/gnu tools arm embedded/4.8 2013q4/bin/../lib/gcc/arm-none-eabi/4.8.3/../../../../arm-none-eabi/lib/armv7e-m\libstdc++.a(new_handler.o)
                              c:/program files (x86)/gnu tools arm embedded/4.8 2013q4/bin/../lib/gcc/arm-none-eabi/4.8.3/../../../../arm-none-eabi/lib/armv7e-m\libstdc++.a(new_op.o) (__new_handler)
c:/program files (x86)/gnu tools arm embedded/4.8 2013q4/bin/../lib/gcc/arm-none-eabi/4.8.3/../../../../arm-none-eabi/lib/armv7e-m\libstdc++.a(bad_alloc.o)
                              c:/program files (x86)/gnu tools arm embedded/4.8 2013q4/bin/../lib/gcc/arm-none-eabi/4.8.3/../../../../arm-none-eabi/lib/armv7e-m\libstdc++.a(new_op.o) (std::bad_alloc::~bad_alloc())
c:/program files (x86)/gnu tools arm embedded/4.8 2013q4/bin/../lib/gcc/arm-none-eabi/4.8.3/../../../../arm-none-eabi/lib/armv7e-m\libstdc++.a(eh_aux_runtime.o)
                              c:/program files (x86)/gnu tools arm embedded/4.8 2013q4/bin/../lib/gcc/arm-none-eabi/4.8.3/../../../../arm-none-eabi/lib/armv7e-m\libstdc++.a(pbase_type_info.o) (__cxa_bad_typeid)
c:/program files (x86)/gnu tools arm embedded/4.8 2013q4/bin/../lib/gcc/arm-none-eabi/4.8.3/../../../../arm-none-eabi/lib/armv7e-m\libstdc++.a(eh_globals.o)
                              c:/program files (x86)/gnu tools arm embedded/4.8 2013q4/bin/../lib/gcc/arm-none-eabi/4.8.3/../../../../arm-none-eabi/lib/armv7e-m\libstdc++.a(eh_call.o) (__cxa_get_globals_fast)
c:/program files (x86)/gnu tools arm embedded/4.8 2013q4/bin/../lib/gcc/arm-none-eabi/4.8.3/../../../../arm-none-eabi/lib/armv7e-m\libstdc++.a(bad_cast.o)
                              c:/program files (x86)/gnu tools arm embedded/4.8 2013q4/bin/../lib/gcc/arm-none-eabi/4.8.3/../../../../arm-none-eabi/lib/armv7e-m\libstdc++.a(functexcept.o) (std::bad_cast::~bad_cast())
c:/program files (x86)/gnu tools arm embedded/4.8 2013q4/bin/../lib/gcc/arm-none-eabi/4.8.3/../../../../arm-none-eabi/lib/armv7e-m\libstdc++.a(eh_catch.o)
                              c:/program files (x86)/gnu tools arm embedded/4.8 2013q4/bin/../lib/gcc/arm-none-eabi/4.8.3/../../../../arm-none-eabi/lib/armv7e-m\libstdc++.a(eh_throw.o) (__cxa_begin_catch)
c:/program files (x86)/gnu tools arm embedded/4.8 2013q4/bin/../lib/gcc/arm-none-eabi/4.8.3/../../../../arm-none-eabi/lib/armv7e-m\libstdc++.a(vterminate.o)
                              c:/program files (x86)/gnu tools arm embedded/4.8 2013q4/bin/../lib/gcc/arm-none-eabi/4.8.3/../../../../arm-none-eabi/lib/armv7e-m\libstdc++.a(eh_term_handler.o) (__gnu_cxx::__verbose_terminate_handler())
c:/program files (x86)/gnu tools arm embedded/4.8 2013q4/bin/../lib/gcc/arm-none-eabi/4.8.3/../../../../arm-none-eabi/lib/armv7e-m\libstdc++.a(eh_type.o)
                              c:/program files (x86)/gnu tools arm embedded/4.8 2013q4/bin/../lib/gcc/arm-none-eabi/4.8.3/../../../../arm-none-eabi/lib/armv7e-m\libstdc++.a(vterminate.o) (__cxa_current_exception_type)
c:/program files (x86)/gnu tools arm embedded/4.8 2013q4/bin/../lib/gcc/arm-none-eabi/4.8.3/../../../../arm-none-eabi/lib/armv7e-m\libstdc++.a(bad_typeid.o)
                              c:/program files (x86)/gnu tools arm embedded/4.8 2013q4/bin/../lib/gcc/arm-none-eabi/4.8.3/../../../../arm-none-eabi/lib/armv7e-m\libstdc++.a(functexcept.o) (std::bad_typeid::~bad_typeid())
c:/program files (x86)/gnu tools arm embedded/4.8 2013q4/bin/../lib/gcc/arm-none-eabi/4.8.3/../../../../arm-none-eabi/lib/armv7e-m\libstdc++.a(ios_failure.o)
                              c:/program files (x86)/gnu tools arm embedded/4.8 2013q4/bin/../lib/gcc/arm-none-eabi/4.8.3/../../../../arm-none-eabi/lib/armv7e-m\libstdc++.a(functexcept.o) (std::ios_base::failure::~failure())
c:/program files (x86)/gnu tools arm embedded/4.8 2013q4/bin/../lib/gcc/arm-none-eabi/4.8.3/../../../../arm-none-eabi/lib/armv7e-m\libstdc++.a(stdexcept.o)
                              c:/program files (x86)/gnu tools arm embedded/4.8 2013q4/bin/../lib/gcc/arm-none-eabi/4.8.3/../../../../arm-none-eabi/lib/armv7e-m\libstdc++.a(functexcept.o) (std::logic_error::~logic_error())
c:/program files (x86)/gnu tools arm embedded/4.8 2013q4/bin/../lib/gcc/arm-none-eabi/4.8.3/../../../../arm-none-eabi/lib/armv7e-m\libstdc++.a(system_error.o)
                              c:/program files (x86)/gnu tools arm embedded/4.8 2013q4/bin/../lib/gcc/arm-none-eabi/4.8.3/../../../../arm-none-eabi/lib/armv7e-m\libstdc++.a(functexcept.o) (std::system_error::~system_error())
c:/program files (x86)/gnu tools arm embedded/4.8 2013q4/bin/../lib/gcc/arm-none-eabi/4.8.3/../../../../arm-none-eabi/lib/armv7e-m\libstdc++.a(future.o)
                              c:/program files (x86)/gnu tools arm embedded/4.8 2013q4/bin/../lib/gcc/arm-none-eabi/4.8.3/../../../../arm-none-eabi/lib/armv7e-m\libstdc++.a(functexcept.o) (std::future_error::~future_error())
c:/program files (x86)/gnu tools arm embedded/4.8 2013q4/bin/../lib/gcc/arm-none-eabi/4.8.3/../../../../arm-none-eabi/lib/armv7e-m\libstdc++.a(regex.o)
                              c:/program files (x86)/gnu tools arm embedded/4.8 2013q4/bin/../lib/gcc/arm-none-eabi/4.8.3/../../../../arm-none-eabi/lib/armv7e-m\libstdc++.a(functexcept.o) (std::regex_error::~regex_error())
c:/program files (x86)/gnu tools arm embedded/4.8 2013q4/bin/../lib/gcc/arm-none-eabi/4.8.3/../../../../arm-none-eabi/lib/armv7e-m\libstdc++.a(guard.o)
                              c:/program files (x86)/gnu tools arm embedded/4.8 2013q4/bin/../lib/gcc/arm-none-eabi/4.8.3/../../../../arm-none-eabi/lib/armv7e-m\libstdc++.a(future.o) (__cxa_guard_acquire)
c:/program files (x86)/gnu tools arm embedded/4.8 2013q4/bin/../lib/gcc/arm-none-eabi/4.8.3/../../../../arm-none-eabi/lib/armv7e-m\libstdc++.a(cp-demangle.o)
                              c:/program files (x86)/gnu tools arm embedded/4.8 2013q4/bin/../lib/gcc/arm-none-eabi/4.8.3/../../../../arm-none-eabi/lib/armv7e-m\libstdc++.a(vterminate.o) (__cxa_demangle)
c:/program files (x86)/gnu tools arm embedded/4.8 2013q4/bin/../lib/gcc/arm-none-eabi/4.8.3/../../../../arm-none-eabi/lib/armv7e-m\libstdc++.a(guard_error.o)
                              c:/program files (x86)/gnu tools arm embedded/4.8 2013q4/bin/../lib/gcc/arm-none-eabi/4.8.3/../../../../arm-none-eabi/lib/armv7e-m\libstdc++.a(guard.o) (__gnu_cxx::recursive_init_error::~recursive_init_error())
c:/program files (x86)/gnu tools arm embedded/4.8 2013q4/bin/../lib/gcc/arm-none-eabi/4.8.3/armv7e-m\libgcc.a(_arm_addsubdf3.o)
                              c:/program files (x86)/gnu tools arm embedded/4.8 2013q4/bin/../lib/gcc/arm-none-eabi/4.8.3/../../../../arm-none-eabi/lib/armv7e-m\libm.a(lib_a-e_pow.o) (__aeabi_dsub)
c:/program files (x86)/gnu tools arm embedded/4.8 2013q4/bin/../lib/gcc/arm-none-eabi/4.8.3/armv7e-m\libgcc.a(_arm_muldivdf3.o)
                              c:/program files (x86)/gnu tools arm embedded/4.8 2013q4/bin/../lib/gcc/arm-none-eabi/4.8.3/../../../../arm-none-eabi/lib/armv7e-m\libm.a(lib_a-w_pow.o) (__aeabi_dmul)
c:/program files (x86)/gnu tools arm embedded/4.8 2013q4/bin/../lib/gcc/arm-none-eabi/4.8.3/armv7e-m\libgcc.a(_arm_cmpdf2.o)
                              c:/program files (x86)/gnu tools arm embedded/4.8 2013q4/bin/../lib/gcc/arm-none-eabi/4.8.3/../../../../arm-none-eabi/lib/armv7e-m\libm.a(lib_a-w_pow.o) (__aeabi_dcmpeq)
c:/program files (x86)/gnu tools arm embedded/4.8 2013q4/bin/../lib/gcc/arm-none-eabi/4.8.3/armv7e-m\libgcc.a(_arm_fixdfsi.o)
                              ../build/obj/bget.o (__aeabi_d2iz)
c:/program files (x86)/gnu tools arm embedded/4.8 2013q4/bin/../lib/gcc/arm-none-eabi/4.8.3/armv7e-m\libgcc.a(_arm_fixunsdfsi.o)
                              c:/program files (x86)/gnu tools arm embedded/4.8 2013q4/bin/../lib/gcc/arm-none-eabi/4.8.3/../../../../arm-none-eabi/lib/armv7e-m\libstdc++.a(hashtable_c++0x.o) (__aeabi_d2uiz)
c:/program files (x86)/gnu tools arm embedded/4.8 2013q4/bin/../lib/gcc/arm-none-eabi/4.8.3/armv7e-m\libgcc.a(unwind-arm.o)
                              ../build/obj/oscreceivedelements.o (__aeabi_unwind_cpp_pr0)
c:/program files (x86)/gnu tools arm embedded/4.8 2013q4/bin/../lib/gcc/arm-none-eabi/4.8.3/armv7e-m\libgcc.a(libunwind.o)
                              c:/program files (x86)/gnu tools arm embedded/4.8 2013q4/bin/../lib/gcc/arm-none-eabi/4.8.3/armv7e-m\libgcc.a(unwind-arm.o) (restore_core_regs)
c:/program files (x86)/gnu tools arm embedded/4.8 2013q4/bin/../lib/gcc/arm-none-eabi/4.8.3/armv7e-m\libgcc.a(pr-support.o)
                              c:/program files (x86)/gnu tools arm embedded/4.8 2013q4/bin/../lib/gcc/arm-none-eabi/4.8.3/armv7e-m\libgcc.a(unwind-arm.o) (__gnu_unwind_execute)
c:/program files (x86)/gnu tools arm embedded/4.8 2013q4/bin/../lib/gcc/arm-none-eabi/4.8.3/../../../../arm-none-eabi/lib/armv7e-m\libc.a(lib_a-abort.o)
                              c:/program files (x86)/gnu tools arm embedded/4.8 2013q4/bin/../lib/gcc/arm-none-eabi/4.8.3/../../../../arm-none-eabi/lib/armv7e-m\libstdc++.a(eh_personality.o) (abort)
c:/program files (x86)/gnu tools arm embedded/4.8 2013q4/bin/../lib/gcc/arm-none-eabi/4.8.3/../../../../arm-none-eabi/lib/armv7e-m\libc.a(lib_a-assert.o)
                              ../build/obj/oscreceivedelements.o (__assert_func)
c:/program files (x86)/gnu tools arm embedded/4.8 2013q4/bin/../lib/gcc/arm-none-eabi/4.8.3/../../../../arm-none-eabi/lib/armv7e-m\libc.a(lib_a-ctype_.o)
                              ../build/obj/bget.o (__ctype_ptr__)
c:/program files (x86)/gnu tools arm embedded/4.8 2013q4/bin/../lib/gcc/arm-none-eabi/4.8.3/../../../../arm-none-eabi/lib/armv7e-m\libc.a(lib_a-cxa_atexit.o)
                              c:/program files (x86)/gnu tools arm embedded/4.8 2013q4/bin/../lib/gcc/arm-none-eabi/4.8.3/../../../../arm-none-eabi/lib/armv7e-m\libstdc++.a(atexit_arm.o) (__cxa_atexit)
c:/program files (x86)/gnu tools arm embedded/4.8 2013q4/bin/../lib/gcc/arm-none-eabi/4.8.3/../../../../arm-none-eabi/lib/armv7e-m\libc.a(lib_a-errno.o)
                              c:/program files (x86)/gnu tools arm embedded/4.8 2013q4/bin/../lib/gcc/arm-none-eabi/4.8.3/../../../../arm-none-eabi/lib/armv7e-m\libm.a(lib_a-w_pow.o) (__errno)
c:/program files (x86)/gnu tools arm embedded/4.8 2013q4/bin/../lib/gcc/arm-none-eabi/4.8.3/../../../../arm-none-eabi/lib/armv7e-m\libc.a(lib_a-exit.o)
                              c:/program files (x86)/gnu tools arm embedded/4.8 2013q4/bin/../lib/gcc/arm-none-eabi/4.8.3/../../../../arm-none-eabi/lib/armv7e-m/crt0.o (exit)
c:/program files (x86)/gnu tools arm embedded/4.8 2013q4/bin/../lib/gcc/arm-none-eabi/4.8.3/../../../../arm-none-eabi/lib/armv7e-m\libc.a(lib_a-fiprintf.o)
                              c:/program files (x86)/gnu tools arm embedded/4.8 2013q4/bin/../lib/gcc/arm-none-eabi/4.8.3/../../../../arm-none-eabi/lib/armv7e-m\libc.a(lib_a-assert.o) (fiprintf)
c:/program files (x86)/gnu tools arm embedded/4.8 2013q4/bin/../lib/gcc/arm-none-eabi/4.8.3/../../../../arm-none-eabi/lib/armv7e-m\libc.a(lib_a-fputc.o)
                              c:/program files (x86)/gnu tools arm embedded/4.8 2013q4/bin/../lib/gcc/arm-none-eabi/4.8.3/../../../../arm-none-eabi/lib/armv7e-m\libstdc++.a(vterminate.o) (fputc)
c:/program files (x86)/gnu tools arm embedded/4.8 2013q4/bin/../lib/gcc/arm-none-eabi/4.8.3/../../../../arm-none-eabi/lib/armv7e-m\libc.a(lib_a-fputs.o)
                              c:/program files (x86)/gnu tools arm embedded/4.8 2013q4/bin/../lib/gcc/arm-none-eabi/4.8.3/../../../../arm-none-eabi/lib/armv7e-m\libstdc++.a(vterminate.o) (fputs)
c:/program files (x86)/gnu tools arm embedded/4.8 2013q4/bin/../lib/gcc/arm-none-eabi/4.8.3/../../../../arm-none-eabi/lib/armv7e-m\libc.a(lib_a-fvwrite.o)
                              c:/program files (x86)/gnu tools arm embedded/4.8 2013q4/bin/../lib/gcc/arm-none-eabi/4.8.3/../../../../arm-none-eabi/lib/armv7e-m\libc.a(lib_a-fputs.o) (__sfvwrite_r)
c:/program files (x86)/gnu tools arm embedded/4.8 2013q4/bin/../lib/gcc/arm-none-eabi/4.8.3/../../../../arm-none-eabi/lib/armv7e-m\libc.a(lib_a-fwrite.o)
                              c:/program files (x86)/gnu tools arm embedded/4.8 2013q4/bin/../lib/gcc/arm-none-eabi/4.8.3/../../../../arm-none-eabi/lib/armv7e-m\libstdc++.a(vterminate.o) (fwrite)
c:/program files (x86)/gnu tools arm embedded/4.8 2013q4/bin/../lib/gcc/arm-none-eabi/4.8.3/../../../../arm-none-eabi/lib/armv7e-m\libc.a(lib_a-impure.o)
                              c:/program files (x86)/gnu tools arm embedded/4.8 2013q4/bin/../lib/gcc/arm-none-eabi/4.8.3/../../../../arm-none-eabi/lib/armv7e-m\libc.a(lib_a-exit.o) (_global_impure_ptr)
c:/program files (x86)/gnu tools arm embedded/4.8 2013q4/bin/../lib/gcc/arm-none-eabi/4.8.3/../../../../arm-none-eabi/lib/armv7e-m\libc.a(lib_a-init.o)
                              c:/program files (x86)/gnu tools arm embedded/4.8 2013q4/bin/../lib/gcc/arm-none-eabi/4.8.3/../../../../arm-none-eabi/lib/armv7e-m/crt0.o (__libc_init_array)
c:/program files (x86)/gnu tools arm embedded/4.8 2013q4/bin/../lib/gcc/arm-none-eabi/4.8.3/../../../../arm-none-eabi/lib/armv7e-m\libc.a(lib_a-mallocr.o)
                              c:/program files (x86)/gnu tools arm embedded/4.8 2013q4/bin/../lib/gcc/arm-none-eabi/4.8.3/../../../../arm-none-eabi/lib/armv7e-m\libc.a(lib_a-fvwrite.o) (_malloc_r)
c:/program files (x86)/gnu tools arm embedded/4.8 2013q4/bin/../lib/gcc/arm-none-eabi/4.8.3/../../../../arm-none-eabi/lib/armv7e-m\libc.a(lib_a-memchr-stub.o)
                              c:/program files (x86)/gnu tools arm embedded/4.8 2013q4/bin/../lib/gcc/arm-none-eabi/4.8.3/../../../../arm-none-eabi/lib/armv7e-m\libstdc++.a(string-inst.o) (memchr)
c:/program files (x86)/gnu tools arm embedded/4.8 2013q4/bin/../lib/gcc/arm-none-eabi/4.8.3/../../../../arm-none-eabi/lib/armv7e-m\libc.a(lib_a-memcmp.o)
                              ../build/obj/bget.o (memcmp)
c:/program files (x86)/gnu tools arm embedded/4.8 2013q4/bin/../lib/gcc/arm-none-eabi/4.8.3/../../../../arm-none-eabi/lib/armv7e-m\libc.a(lib_a-memcpy.o)
                              ../build/obj/bget.o (memcpy)
c:/program files (x86)/gnu tools arm embedded/4.8 2013q4/bin/../lib/gcc/arm-none-eabi/4.8.3/../../../../arm-none-eabi/lib/armv7e-m\libc.a(lib_a-memmove.o)
                              c:/program files (x86)/gnu tools arm embedded/4.8 2013q4/bin/../lib/gcc/arm-none-eabi/4.8.3/../../../../arm-none-eabi/lib/armv7e-m\libstdc++.a(string-inst.o) (memmove)
c:/program files (x86)/gnu tools arm embedded/4.8 2013q4/bin/../lib/gcc/arm-none-eabi/4.8.3/../../../../arm-none-eabi/lib/armv7e-m\libc.a(lib_a-memset.o)
                              c:/program files (x86)/gnu tools arm embedded/4.8 2013q4/bin/../lib/gcc/arm-none-eabi/4.8.3/../../../../arm-none-eabi/lib/armv7e-m/crt0.o (memset)
c:/program files (x86)/gnu tools arm embedded/4.8 2013q4/bin/../lib/gcc/arm-none-eabi/4.8.3/../../../../arm-none-eabi/lib/armv7e-m\libc.a(lib_a-mlock.o)
                              c:/program files (x86)/gnu tools arm embedded/4.8 2013q4/bin/../lib/gcc/arm-none-eabi/4.8.3/../../../../arm-none-eabi/lib/armv7e-m\libc.a(lib_a-mallocr.o) (__malloc_lock)
c:/program files (x86)/gnu tools arm embedded/4.8 2013q4/bin/../lib/gcc/arm-none-eabi/4.8.3/../../../../arm-none-eabi/lib/armv7e-m\libc.a(lib_a-printf.o)
                              ../build/obj/bget.o (printf)
c:/program files (x86)/gnu tools arm embedded/4.8 2013q4/bin/../lib/gcc/arm-none-eabi/4.8.3/../../../../arm-none-eabi/lib/armv7e-m\libc.a(lib_a-putc.o)
                              c:/program files (x86)/gnu tools arm embedded/4.8 2013q4/bin/../lib/gcc/arm-none-eabi/4.8.3/../../../../arm-none-eabi/lib/armv7e-m\libc.a(lib_a-fputc.o) (_putc_r)
c:/program files (x86)/gnu tools arm embedded/4.8 2013q4/bin/../lib/gcc/arm-none-eabi/4.8.3/../../../../arm-none-eabi/lib/armv7e-m\libc.a(lib_a-puts.o)
                              ../build/obj/bget.o (puts)
c:/program files (x86)/gnu tools arm embedded/4.8 2013q4/bin/../lib/gcc/arm-none-eabi/4.8.3/../../../../arm-none-eabi/lib/armv7e-m\libc.a(lib_a-realloc.o)
                              c:/program files (x86)/gnu tools arm embedded/4.8 2013q4/bin/../lib/gcc/arm-none-eabi/4.8.3/../../../../arm-none-eabi/lib/armv7e-m\libstdc++.a(cp-demangle.o) (realloc)
c:/program files (x86)/gnu tools arm embedded/4.8 2013q4/bin/../lib/gcc/arm-none-eabi/4.8.3/../../../../arm-none-eabi/lib/armv7e-m\libc.a(lib_a-reallocr.o)
                              c:/program files (x86)/gnu tools arm embedded/4.8 2013q4/bin/../lib/gcc/arm-none-eabi/4.8.3/../../../../arm-none-eabi/lib/armv7e-m\libc.a(lib_a-fvwrite.o) (_realloc_r)
c:/program files (x86)/gnu tools arm embedded/4.8 2013q4/bin/../lib/gcc/arm-none-eabi/4.8.3/../../../../arm-none-eabi/lib/armv7e-m\libc.a(lib_a-reent.o)
                              ../build/obj/sys_conf.o (errno)
c:/program files (x86)/gnu tools arm embedded/4.8 2013q4/bin/../lib/gcc/arm-none-eabi/4.8.3/../../../../arm-none-eabi/lib/armv7e-m\libc.a(lib_a-sbrkr.o)
                              c:/program files (x86)/gnu tools arm embedded/4.8 2013q4/bin/../lib/gcc/arm-none-eabi/4.8.3/../../../../arm-none-eabi/lib/armv7e-m\libc.a(lib_a-mallocr.o) (_sbrk_r)
c:/program files (x86)/gnu tools arm embedded/4.8 2013q4/bin/../lib/gcc/arm-none-eabi/4.8.3/../../../../arm-none-eabi/lib/armv7e-m\libc.a(lib_a-signal.o)
                              c:/program files (x86)/gnu tools arm embedded/4.8 2013q4/bin/../lib/gcc/arm-none-eabi/4.8.3/../../../../arm-none-eabi/lib/armv7e-m\libc.a(lib_a-abort.o) (raise)
c:/program files (x86)/gnu tools arm embedded/4.8 2013q4/bin/../lib/gcc/arm-none-eabi/4.8.3/../../../../arm-none-eabi/lib/armv7e-m\libc.a(lib_a-signalr.o)
                              c:/program files (x86)/gnu tools arm embedded/4.8 2013q4/bin/../lib/gcc/arm-none-eabi/4.8.3/../../../../arm-none-eabi/lib/armv7e-m\libc.a(lib_a-signal.o) (_kill_r)
c:/program files (x86)/gnu tools arm embedded/4.8 2013q4/bin/../lib/gcc/arm-none-eabi/4.8.3/../../../../arm-none-eabi/lib/armv7e-m\libc.a(lib_a-sprintf.o)
                              ../build/obj/bget.o (sprintf)
c:/program files (x86)/gnu tools arm embedded/4.8 2013q4/bin/../lib/gcc/arm-none-eabi/4.8.3/../../../../arm-none-eabi/lib/armv7e-m\libc.a(lib_a-strcmp.o)
                              ../build/obj/udp_color_server.o (strcmp)
c:/program files (x86)/gnu tools arm embedded/4.8 2013q4/bin/../lib/gcc/arm-none-eabi/4.8.3/../../../../arm-none-eabi/lib/armv7e-m\libc.a(lib_a-strerror.o)
                              c:/program files (x86)/gnu tools arm embedded/4.8 2013q4/bin/../lib/gcc/arm-none-eabi/4.8.3/../../../../arm-none-eabi/lib/armv7e-m\libstdc++.a(system_error.o) (strerror)
c:/program files (x86)/gnu tools arm embedded/4.8 2013q4/bin/../lib/gcc/arm-none-eabi/4.8.3/../../../../arm-none-eabi/lib/armv7e-m\libc.a(lib_a-strlen.o)
                              ../build/obj/pbuf.o (strlen)
c:/program files (x86)/gnu tools arm embedded/4.8 2013q4/bin/../lib/gcc/arm-none-eabi/4.8.3/../../../../arm-none-eabi/lib/armv7e-m\libc.a(lib_a-strncmp.o)
                              c:/program files (x86)/gnu tools arm embedded/4.8 2013q4/bin/../lib/gcc/arm-none-eabi/4.8.3/../../../../arm-none-eabi/lib/armv7e-m\libstdc++.a(cp-demangle.o) (strncmp)
c:/program files (x86)/gnu tools arm embedded/4.8 2013q4/bin/../lib/gcc/arm-none-eabi/4.8.3/../../../../arm-none-eabi/lib/armv7e-m\libc.a(lib_a-svfprintf.o)
                              c:/program files (x86)/gnu tools arm embedded/4.8 2013q4/bin/../lib/gcc/arm-none-eabi/4.8.3/../../../../arm-none-eabi/lib/armv7e-m\libc.a(lib_a-sprintf.o) (_svfprintf_r)
c:/program files (x86)/gnu tools arm embedded/4.8 2013q4/bin/../lib/gcc/arm-none-eabi/4.8.3/../../../../arm-none-eabi/lib/armv7e-m\libc.a(lib_a-syswrite.o)
                              c:/program files (x86)/gnu tools arm embedded/4.8 2013q4/bin/../lib/gcc/arm-none-eabi/4.8.3/../../../../arm-none-eabi/lib/armv7e-m\libstdc++.a(pure.o) (write)
c:/program files (x86)/gnu tools arm embedded/4.8 2013q4/bin/../lib/gcc/arm-none-eabi/4.8.3/../../../../arm-none-eabi/lib/armv7e-m\libc.a(lib_a-u_strerr.o)
                              c:/program files (x86)/gnu tools arm embedded/4.8 2013q4/bin/../lib/gcc/arm-none-eabi/4.8.3/../../../../arm-none-eabi/lib/armv7e-m\libc.a(lib_a-strerror.o) (_user_strerror)
c:/program files (x86)/gnu tools arm embedded/4.8 2013q4/bin/../lib/gcc/arm-none-eabi/4.8.3/../../../../arm-none-eabi/lib/armv7e-m\libc.a(lib_a-vfiprintf.o)
                              c:/program files (x86)/gnu tools arm embedded/4.8 2013q4/bin/../lib/gcc/arm-none-eabi/4.8.3/../../../../arm-none-eabi/lib/armv7e-m\libc.a(lib_a-fiprintf.o) (_vfiprintf_r)
c:/program files (x86)/gnu tools arm embedded/4.8 2013q4/bin/../lib/gcc/arm-none-eabi/4.8.3/../../../../arm-none-eabi/lib/armv7e-m\libc.a(lib_a-vfprintf.o)
                              c:/program files (x86)/gnu tools arm embedded/4.8 2013q4/bin/../lib/gcc/arm-none-eabi/4.8.3/../../../../arm-none-eabi/lib/armv7e-m\libc.a(lib_a-printf.o) (_vfprintf_r)
c:/program files (x86)/gnu tools arm embedded/4.8 2013q4/bin/../lib/gcc/arm-none-eabi/4.8.3/../../../../arm-none-eabi/lib/armv7e-m\libc.a(lib_a-wbuf.o)
                              c:/program files (x86)/gnu tools arm embedded/4.8 2013q4/bin/../lib/gcc/arm-none-eabi/4.8.3/../../../../arm-none-eabi/lib/armv7e-m\libc.a(lib_a-putc.o) (__swbuf_r)
c:/program files (x86)/gnu tools arm embedded/4.8 2013q4/bin/../lib/gcc/arm-none-eabi/4.8.3/../../../../arm-none-eabi/lib/armv7e-m\libc.a(lib_a-writer.o)
                              c:/program files (x86)/gnu tools arm embedded/4.8 2013q4/bin/../lib/gcc/arm-none-eabi/4.8.3/../../../../arm-none-eabi/lib/armv7e-m\libc.a(lib_a-syswrite.o) (_write_r)
c:/program files (x86)/gnu tools arm embedded/4.8 2013q4/bin/../lib/gcc/arm-none-eabi/4.8.3/../../../../arm-none-eabi/lib/armv7e-m\libc.a(lib_a-wsetup.o)
                              c:/program files (x86)/gnu tools arm embedded/4.8 2013q4/bin/../lib/gcc/arm-none-eabi/4.8.3/../../../../arm-none-eabi/lib/armv7e-m\libc.a(lib_a-fvwrite.o) (__swsetup_r)
c:/program files (x86)/gnu tools arm embedded/4.8 2013q4/bin/../lib/gcc/arm-none-eabi/4.8.3/../../../../arm-none-eabi/lib/armv7e-m\libc.a(lib_a-__atexit.o)
                              c:/program files (x86)/gnu tools arm embedded/4.8 2013q4/bin/../lib/gcc/arm-none-eabi/4.8.3/../../../../arm-none-eabi/lib/armv7e-m\libc.a(lib_a-cxa_atexit.o) (__register_exitproc)
c:/program files (x86)/gnu tools arm embedded/4.8 2013q4/bin/../lib/gcc/arm-none-eabi/4.8.3/../../../../arm-none-eabi/lib/armv7e-m\libc.a(lib_a-__call_atexit.o)
                              c:/program files (x86)/gnu tools arm embedded/4.8 2013q4/bin/../lib/gcc/arm-none-eabi/4.8.3/../../../../arm-none-eabi/lib/armv7e-m\libc.a(lib_a-exit.o) (__call_exitprocs)
c:/program files (x86)/gnu tools arm embedded/4.8 2013q4/bin/../lib/gcc/arm-none-eabi/4.8.3/../../../../arm-none-eabi/lib/armv7e-m\libc.a(lib_a-atexit.o)
                              c:/program files (x86)/gnu tools arm embedded/4.8 2013q4/bin/../lib/gcc/arm-none-eabi/4.8.3/../../../../arm-none-eabi/lib/armv7e-m\libc.a(lib_a-__call_atexit.o) (atexit)
c:/program files (x86)/gnu tools arm embedded/4.8 2013q4/bin/../lib/gcc/arm-none-eabi/4.8.3/../../../../arm-none-eabi/lib/armv7e-m\libc.a(lib_a-dtoa.o)
                              c:/program files (x86)/gnu tools arm embedded/4.8 2013q4/bin/../lib/gcc/arm-none-eabi/4.8.3/../../../../arm-none-eabi/lib/armv7e-m\libc.a(lib_a-svfprintf.o) (_dtoa_r)
c:/program files (x86)/gnu tools arm embedded/4.8 2013q4/bin/../lib/gcc/arm-none-eabi/4.8.3/../../../../arm-none-eabi/lib/armv7e-m\libc.a(lib_a-fflush.o)
                              c:/program files (x86)/gnu tools arm embedded/4.8 2013q4/bin/../lib/gcc/arm-none-eabi/4.8.3/../../../../arm-none-eabi/lib/armv7e-m\libc.a(lib_a-fvwrite.o) (_fflush_r)
c:/program files (x86)/gnu tools arm embedded/4.8 2013q4/bin/../lib/gcc/arm-none-eabi/4.8.3/../../../../arm-none-eabi/lib/armv7e-m\libc.a(lib_a-findfp.o)
                              c:/program files (x86)/gnu tools arm embedded/4.8 2013q4/bin/../lib/gcc/arm-none-eabi/4.8.3/../../../../arm-none-eabi/lib/armv7e-m\libc.a(lib_a-fputc.o) (__sinit)
c:/program files (x86)/gnu tools arm embedded/4.8 2013q4/bin/../lib/gcc/arm-none-eabi/4.8.3/../../../../arm-none-eabi/lib/armv7e-m\libc.a(lib_a-fini.o)
                              c:/program files (x86)/gnu tools arm embedded/4.8 2013q4/bin/../lib/gcc/arm-none-eabi/4.8.3/../../../../arm-none-eabi/lib/armv7e-m\libc.a(lib_a-__call_atexit.o) (__libc_fini_array)
c:/program files (x86)/gnu tools arm embedded/4.8 2013q4/bin/../lib/gcc/arm-none-eabi/4.8.3/../../../../arm-none-eabi/lib/armv7e-m\libc.a(lib_a-fputwc.o)
                              c:/program files (x86)/gnu tools arm embedded/4.8 2013q4/bin/../lib/gcc/arm-none-eabi/4.8.3/../../../../arm-none-eabi/lib/armv7e-m\libc.a(lib_a-vfiprintf.o) (_fputwc_r)
c:/program files (x86)/gnu tools arm embedded/4.8 2013q4/bin/../lib/gcc/arm-none-eabi/4.8.3/../../../../arm-none-eabi/lib/armv7e-m\libc.a(lib_a-freer.o)
                              c:/program files (x86)/gnu tools arm embedded/4.8 2013q4/bin/../lib/gcc/arm-none-eabi/4.8.3/../../../../arm-none-eabi/lib/armv7e-m\libc.a(lib_a-fvwrite.o) (_free_r)
c:/program files (x86)/gnu tools arm embedded/4.8 2013q4/bin/../lib/gcc/arm-none-eabi/4.8.3/../../../../arm-none-eabi/lib/armv7e-m\libc.a(lib_a-fwalk.o)
                              c:/program files (x86)/gnu tools arm embedded/4.8 2013q4/bin/../lib/gcc/arm-none-eabi/4.8.3/../../../../arm-none-eabi/lib/armv7e-m\libc.a(lib_a-findfp.o) (_fwalk)
c:/program files (x86)/gnu tools arm embedded/4.8 2013q4/bin/../lib/gcc/arm-none-eabi/4.8.3/../../../../arm-none-eabi/lib/armv7e-m\libc.a(lib_a-locale.o)
                              c:/program files (x86)/gnu tools arm embedded/4.8 2013q4/bin/../lib/gcc/arm-none-eabi/4.8.3/../../../../arm-none-eabi/lib/armv7e-m\libc.a(lib_a-fputwc.o) (__locale_mb_cur_max)
c:/program files (x86)/gnu tools arm embedded/4.8 2013q4/bin/../lib/gcc/arm-none-eabi/4.8.3/../../../../arm-none-eabi/lib/armv7e-m\libc.a(lib_a-makebuf.o)
                              c:/program files (x86)/gnu tools arm embedded/4.8 2013q4/bin/../lib/gcc/arm-none-eabi/4.8.3/../../../../arm-none-eabi/lib/armv7e-m\libc.a(lib_a-wsetup.o) (__smakebuf_r)
c:/program files (x86)/gnu tools arm embedded/4.8 2013q4/bin/../lib/gcc/arm-none-eabi/4.8.3/../../../../arm-none-eabi/lib/armv7e-m\libc.a(lib_a-mprec.o)
                              c:/program files (x86)/gnu tools arm embedded/4.8 2013q4/bin/../lib/gcc/arm-none-eabi/4.8.3/../../../../arm-none-eabi/lib/armv7e-m\libc.a(lib_a-dtoa.o) (_Balloc)
c:/program files (x86)/gnu tools arm embedded/4.8 2013q4/bin/../lib/gcc/arm-none-eabi/4.8.3/../../../../arm-none-eabi/lib/armv7e-m\libc.a(lib_a-stdio.o)
                              c:/program files (x86)/gnu tools arm embedded/4.8 2013q4/bin/../lib/gcc/arm-none-eabi/4.8.3/../../../../arm-none-eabi/lib/armv7e-m\libc.a(lib_a-findfp.o) (__sread)
c:/program files (x86)/gnu tools arm embedded/4.8 2013q4/bin/../lib/gcc/arm-none-eabi/4.8.3/../../../../arm-none-eabi/lib/armv7e-m\libc.a(lib_a-svfiprintf.o)
                              c:/program files (x86)/gnu tools arm embedded/4.8 2013q4/bin/../lib/gcc/arm-none-eabi/4.8.3/../../../../arm-none-eabi/lib/armv7e-m\libc.a(lib_a-svfprintf.o) (__ssprint_r)
c:/program files (x86)/gnu tools arm embedded/4.8 2013q4/bin/../lib/gcc/arm-none-eabi/4.8.3/../../../../arm-none-eabi/lib/armv7e-m\libc.a(lib_a-wcrtomb.o)
                              c:/program files (x86)/gnu tools arm embedded/4.8 2013q4/bin/../lib/gcc/arm-none-eabi/4.8.3/../../../../arm-none-eabi/lib/armv7e-m\libc.a(lib_a-fputwc.o) (_wcrtomb_r)
c:/program files (x86)/gnu tools arm embedded/4.8 2013q4/bin/../lib/gcc/arm-none-eabi/4.8.3/../../../../arm-none-eabi/lib/armv7e-m\libc.a(lib_a-wctomb_r.o)
                              c:/program files (x86)/gnu tools arm embedded/4.8 2013q4/bin/../lib/gcc/arm-none-eabi/4.8.3/../../../../arm-none-eabi/lib/armv7e-m\libc.a(lib_a-wcrtomb.o) (__wctomb)
c:/program files (x86)/gnu tools arm embedded/4.8 2013q4/bin/../lib/gcc/arm-none-eabi/4.8.3/../../../../arm-none-eabi/lib/armv7e-m\libc.a(lib_a-callocr.o)
                              c:/program files (x86)/gnu tools arm embedded/4.8 2013q4/bin/../lib/gcc/arm-none-eabi/4.8.3/../../../../arm-none-eabi/lib/armv7e-m\libc.a(lib_a-mprec.o) (_calloc_r)
c:/program files (x86)/gnu tools arm embedded/4.8 2013q4/bin/../lib/gcc/arm-none-eabi/4.8.3/../../../../arm-none-eabi/lib/armv7e-m\libc.a(lib_a-closer.o)
                              c:/program files (x86)/gnu tools arm embedded/4.8 2013q4/bin/../lib/gcc/arm-none-eabi/4.8.3/../../../../arm-none-eabi/lib/armv7e-m\libc.a(lib_a-stdio.o) (_close_r)
c:/program files (x86)/gnu tools arm embedded/4.8 2013q4/bin/../lib/gcc/arm-none-eabi/4.8.3/../../../../arm-none-eabi/lib/armv7e-m\libc.a(lib_a-fclose.o)
                              c:/program files (x86)/gnu tools arm embedded/4.8 2013q4/bin/../lib/gcc/arm-none-eabi/4.8.3/../../../../arm-none-eabi/lib/armv7e-m\libc.a(lib_a-findfp.o) (fclose)
c:/program files (x86)/gnu tools arm embedded/4.8 2013q4/bin/../lib/gcc/arm-none-eabi/4.8.3/../../../../arm-none-eabi/lib/armv7e-m\libc.a(lib_a-fstatr.o)
                              c:/program files (x86)/gnu tools arm embedded/4.8 2013q4/bin/../lib/gcc/arm-none-eabi/4.8.3/../../../../arm-none-eabi/lib/armv7e-m\libc.a(lib_a-makebuf.o) (_fstat_r)
c:/program files (x86)/gnu tools arm embedded/4.8 2013q4/bin/../lib/gcc/arm-none-eabi/4.8.3/../../../../arm-none-eabi/lib/armv7e-m\libc.a(lib_a-isattyr.o)
                              c:/program files (x86)/gnu tools arm embedded/4.8 2013q4/bin/../lib/gcc/arm-none-eabi/4.8.3/../../../../arm-none-eabi/lib/armv7e-m\libc.a(lib_a-makebuf.o) (_isatty_r)
c:/program files (x86)/gnu tools arm embedded/4.8 2013q4/bin/../lib/gcc/arm-none-eabi/4.8.3/../../../../arm-none-eabi/lib/armv7e-m\libc.a(lib_a-lseekr.o)
                              c:/program files (x86)/gnu tools arm embedded/4.8 2013q4/bin/../lib/gcc/arm-none-eabi/4.8.3/../../../../arm-none-eabi/lib/armv7e-m\libc.a(lib_a-stdio.o) (_lseek_r)
c:/program files (x86)/gnu tools arm embedded/4.8 2013q4/bin/../lib/gcc/arm-none-eabi/4.8.3/../../../../arm-none-eabi/lib/armv7e-m\libc.a(lib_a-readr.o)
                              c:/program files (x86)/gnu tools arm embedded/4.8 2013q4/bin/../lib/gcc/arm-none-eabi/4.8.3/../../../../arm-none-eabi/lib/armv7e-m\libc.a(lib_a-stdio.o) (_read_r)
c:/program files (x86)/gnu tools arm embedded/4.8 2013q4/bin/../lib/gcc/arm-none-eabi/4.8.3/armv7e-m\libgcc.a(_aeabi_uldivmod.o)
                              c:/program files (x86)/gnu tools arm embedded/4.8 2013q4/bin/../lib/gcc/arm-none-eabi/4.8.3/../../../../arm-none-eabi/lib/armv7e-m\libc.a(lib_a-svfprintf.o) (__aeabi_uldivmod)
c:/program files (x86)/gnu tools arm embedded/4.8 2013q4/bin/../lib/gcc/arm-none-eabi/4.8.3/armv7e-m\libgcc.a(bpabi.o)
                              c:/program files (x86)/gnu tools arm embedded/4.8 2013q4/bin/../lib/gcc/arm-none-eabi/4.8.3/armv7e-m\libgcc.a(_aeabi_uldivmod.o) (__gnu_uldivmod_helper)
c:/program files (x86)/gnu tools arm embedded/4.8 2013q4/bin/../lib/gcc/arm-none-eabi/4.8.3/armv7e-m\libgcc.a(_dvmd_tls.o)
                              c:/program files (x86)/gnu tools arm embedded/4.8 2013q4/bin/../lib/gcc/arm-none-eabi/4.8.3/armv7e-m\libgcc.a(_aeabi_uldivmod.o) (__aeabi_ldiv0)
c:/program files (x86)/gnu tools arm embedded/4.8 2013q4/bin/../lib/gcc/arm-none-eabi/4.8.3/armv7e-m\libgcc.a(_divdi3.o)
                              c:/program files (x86)/gnu tools arm embedded/4.8 2013q4/bin/../lib/gcc/arm-none-eabi/4.8.3/armv7e-m\libgcc.a(bpabi.o) (__divdi3)
c:/program files (x86)/gnu tools arm embedded/4.8 2013q4/bin/../lib/gcc/arm-none-eabi/4.8.3/armv7e-m\libgcc.a(_udivdi3.o)
                              c:/program files (x86)/gnu tools arm embedded/4.8 2013q4/bin/../lib/gcc/arm-none-eabi/4.8.3/armv7e-m\libgcc.a(bpabi.o) (__udivdi3)
c:/program files (x86)/gnu tools arm embedded/4.8 2013q4/bin/../lib/gcc/arm-none-eabi/4.8.3/../../../../arm-none-eabi/lib/armv7e-m\libm.a(lib_a-s_ceil.o)
                              c:/program files (x86)/gnu tools arm embedded/4.8 2013q4/bin/../lib/gcc/arm-none-eabi/4.8.3/../../../../arm-none-eabi/lib/armv7e-m\libstdc++.a(hashtable_c++0x.o) (ceil)
c:/program files (x86)/gnu tools arm embedded/4.8 2013q4/bin/../lib/gcc/arm-none-eabi/4.8.3/../../../../arm-none-eabi/lib/armv7e-m\libm.a(lib_a-s_floor.o)
                              c:/program files (x86)/gnu tools arm embedded/4.8 2013q4/bin/../lib/gcc/arm-none-eabi/4.8.3/../../../../arm-none-eabi/lib/armv7e-m\libstdc++.a(hashtable_c++0x.o) (floor)

Allocating common symbols
Common symbol       size              file

current_iphdr_src   0x4               ../build/obj/ip.o
netif_list          0x4               ../build/obj/netif.o
RX_Frame_Descriptor
                    0xc               ../build/obj/stm32f4x7_eth.o
udp_pcbs            0x4               ../build/obj/udp.o
errno               0x4               c:/program files (x86)/gnu tools arm embedded/4.8 2013q4/bin/../lib/gcc/arm-none-eabi/4.8.3/../../../../arm-none-eabi/lib/armv7e-m\libc.a(lib_a-reent.o)
current_netif       0x4               ../build/obj/ip.o
ETH_InitStructure   0xbc              ../build/obj/stm32f4x7_eth_bsp.o
DMARxDescToGet      0x4               ../build/obj/stm32f4x7_eth.o
current_iphdr_dest  0x4               ../build/obj/ip.o
gnetif              0x38              ../build/obj/netconf.o
DMATxDescToSet      0x4               ../build/obj/stm32f4x7_eth.o
DMATxDscrTab        0x80              ../build/obj/stm32f4x7_eth.o
current_header      0x4               ../build/obj/ip.o
Rx_Buff             0x17d0            ../build/obj/stm32f4x7_eth.o
dhcp_rx_options_given
                    0xa               ../build/obj/dhcp.o
Frame_Rx_index      0x4               ../build/obj/stm32f4x7_eth.o
DMA_RX_FRAME_infos  0x4               ../build/obj/stm32f4x7_eth.o
DMARxDscrTab        0x80              ../build/obj/stm32f4x7_eth.o
lwip_stats          0xd6              ../build/obj/stats.o
netif_default       0x4               ../build/obj/netif.o
dhcp_rx_options_val
                    0x28              ../build/obj/dhcp.o
ram_heap            0x6414            ../build/obj/mem.o
timingdelay         0x4               ../build/obj/sys_conf.o
Tx_Buff             0x17d0            ../build/obj/stm32f4x7_eth.o

Discarded input sections

 .group         0x00000000       0x10 ../build/obj/oscreceivedelements.o
 .group         0x00000000       0x10 ../build/obj/oscreceivedelements.o
 .group         0x00000000       0x10 ../build/obj/oscreceivedelements.o
 .group         0x00000000       0x10 ../build/obj/oscreceivedelements.o
 .group         0x00000000       0x10 ../build/obj/oscreceivedelements.o
 .group         0x00000000       0x10 ../build/obj/oscreceivedelements.o
 .group         0x00000000       0x10 ../build/obj/oscreceivedelements.o
 .group         0x00000000       0x10 ../build/obj/oscreceivedelements.o
 .group         0x00000000       0x10 ../build/obj/oscreceivedelements.o
 .group         0x00000000       0x10 ../build/obj/oscreceivedelements.o
 .group         0x00000000       0x10 ../build/obj/oscreceivedelements.o
 .group         0x00000000        0x8 ../build/obj/oscreceivedelements.o
 .group         0x00000000        0x8 ../build/obj/oscreceivedelements.o
 .group         0x00000000        0x8 ../build/obj/oscreceivedelements.o
 .group         0x00000000        0x8 ../build/obj/oscreceivedelements.o
 .group         0x00000000        0x8 ../build/obj/oscreceivedelements.o
 .group         0x00000000        0x8 ../build/obj/oscreceivedelements.o
 .group         0x00000000        0x8 ../build/obj/oscreceivedelements.o
 .group         0x00000000        0x8 ../build/obj/oscreceivedelements.o
 .group         0x00000000        0x8 ../build/obj/oscreceivedelements.o
 .group         0x00000000        0x8 ../build/obj/oscreceivedelements.o
 .group         0x00000000        0x8 ../build/obj/oscreceivedelements.o
 .group         0x00000000        0x8 ../build/obj/oscreceivedelements.o
 .group         0x00000000        0x8 ../build/obj/oscreceivedelements.o
 .group         0x00000000        0x8 ../build/obj/oscreceivedelements.o
 .group         0x00000000        0x8 ../build/obj/oscreceivedelements.o
 .group         0x00000000        0x8 ../build/obj/udp_color_server.o
 .group         0x00000000        0x8 ../build/obj/udp_color_server.o
 .group         0x00000000        0x8 ../build/obj/udp_color_server.o
 .group         0x00000000        0x8 ../build/obj/udp_color_server.o
 .group         0x00000000        0x8 ../build/obj/udp_color_server.o
 .group         0x00000000        0x8 ../build/obj/udp_color_server.o
 .group         0x00000000        0x8 ../build/obj/udp_color_server.o
 .group         0x00000000        0x8 ../build/obj/udp_color_server.o
 .group         0x00000000        0x8 ../build/obj/udp_color_server.o
 .group         0x00000000        0x8 ../build/obj/udp_color_server.o
 .group         0x00000000        0x8 ../build/obj/udp_color_server.o
 .group         0x00000000        0x8 ../build/obj/udp_color_server.o
 .group         0x00000000        0x8 ../build/obj/udp_color_server.o
 .group         0x00000000        0x8 ../build/obj/udp_color_server.o
 .group         0x00000000        0x8 ../build/obj/udp_color_server.o
 .group         0x00000000        0x8 ../build/obj/udp_color_server.o
 .group         0x00000000        0x8 ../build/obj/udp_color_server.o
 .group         0x00000000        0x8 ../build/obj/udp_color_server.o
 .group         0x00000000        0x8 ../build/obj/udp_color_server.o
 .group         0x00000000        0x8 ../build/obj/udp_color_server.o
 .group         0x00000000        0x8 ../build/obj/udp_color_server.o
 .group         0x00000000        0x8 ../build/obj/udp_color_server.o
 .group         0x00000000        0x8 ../build/obj/udp_color_server.o
 .group         0x00000000        0x8 ../build/obj/udp_color_server.o
 .group         0x00000000        0x8 ../build/obj/udp_color_server.o
 .group         0x00000000        0x8 ../build/obj/udp_color_server.o
 .group         0x00000000        0x8 ../build/obj/udp_color_server.o
 .group         0x00000000        0x8 ../build/obj/udp_color_server.o
 .group         0x00000000        0x8 ../build/obj/udp_color_server.o
 .group         0x00000000        0x8 ../build/obj/udp_color_server.o
 .group         0x00000000        0x8 ../build/obj/udp_color_server.o
 .group         0x00000000        0x8 ../build/obj/udp_color_server.o
 .group         0x00000000        0x8 ../build/obj/udp_color_server.o
 .group         0x00000000        0x8 ../build/obj/udp_color_server.o
 .group         0x00000000        0x8 ../build/obj/udp_color_server.o
 .group         0x00000000        0x8 ../build/obj/udp_color_server.o
 .group         0x00000000        0x8 ../build/obj/udp_color_server.o
 .group         0x00000000        0x8 ../build/obj/udp_color_server.o
 .group         0x00000000        0x8 ../build/obj/udp_color_server.o
 .group         0x00000000        0x8 ../build/obj/udp_color_server.o
 .group         0x00000000        0x8 ../build/obj/udp_color_server.o
 .group         0x00000000        0x8 ../build/obj/udp_color_server.o
 .group         0x00000000        0x8 ../build/obj/udp_color_server.o
 .group         0x00000000        0x8 ../build/obj/udp_color_server.o
 .group         0x00000000        0x8 ../build/obj/udp_color_server.o
 .group         0x00000000        0x8 c:/program files (x86)/gnu tools arm embedded/4.8 2013q4/bin/../lib/gcc/arm-none-eabi/4.8.3/../../../../arm-none-eabi/lib/armv7e-m\libstdc++.a(fundamental_type_info.o)
 .group         0x00000000        0x8 c:/program files (x86)/gnu tools arm embedded/4.8 2013q4/bin/../lib/gcc/arm-none-eabi/4.8.3/../../../../arm-none-eabi/lib/armv7e-m\libstdc++.a(fundamental_type_info.o)
 .group         0x00000000        0x8 c:/program files (x86)/gnu tools arm embedded/4.8 2013q4/bin/../lib/gcc/arm-none-eabi/4.8.3/../../../../arm-none-eabi/lib/armv7e-m\libstdc++.a(fundamental_type_info.o)
 .group         0x00000000        0x8 c:/program files (x86)/gnu tools arm embedded/4.8 2013q4/bin/../lib/gcc/arm-none-eabi/4.8.3/../../../../arm-none-eabi/lib/armv7e-m\libstdc++.a(fundamental_type_info.o)
 .group         0x00000000        0x8 c:/program files (x86)/gnu tools arm embedded/4.8 2013q4/bin/../lib/gcc/arm-none-eabi/4.8.3/../../../../arm-none-eabi/lib/armv7e-m\libstdc++.a(fundamental_type_info.o)
 .group         0x00000000        0x8 c:/program files (x86)/gnu tools arm embedded/4.8 2013q4/bin/../lib/gcc/arm-none-eabi/4.8.3/../../../../arm-none-eabi/lib/armv7e-m\libstdc++.a(fundamental_type_info.o)
 .group         0x00000000        0x8 c:/program files (x86)/gnu tools arm embedded/4.8 2013q4/bin/../lib/gcc/arm-none-eabi/4.8.3/../../../../arm-none-eabi/lib/armv7e-m\libstdc++.a(fundamental_type_info.o)
 .group         0x00000000        0x8 c:/program files (x86)/gnu tools arm embedded/4.8 2013q4/bin/../lib/gcc/arm-none-eabi/4.8.3/../../../../arm-none-eabi/lib/armv7e-m\libstdc++.a(fundamental_type_info.o)
 .group         0x00000000        0x8 c:/program files (x86)/gnu tools arm embedded/4.8 2013q4/bin/../lib/gcc/arm-none-eabi/4.8.3/../../../../arm-none-eabi/lib/armv7e-m\libstdc++.a(fundamental_type_info.o)
 .group         0x00000000        0x8 c:/program files (x86)/gnu tools arm embedded/4.8 2013q4/bin/../lib/gcc/arm-none-eabi/4.8.3/../../../../arm-none-eabi/lib/armv7e-m\libstdc++.a(fundamental_type_info.o)
 .group         0x00000000        0x8 c:/program files (x86)/gnu tools arm embedded/4.8 2013q4/bin/../lib/gcc/arm-none-eabi/4.8.3/../../../../arm-none-eabi/lib/armv7e-m\libstdc++.a(fundamental_type_info.o)
 .group         0x00000000        0x8 c:/program files (x86)/gnu tools arm embedded/4.8 2013q4/bin/../lib/gcc/arm-none-eabi/4.8.3/../../../../arm-none-eabi/lib/armv7e-m\libstdc++.a(fundamental_type_info.o)
 .group         0x00000000        0x8 c:/program files (x86)/gnu tools arm embedded/4.8 2013q4/bin/../lib/gcc/arm-none-eabi/4.8.3/../../../../arm-none-eabi/lib/armv7e-m\libstdc++.a(fundamental_type_info.o)
 .group         0x00000000        0x8 c:/program files (x86)/gnu tools arm embedded/4.8 2013q4/bin/../lib/gcc/arm-none-eabi/4.8.3/../../../../arm-none-eabi/lib/armv7e-m\libstdc++.a(fundamental_type_info.o)
 .group         0x00000000        0x8 c:/program files (x86)/gnu tools arm embedded/4.8 2013q4/bin/../lib/gcc/arm-none-eabi/4.8.3/../../../../arm-none-eabi/lib/armv7e-m\libstdc++.a(fundamental_type_info.o)
 .group         0x00000000        0x8 c:/program files (x86)/gnu tools arm embedded/4.8 2013q4/bin/../lib/gcc/arm-none-eabi/4.8.3/../../../../arm-none-eabi/lib/armv7e-m\libstdc++.a(fundamental_type_info.o)
 .group         0x00000000        0x8 c:/program files (x86)/gnu tools arm embedded/4.8 2013q4/bin/../lib/gcc/arm-none-eabi/4.8.3/../../../../arm-none-eabi/lib/armv7e-m\libstdc++.a(fundamental_type_info.o)
 .group         0x00000000        0x8 c:/program files (x86)/gnu tools arm embedded/4.8 2013q4/bin/../lib/gcc/arm-none-eabi/4.8.3/../../../../arm-none-eabi/lib/armv7e-m\libstdc++.a(fundamental_type_info.o)
 .group         0x00000000        0x8 c:/program files (x86)/gnu tools arm embedded/4.8 2013q4/bin/../lib/gcc/arm-none-eabi/4.8.3/../../../../arm-none-eabi/lib/armv7e-m\libstdc++.a(fundamental_type_info.o)
 .group         0x00000000        0x8 c:/program files (x86)/gnu tools arm embedded/4.8 2013q4/bin/../lib/gcc/arm-none-eabi/4.8.3/../../../../arm-none-eabi/lib/armv7e-m\libstdc++.a(fundamental_type_info.o)
 .group         0x00000000        0x8 c:/program files (x86)/gnu tools arm embedded/4.8 2013q4/bin/../lib/gcc/arm-none-eabi/4.8.3/../../../../arm-none-eabi/lib/armv7e-m\libstdc++.a(fundamental_type_info.o)
 .group         0x00000000        0x8 c:/program files (x86)/gnu tools arm embedded/4.8 2013q4/bin/../lib/gcc/arm-none-eabi/4.8.3/../../../../arm-none-eabi/lib/armv7e-m\libstdc++.a(fundamental_type_info.o)
 .group         0x00000000        0x8 c:/program files (x86)/gnu tools arm embedded/4.8 2013q4/bin/../lib/gcc/arm-none-eabi/4.8.3/../../../../arm-none-eabi/lib/armv7e-m\libstdc++.a(fundamental_type_info.o)
 .group         0x00000000        0x8 c:/program files (x86)/gnu tools arm embedded/4.8 2013q4/bin/../lib/gcc/arm-none-eabi/4.8.3/../../../../arm-none-eabi/lib/armv7e-m\libstdc++.a(fundamental_type_info.o)
 .group         0x00000000        0x8 c:/program files (x86)/gnu tools arm embedded/4.8 2013q4/bin/../lib/gcc/arm-none-eabi/4.8.3/../../../../arm-none-eabi/lib/armv7e-m\libstdc++.a(fundamental_type_info.o)
 .group         0x00000000        0x8 c:/program files (x86)/gnu tools arm embedded/4.8 2013q4/bin/../lib/gcc/arm-none-eabi/4.8.3/../../../../arm-none-eabi/lib/armv7e-m\libstdc++.a(fundamental_type_info.o)
 .group         0x00000000        0x8 c:/program files (x86)/gnu tools arm embedded/4.8 2013q4/bin/../lib/gcc/arm-none-eabi/4.8.3/../../../../arm-none-eabi/lib/armv7e-m\libstdc++.a(fundamental_type_info.o)
 .group         0x00000000        0x8 c:/program files (x86)/gnu tools arm embedded/4.8 2013q4/bin/../lib/gcc/arm-none-eabi/4.8.3/../../../../arm-none-eabi/lib/armv7e-m\libstdc++.a(fundamental_type_info.o)
 .group         0x00000000        0x8 c:/program files (x86)/gnu tools arm embedded/4.8 2013q4/bin/../lib/gcc/arm-none-eabi/4.8.3/../../../../arm-none-eabi/lib/armv7e-m\libstdc++.a(fundamental_type_info.o)
 .group         0x00000000        0x8 c:/program files (x86)/gnu tools arm embedded/4.8 2013q4/bin/../lib/gcc/arm-none-eabi/4.8.3/../../../../arm-none-eabi/lib/armv7e-m\libstdc++.a(fundamental_type_info.o)
 .group         0x00000000        0x8 c:/program files (x86)/gnu tools arm embedded/4.8 2013q4/bin/../lib/gcc/arm-none-eabi/4.8.3/../../../../arm-none-eabi/lib/armv7e-m\libstdc++.a(fundamental_type_info.o)
 .group         0x00000000        0x8 c:/program files (x86)/gnu tools arm embedded/4.8 2013q4/bin/../lib/gcc/arm-none-eabi/4.8.3/../../../../arm-none-eabi/lib/armv7e-m\libstdc++.a(fundamental_type_info.o)
 .group         0x00000000        0x8 c:/program files (x86)/gnu tools arm embedded/4.8 2013q4/bin/../lib/gcc/arm-none-eabi/4.8.3/../../../../arm-none-eabi/lib/armv7e-m\libstdc++.a(fundamental_type_info.o)
 .group         0x00000000        0x8 c:/program files (x86)/gnu tools arm embedded/4.8 2013q4/bin/../lib/gcc/arm-none-eabi/4.8.3/../../../../arm-none-eabi/lib/armv7e-m\libstdc++.a(fundamental_type_info.o)
 .group         0x00000000        0x8 c:/program files (x86)/gnu tools arm embedded/4.8 2013q4/bin/../lib/gcc/arm-none-eabi/4.8.3/../../../../arm-none-eabi/lib/armv7e-m\libstdc++.a(fundamental_type_info.o)
 .group         0x00000000        0x8 c:/program files (x86)/gnu tools arm embedded/4.8 2013q4/bin/../lib/gcc/arm-none-eabi/4.8.3/../../../../arm-none-eabi/lib/armv7e-m\libstdc++.a(fundamental_type_info.o)
 .group         0x00000000        0x8 c:/program files (x86)/gnu tools arm embedded/4.8 2013q4/bin/../lib/gcc/arm-none-eabi/4.8.3/../../../../arm-none-eabi/lib/armv7e-m\libstdc++.a(fundamental_type_info.o)
 .group         0x00000000        0x8 c:/program files (x86)/gnu tools arm embedded/4.8 2013q4/bin/../lib/gcc/arm-none-eabi/4.8.3/../../../../arm-none-eabi/lib/armv7e-m\libstdc++.a(fundamental_type_info.o)
 .group         0x00000000        0x8 c:/program files (x86)/gnu tools arm embedded/4.8 2013q4/bin/../lib/gcc/arm-none-eabi/4.8.3/../../../../arm-none-eabi/lib/armv7e-m\libstdc++.a(fundamental_type_info.o)
 .group         0x00000000        0x8 c:/program files (x86)/gnu tools arm embedded/4.8 2013q4/bin/../lib/gcc/arm-none-eabi/4.8.3/../../../../arm-none-eabi/lib/armv7e-m\libstdc++.a(fundamental_type_info.o)
 .group         0x00000000        0x8 c:/program files (x86)/gnu tools arm embedded/4.8 2013q4/bin/../lib/gcc/arm-none-eabi/4.8.3/../../../../arm-none-eabi/lib/armv7e-m\libstdc++.a(fundamental_type_info.o)
 .group         0x00000000        0x8 c:/program files (x86)/gnu tools arm embedded/4.8 2013q4/bin/../lib/gcc/arm-none-eabi/4.8.3/../../../../arm-none-eabi/lib/armv7e-m\libstdc++.a(fundamental_type_info.o)
 .group         0x00000000        0x8 c:/program files (x86)/gnu tools arm embedded/4.8 2013q4/bin/../lib/gcc/arm-none-eabi/4.8.3/../../../../arm-none-eabi/lib/armv7e-m\libstdc++.a(fundamental_type_info.o)
 .group         0x00000000        0x8 c:/program files (x86)/gnu tools arm embedded/4.8 2013q4/bin/../lib/gcc/arm-none-eabi/4.8.3/../../../../arm-none-eabi/lib/armv7e-m\libstdc++.a(fundamental_type_info.o)
 .group         0x00000000        0x8 c:/program files (x86)/gnu tools arm embedded/4.8 2013q4/bin/../lib/gcc/arm-none-eabi/4.8.3/../../../../arm-none-eabi/lib/armv7e-m\libstdc++.a(fundamental_type_info.o)
 .group         0x00000000        0x8 c:/program files (x86)/gnu tools arm embedded/4.8 2013q4/bin/../lib/gcc/arm-none-eabi/4.8.3/../../../../arm-none-eabi/lib/armv7e-m\libstdc++.a(fundamental_type_info.o)
 .group         0x00000000        0x8 c:/program files (x86)/gnu tools arm embedded/4.8 2013q4/bin/../lib/gcc/arm-none-eabi/4.8.3/../../../../arm-none-eabi/lib/armv7e-m\libstdc++.a(fundamental_type_info.o)
 .group         0x00000000        0x8 c:/program files (x86)/gnu tools arm embedded/4.8 2013q4/bin/../lib/gcc/arm-none-eabi/4.8.3/../../../../arm-none-eabi/lib/armv7e-m\libstdc++.a(fundamental_type_info.o)
 .group         0x00000000        0x8 c:/program files (x86)/gnu tools arm embedded/4.8 2013q4/bin/../lib/gcc/arm-none-eabi/4.8.3/../../../../arm-none-eabi/lib/armv7e-m\libstdc++.a(fundamental_type_info.o)
 .group         0x00000000        0x8 c:/program files (x86)/gnu tools arm embedded/4.8 2013q4/bin/../lib/gcc/arm-none-eabi/4.8.3/../../../../arm-none-eabi/lib/armv7e-m\libstdc++.a(fundamental_type_info.o)
 .group         0x00000000        0x8 c:/program files (x86)/gnu tools arm embedded/4.8 2013q4/bin/../lib/gcc/arm-none-eabi/4.8.3/../../../../arm-none-eabi/lib/armv7e-m\libstdc++.a(fundamental_type_info.o)
 .group         0x00000000        0x8 c:/program files (x86)/gnu tools arm embedded/4.8 2013q4/bin/../lib/gcc/arm-none-eabi/4.8.3/../../../../arm-none-eabi/lib/armv7e-m\libstdc++.a(fundamental_type_info.o)
 .group         0x00000000        0x8 c:/program files (x86)/gnu tools arm embedded/4.8 2013q4/bin/../lib/gcc/arm-none-eabi/4.8.3/../../../../arm-none-eabi/lib/armv7e-m\libstdc++.a(fundamental_type_info.o)
 .group         0x00000000        0x8 c:/program files (x86)/gnu tools arm embedded/4.8 2013q4/bin/../lib/gcc/arm-none-eabi/4.8.3/../../../../arm-none-eabi/lib/armv7e-m\libstdc++.a(fundamental_type_info.o)
 .group         0x00000000        0x8 c:/program files (x86)/gnu tools arm embedded/4.8 2013q4/bin/../lib/gcc/arm-none-eabi/4.8.3/../../../../arm-none-eabi/lib/armv7e-m\libstdc++.a(fundamental_type_info.o)
 .group         0x00000000        0x8 c:/program files (x86)/gnu tools arm embedded/4.8 2013q4/bin/../lib/gcc/arm-none-eabi/4.8.3/../../../../arm-none-eabi/lib/armv7e-m\libstdc++.a(fundamental_type_info.o)
 .group         0x00000000        0x8 c:/program files (x86)/gnu tools arm embedded/4.8 2013q4/bin/../lib/gcc/arm-none-eabi/4.8.3/../../../../arm-none-eabi/lib/armv7e-m\libstdc++.a(fundamental_type_info.o)
 .group         0x00000000        0x8 c:/program files (x86)/gnu tools arm embedded/4.8 2013q4/bin/../lib/gcc/arm-none-eabi/4.8.3/../../../../arm-none-eabi/lib/armv7e-m\libstdc++.a(fundamental_type_info.o)
 .group         0x00000000        0x8 c:/program files (x86)/gnu tools arm embedded/4.8 2013q4/bin/../lib/gcc/arm-none-eabi/4.8.3/../../../../arm-none-eabi/lib/armv7e-m\libstdc++.a(fundamental_type_info.o)
 .group         0x00000000        0x8 c:/program files (x86)/gnu tools arm embedded/4.8 2013q4/bin/../lib/gcc/arm-none-eabi/4.8.3/../../../../arm-none-eabi/lib/armv7e-m\libstdc++.a(fundamental_type_info.o)
 .group         0x00000000        0x8 c:/program files (x86)/gnu tools arm embedded/4.8 2013q4/bin/../lib/gcc/arm-none-eabi/4.8.3/../../../../arm-none-eabi/lib/armv7e-m\libstdc++.a(fundamental_type_info.o)
 .group         0x00000000        0x8 c:/program files (x86)/gnu tools arm embedded/4.8 2013q4/bin/../lib/gcc/arm-none-eabi/4.8.3/../../../../arm-none-eabi/lib/armv7e-m\libstdc++.a(fundamental_type_info.o)
 .group         0x00000000        0x8 c:/program files (x86)/gnu tools arm embedded/4.8 2013q4/bin/../lib/gcc/arm-none-eabi/4.8.3/../../../../arm-none-eabi/lib/armv7e-m\libstdc++.a(fundamental_type_info.o)
 .group         0x00000000        0x8 c:/program files (x86)/gnu tools arm embedded/4.8 2013q4/bin/../lib/gcc/arm-none-eabi/4.8.3/../../../../arm-none-eabi/lib/armv7e-m\libstdc++.a(fundamental_type_info.o)
 .group         0x00000000        0x8 c:/program files (x86)/gnu tools arm embedded/4.8 2013q4/bin/../lib/gcc/arm-none-eabi/4.8.3/../../../../arm-none-eabi/lib/armv7e-m\libstdc++.a(fundamental_type_info.o)
 .group         0x00000000        0x8 c:/program files (x86)/gnu tools arm embedded/4.8 2013q4/bin/../lib/gcc/arm-none-eabi/4.8.3/../../../../arm-none-eabi/lib/armv7e-m\libstdc++.a(fundamental_type_info.o)
 .group         0x00000000        0x8 c:/program files (x86)/gnu tools arm embedded/4.8 2013q4/bin/../lib/gcc/arm-none-eabi/4.8.3/../../../../arm-none-eabi/lib/armv7e-m\libstdc++.a(fundamental_type_info.o)
 .group         0x00000000        0x8 c:/program files (x86)/gnu tools arm embedded/4.8 2013q4/bin/../lib/gcc/arm-none-eabi/4.8.3/../../../../arm-none-eabi/lib/armv7e-m\libstdc++.a(fundamental_type_info.o)
 .group         0x00000000        0x8 c:/program files (x86)/gnu tools arm embedded/4.8 2013q4/bin/../lib/gcc/arm-none-eabi/4.8.3/../../../../arm-none-eabi/lib/armv7e-m\libstdc++.a(fundamental_type_info.o)
 .group         0x00000000        0x8 c:/program files (x86)/gnu tools arm embedded/4.8 2013q4/bin/../lib/gcc/arm-none-eabi/4.8.3/../../../../arm-none-eabi/lib/armv7e-m\libstdc++.a(fundamental_type_info.o)
 .group         0x00000000        0x8 c:/program files (x86)/gnu tools arm embedded/4.8 2013q4/bin/../lib/gcc/arm-none-eabi/4.8.3/../../../../arm-none-eabi/lib/armv7e-m\libstdc++.a(fundamental_type_info.o)
 .group         0x00000000        0x8 c:/program files (x86)/gnu tools arm embedded/4.8 2013q4/bin/../lib/gcc/arm-none-eabi/4.8.3/../../../../arm-none-eabi/lib/armv7e-m\libstdc++.a(fundamental_type_info.o)
 .group         0x00000000        0x8 c:/program files (x86)/gnu tools arm embedded/4.8 2013q4/bin/../lib/gcc/arm-none-eabi/4.8.3/../../../../arm-none-eabi/lib/armv7e-m\libstdc++.a(fundamental_type_info.o)
 .group         0x00000000        0x8 c:/program files (x86)/gnu tools arm embedded/4.8 2013q4/bin/../lib/gcc/arm-none-eabi/4.8.3/../../../../arm-none-eabi/lib/armv7e-m\libstdc++.a(fundamental_type_info.o)
 .group         0x00000000        0x8 c:/program files (x86)/gnu tools arm embedded/4.8 2013q4/bin/../lib/gcc/arm-none-eabi/4.8.3/../../../../arm-none-eabi/lib/armv7e-m\libstdc++.a(fundamental_type_info.o)
 .group         0x00000000        0x8 c:/program files (x86)/gnu tools arm embedded/4.8 2013q4/bin/../lib/gcc/arm-none-eabi/4.8.3/../../../../arm-none-eabi/lib/armv7e-m\libstdc++.a(fundamental_type_info.o)
 .group         0x00000000        0x8 c:/program files (x86)/gnu tools arm embedded/4.8 2013q4/bin/../lib/gcc/arm-none-eabi/4.8.3/../../../../arm-none-eabi/lib/armv7e-m\libstdc++.a(fundamental_type_info.o)
 .group         0x00000000        0x8 c:/program files (x86)/gnu tools arm embedded/4.8 2013q4/bin/../lib/gcc/arm-none-eabi/4.8.3/../../../../arm-none-eabi/lib/armv7e-m\libstdc++.a(fundamental_type_info.o)
 .group         0x00000000        0x8 c:/program files (x86)/gnu tools arm embedded/4.8 2013q4/bin/../lib/gcc/arm-none-eabi/4.8.3/../../../../arm-none-eabi/lib/armv7e-m\libstdc++.a(fundamental_type_info.o)
 .group         0x00000000        0x8 c:/program files (x86)/gnu tools arm embedded/4.8 2013q4/bin/../lib/gcc/arm-none-eabi/4.8.3/../../../../arm-none-eabi/lib/armv7e-m\libstdc++.a(fundamental_type_info.o)
 .group         0x00000000        0x8 c:/program files (x86)/gnu tools arm embedded/4.8 2013q4/bin/../lib/gcc/arm-none-eabi/4.8.3/../../../../arm-none-eabi/lib/armv7e-m\libstdc++.a(fundamental_type_info.o)
 .group         0x00000000        0x8 c:/program files (x86)/gnu tools arm embedded/4.8 2013q4/bin/../lib/gcc/arm-none-eabi/4.8.3/../../../../arm-none-eabi/lib/armv7e-m\libstdc++.a(fundamental_type_info.o)
 .group         0x00000000        0x8 c:/program files (x86)/gnu tools arm embedded/4.8 2013q4/bin/../lib/gcc/arm-none-eabi/4.8.3/../../../../arm-none-eabi/lib/armv7e-m\libstdc++.a(fundamental_type_info.o)
 .group         0x00000000        0x8 c:/program files (x86)/gnu tools arm embedded/4.8 2013q4/bin/../lib/gcc/arm-none-eabi/4.8.3/../../../../arm-none-eabi/lib/armv7e-m\libstdc++.a(fundamental_type_info.o)
 .group         0x00000000        0x8 c:/program files (x86)/gnu tools arm embedded/4.8 2013q4/bin/../lib/gcc/arm-none-eabi/4.8.3/../../../../arm-none-eabi/lib/armv7e-m\libstdc++.a(fundamental_type_info.o)
 .group         0x00000000        0x8 c:/program files (x86)/gnu tools arm embedded/4.8 2013q4/bin/../lib/gcc/arm-none-eabi/4.8.3/../../../../arm-none-eabi/lib/armv7e-m\libstdc++.a(fundamental_type_info.o)
 .group         0x00000000        0x8 c:/program files (x86)/gnu tools arm embedded/4.8 2013q4/bin/../lib/gcc/arm-none-eabi/4.8.3/../../../../arm-none-eabi/lib/armv7e-m\libstdc++.a(fundamental_type_info.o)
 .group         0x00000000        0x8 c:/program files (x86)/gnu tools arm embedded/4.8 2013q4/bin/../lib/gcc/arm-none-eabi/4.8.3/../../../../arm-none-eabi/lib/armv7e-m\libstdc++.a(fundamental_type_info.o)
 .group         0x00000000        0x8 c:/program files (x86)/gnu tools arm embedded/4.8 2013q4/bin/../lib/gcc/arm-none-eabi/4.8.3/../../../../arm-none-eabi/lib/armv7e-m\libstdc++.a(fundamental_type_info.o)
 .group         0x00000000        0x8 c:/program files (x86)/gnu tools arm embedded/4.8 2013q4/bin/../lib/gcc/arm-none-eabi/4.8.3/../../../../arm-none-eabi/lib/armv7e-m\libstdc++.a(fundamental_type_info.o)
 .group         0x00000000        0x8 c:/program files (x86)/gnu tools arm embedded/4.8 2013q4/bin/../lib/gcc/arm-none-eabi/4.8.3/../../../../arm-none-eabi/lib/armv7e-m\libstdc++.a(fundamental_type_info.o)
 .group         0x00000000        0x8 c:/program files (x86)/gnu tools arm embedded/4.8 2013q4/bin/../lib/gcc/arm-none-eabi/4.8.3/../../../../arm-none-eabi/lib/armv7e-m\libstdc++.a(fundamental_type_info.o)
 .group         0x00000000        0x8 c:/program files (x86)/gnu tools arm embedded/4.8 2013q4/bin/../lib/gcc/arm-none-eabi/4.8.3/../../../../arm-none-eabi/lib/armv7e-m\libstdc++.a(fundamental_type_info.o)
 .group         0x00000000        0x8 c:/program files (x86)/gnu tools arm embedded/4.8 2013q4/bin/../lib/gcc/arm-none-eabi/4.8.3/../../../../arm-none-eabi/lib/armv7e-m\libstdc++.a(fundamental_type_info.o)
 .group         0x00000000        0x8 c:/program files (x86)/gnu tools arm embedded/4.8 2013q4/bin/../lib/gcc/arm-none-eabi/4.8.3/../../../../arm-none-eabi/lib/armv7e-m\libstdc++.a(fundamental_type_info.o)
 .group         0x00000000        0x8 c:/program files (x86)/gnu tools arm embedded/4.8 2013q4/bin/../lib/gcc/arm-none-eabi/4.8.3/../../../../arm-none-eabi/lib/armv7e-m\libstdc++.a(fundamental_type_info.o)
 .group         0x00000000        0x8 c:/program files (x86)/gnu tools arm embedded/4.8 2013q4/bin/../lib/gcc/arm-none-eabi/4.8.3/../../../../arm-none-eabi/lib/armv7e-m\libstdc++.a(fundamental_type_info.o)
 .group         0x00000000        0x8 c:/program files (x86)/gnu tools arm embedded/4.8 2013q4/bin/../lib/gcc/arm-none-eabi/4.8.3/../../../../arm-none-eabi/lib/armv7e-m\libstdc++.a(fundamental_type_info.o)
 .group         0x00000000        0x8 c:/program files (x86)/gnu tools arm embedded/4.8 2013q4/bin/../lib/gcc/arm-none-eabi/4.8.3/../../../../arm-none-eabi/lib/armv7e-m\libstdc++.a(fundamental_type_info.o)
 .group         0x00000000        0x8 c:/program files (x86)/gnu tools arm embedded/4.8 2013q4/bin/../lib/gcc/arm-none-eabi/4.8.3/../../../../arm-none-eabi/lib/armv7e-m\libstdc++.a(fundamental_type_info.o)
 .group         0x00000000        0x8 c:/program files (x86)/gnu tools arm embedded/4.8 2013q4/bin/../lib/gcc/arm-none-eabi/4.8.3/../../../../arm-none-eabi/lib/armv7e-m\libstdc++.a(fundamental_type_info.o)
 .group         0x00000000        0x8 c:/program files (x86)/gnu tools arm embedded/4.8 2013q4/bin/../lib/gcc/arm-none-eabi/4.8.3/../../../../arm-none-eabi/lib/armv7e-m\libstdc++.a(fundamental_type_info.o)
 .group         0x00000000        0x8 c:/program files (x86)/gnu tools arm embedded/4.8 2013q4/bin/../lib/gcc/arm-none-eabi/4.8.3/../../../../arm-none-eabi/lib/armv7e-m\libstdc++.a(fundamental_type_info.o)
 .group         0x00000000        0x8 c:/program files (x86)/gnu tools arm embedded/4.8 2013q4/bin/../lib/gcc/arm-none-eabi/4.8.3/../../../../arm-none-eabi/lib/armv7e-m\libstdc++.a(fundamental_type_info.o)
 .group         0x00000000        0x8 c:/program files (x86)/gnu tools arm embedded/4.8 2013q4/bin/../lib/gcc/arm-none-eabi/4.8.3/../../../../arm-none-eabi/lib/armv7e-m\libstdc++.a(fundamental_type_info.o)
 .group         0x00000000        0x8 c:/program files (x86)/gnu tools arm embedded/4.8 2013q4/bin/../lib/gcc/arm-none-eabi/4.8.3/../../../../arm-none-eabi/lib/armv7e-m\libstdc++.a(fundamental_type_info.o)
 .group         0x00000000        0x8 c:/program files (x86)/gnu tools arm embedded/4.8 2013q4/bin/../lib/gcc/arm-none-eabi/4.8.3/../../../../arm-none-eabi/lib/armv7e-m\libstdc++.a(fundamental_type_info.o)
 .group         0x00000000        0x8 c:/program files (x86)/gnu tools arm embedded/4.8 2013q4/bin/../lib/gcc/arm-none-eabi/4.8.3/../../../../arm-none-eabi/lib/armv7e-m\libstdc++.a(fundamental_type_info.o)
 .group         0x00000000        0x8 c:/program files (x86)/gnu tools arm embedded/4.8 2013q4/bin/../lib/gcc/arm-none-eabi/4.8.3/../../../../arm-none-eabi/lib/armv7e-m\libstdc++.a(fundamental_type_info.o)
 .group         0x00000000        0x8 c:/program files (x86)/gnu tools arm embedded/4.8 2013q4/bin/../lib/gcc/arm-none-eabi/4.8.3/../../../../arm-none-eabi/lib/armv7e-m\libstdc++.a(fundamental_type_info.o)
 .group         0x00000000        0x8 c:/program files (x86)/gnu tools arm embedded/4.8 2013q4/bin/../lib/gcc/arm-none-eabi/4.8.3/../../../../arm-none-eabi/lib/armv7e-m\libstdc++.a(fundamental_type_info.o)
 .group         0x00000000        0x8 c:/program files (x86)/gnu tools arm embedded/4.8 2013q4/bin/../lib/gcc/arm-none-eabi/4.8.3/../../../../arm-none-eabi/lib/armv7e-m\libstdc++.a(fundamental_type_info.o)
 .group         0x00000000        0x8 c:/program files (x86)/gnu tools arm embedded/4.8 2013q4/bin/../lib/gcc/arm-none-eabi/4.8.3/../../../../arm-none-eabi/lib/armv7e-m\libstdc++.a(fundamental_type_info.o)
 .group         0x00000000        0x8 c:/program files (x86)/gnu tools arm embedded/4.8 2013q4/bin/../lib/gcc/arm-none-eabi/4.8.3/../../../../arm-none-eabi/lib/armv7e-m\libstdc++.a(fundamental_type_info.o)
 .group         0x00000000        0x8 c:/program files (x86)/gnu tools arm embedded/4.8 2013q4/bin/../lib/gcc/arm-none-eabi/4.8.3/../../../../arm-none-eabi/lib/armv7e-m\libstdc++.a(fundamental_type_info.o)
 .group         0x00000000        0x8 c:/program files (x86)/gnu tools arm embedded/4.8 2013q4/bin/../lib/gcc/arm-none-eabi/4.8.3/../../../../arm-none-eabi/lib/armv7e-m\libstdc++.a(fundamental_type_info.o)
 .group         0x00000000        0x8 c:/program files (x86)/gnu tools arm embedded/4.8 2013q4/bin/../lib/gcc/arm-none-eabi/4.8.3/../../../../arm-none-eabi/lib/armv7e-m\libstdc++.a(fundamental_type_info.o)
 .group         0x00000000        0x8 c:/program files (x86)/gnu tools arm embedded/4.8 2013q4/bin/../lib/gcc/arm-none-eabi/4.8.3/../../../../arm-none-eabi/lib/armv7e-m\libstdc++.a(fundamental_type_info.o)
 .group         0x00000000        0x8 c:/program files (x86)/gnu tools arm embedded/4.8 2013q4/bin/../lib/gcc/arm-none-eabi/4.8.3/../../../../arm-none-eabi/lib/armv7e-m\libstdc++.a(fundamental_type_info.o)
 .group         0x00000000        0x8 c:/program files (x86)/gnu tools arm embedded/4.8 2013q4/bin/../lib/gcc/arm-none-eabi/4.8.3/../../../../arm-none-eabi/lib/armv7e-m\libstdc++.a(fundamental_type_info.o)
 .group         0x00000000        0x8 c:/program files (x86)/gnu tools arm embedded/4.8 2013q4/bin/../lib/gcc/arm-none-eabi/4.8.3/../../../../arm-none-eabi/lib/armv7e-m\libstdc++.a(fundamental_type_info.o)
 .group         0x00000000        0x8 c:/program files (x86)/gnu tools arm embedded/4.8 2013q4/bin/../lib/gcc/arm-none-eabi/4.8.3/../../../../arm-none-eabi/lib/armv7e-m\libstdc++.a(fundamental_type_info.o)
 .group         0x00000000        0x8 c:/program files (x86)/gnu tools arm embedded/4.8 2013q4/bin/../lib/gcc/arm-none-eabi/4.8.3/../../../../arm-none-eabi/lib/armv7e-m\libstdc++.a(fundamental_type_info.o)
 .group         0x00000000        0x8 c:/program files (x86)/gnu tools arm embedded/4.8 2013q4/bin/../lib/gcc/arm-none-eabi/4.8.3/../../../../arm-none-eabi/lib/armv7e-m\libstdc++.a(fundamental_type_info.o)
 .group         0x00000000        0x8 c:/program files (x86)/gnu tools arm embedded/4.8 2013q4/bin/../lib/gcc/arm-none-eabi/4.8.3/../../../../arm-none-eabi/lib/armv7e-m\libstdc++.a(fundamental_type_info.o)
 .group         0x00000000        0x8 c:/program files (x86)/gnu tools arm embedded/4.8 2013q4/bin/../lib/gcc/arm-none-eabi/4.8.3/../../../../arm-none-eabi/lib/armv7e-m\libstdc++.a(fundamental_type_info.o)
 .group         0x00000000        0x8 c:/program files (x86)/gnu tools arm embedded/4.8 2013q4/bin/../lib/gcc/arm-none-eabi/4.8.3/../../../../arm-none-eabi/lib/armv7e-m\libstdc++.a(fundamental_type_info.o)
 .group         0x00000000        0x8 c:/program files (x86)/gnu tools arm embedded/4.8 2013q4/bin/../lib/gcc/arm-none-eabi/4.8.3/../../../../arm-none-eabi/lib/armv7e-m\libstdc++.a(fundamental_type_info.o)
 .group         0x00000000        0x8 c:/program files (x86)/gnu tools arm embedded/4.8 2013q4/bin/../lib/gcc/arm-none-eabi/4.8.3/../../../../arm-none-eabi/lib/armv7e-m\libstdc++.a(fundamental_type_info.o)
 .group         0x00000000        0x8 c:/program files (x86)/gnu tools arm embedded/4.8 2013q4/bin/../lib/gcc/arm-none-eabi/4.8.3/../../../../arm-none-eabi/lib/armv7e-m\libstdc++.a(fundamental_type_info.o)
 .group         0x00000000        0x8 c:/program files (x86)/gnu tools arm embedded/4.8 2013q4/bin/../lib/gcc/arm-none-eabi/4.8.3/../../../../arm-none-eabi/lib/armv7e-m\libstdc++.a(fundamental_type_info.o)
 .group         0x00000000        0x8 c:/program files (x86)/gnu tools arm embedded/4.8 2013q4/bin/../lib/gcc/arm-none-eabi/4.8.3/../../../../arm-none-eabi/lib/armv7e-m\libstdc++.a(fundamental_type_info.o)
 .group         0x00000000        0x8 c:/program files (x86)/gnu tools arm embedded/4.8 2013q4/bin/../lib/gcc/arm-none-eabi/4.8.3/../../../../arm-none-eabi/lib/armv7e-m\libstdc++.a(fundamental_type_info.o)
 .group         0x00000000        0x8 c:/program files (x86)/gnu tools arm embedded/4.8 2013q4/bin/../lib/gcc/arm-none-eabi/4.8.3/../../../../arm-none-eabi/lib/armv7e-m\libstdc++.a(fundamental_type_info.o)
 .group         0x00000000        0x8 c:/program files (x86)/gnu tools arm embedded/4.8 2013q4/bin/../lib/gcc/arm-none-eabi/4.8.3/../../../../arm-none-eabi/lib/armv7e-m\libstdc++.a(fundamental_type_info.o)
 .group         0x00000000        0x8 c:/program files (x86)/gnu tools arm embedded/4.8 2013q4/bin/../lib/gcc/arm-none-eabi/4.8.3/../../../../arm-none-eabi/lib/armv7e-m\libstdc++.a(fundamental_type_info.o)
 .group         0x00000000        0x8 c:/program files (x86)/gnu tools arm embedded/4.8 2013q4/bin/../lib/gcc/arm-none-eabi/4.8.3/../../../../arm-none-eabi/lib/armv7e-m\libstdc++.a(fundamental_type_info.o)
 .group         0x00000000        0x8 c:/program files (x86)/gnu tools arm embedded/4.8 2013q4/bin/../lib/gcc/arm-none-eabi/4.8.3/../../../../arm-none-eabi/lib/armv7e-m\libstdc++.a(fundamental_type_info.o)
 .group         0x00000000       0x10 c:/program files (x86)/gnu tools arm embedded/4.8 2013q4/bin/../lib/gcc/arm-none-eabi/4.8.3/../../../../arm-none-eabi/lib/armv7e-m\libstdc++.a(pbase_type_info.o)
 .group         0x00000000       0x10 c:/program files (x86)/gnu tools arm embedded/4.8 2013q4/bin/../lib/gcc/arm-none-eabi/4.8.3/../../../../arm-none-eabi/lib/armv7e-m\libstdc++.a(string-inst.o)
 .group         0x00000000       0x10 c:/program files (x86)/gnu tools arm embedded/4.8 2013q4/bin/../lib/gcc/arm-none-eabi/4.8.3/../../../../arm-none-eabi/lib/armv7e-m\libstdc++.a(string-inst.o)
 .group         0x00000000       0x10 c:/program files (x86)/gnu tools arm embedded/4.8 2013q4/bin/../lib/gcc/arm-none-eabi/4.8.3/../../../../arm-none-eabi/lib/armv7e-m\libstdc++.a(string-inst.o)
 .group         0x00000000       0x10 c:/program files (x86)/gnu tools arm embedded/4.8 2013q4/bin/../lib/gcc/arm-none-eabi/4.8.3/../../../../arm-none-eabi/lib/armv7e-m\libstdc++.a(string-inst.o)
 .group         0x00000000       0x10 c:/program files (x86)/gnu tools arm embedded/4.8 2013q4/bin/../lib/gcc/arm-none-eabi/4.8.3/../../../../arm-none-eabi/lib/armv7e-m\libstdc++.a(string-inst.o)
 .group         0x00000000       0x10 c:/program files (x86)/gnu tools arm embedded/4.8 2013q4/bin/../lib/gcc/arm-none-eabi/4.8.3/../../../../arm-none-eabi/lib/armv7e-m\libstdc++.a(string-inst.o)
 .group         0x00000000       0x10 c:/program files (x86)/gnu tools arm embedded/4.8 2013q4/bin/../lib/gcc/arm-none-eabi/4.8.3/../../../../arm-none-eabi/lib/armv7e-m\libstdc++.a(string-inst.o)
 .group         0x00000000       0x10 c:/program files (x86)/gnu tools arm embedded/4.8 2013q4/bin/../lib/gcc/arm-none-eabi/4.8.3/../../../../arm-none-eabi/lib/armv7e-m\libstdc++.a(string-inst.o)
 .group         0x00000000       0x10 c:/program files (x86)/gnu tools arm embedded/4.8 2013q4/bin/../lib/gcc/arm-none-eabi/4.8.3/../../../../arm-none-eabi/lib/armv7e-m\libstdc++.a(string-inst.o)
 .group         0x00000000       0x10 c:/program files (x86)/gnu tools arm embedded/4.8 2013q4/bin/../lib/gcc/arm-none-eabi/4.8.3/../../../../arm-none-eabi/lib/armv7e-m\libstdc++.a(string-inst.o)
 .group         0x00000000       0x10 c:/program files (x86)/gnu tools arm embedded/4.8 2013q4/bin/../lib/gcc/arm-none-eabi/4.8.3/../../../../arm-none-eabi/lib/armv7e-m\libstdc++.a(string-inst.o)
 .group         0x00000000       0x10 c:/program files (x86)/gnu tools arm embedded/4.8 2013q4/bin/../lib/gcc/arm-none-eabi/4.8.3/../../../../arm-none-eabi/lib/armv7e-m\libstdc++.a(string-inst.o)
 .group         0x00000000       0x10 c:/program files (x86)/gnu tools arm embedded/4.8 2013q4/bin/../lib/gcc/arm-none-eabi/4.8.3/../../../../arm-none-eabi/lib/armv7e-m\libstdc++.a(string-inst.o)
 .group         0x00000000       0x10 c:/program files (x86)/gnu tools arm embedded/4.8 2013q4/bin/../lib/gcc/arm-none-eabi/4.8.3/../../../../arm-none-eabi/lib/armv7e-m\libstdc++.a(string-inst.o)
 .group         0x00000000       0x10 c:/program files (x86)/gnu tools arm embedded/4.8 2013q4/bin/../lib/gcc/arm-none-eabi/4.8.3/../../../../arm-none-eabi/lib/armv7e-m\libstdc++.a(string-inst.o)
 .group         0x00000000       0x10 c:/program files (x86)/gnu tools arm embedded/4.8 2013q4/bin/../lib/gcc/arm-none-eabi/4.8.3/../../../../arm-none-eabi/lib/armv7e-m\libstdc++.a(string-inst.o)
 .group         0x00000000       0x10 c:/program files (x86)/gnu tools arm embedded/4.8 2013q4/bin/../lib/gcc/arm-none-eabi/4.8.3/../../../../arm-none-eabi/lib/armv7e-m\libstdc++.a(string-inst.o)
 .group         0x00000000       0x10 c:/program files (x86)/gnu tools arm embedded/4.8 2013q4/bin/../lib/gcc/arm-none-eabi/4.8.3/../../../../arm-none-eabi/lib/armv7e-m\libstdc++.a(string-inst.o)
 .group         0x00000000       0x10 c:/program files (x86)/gnu tools arm embedded/4.8 2013q4/bin/../lib/gcc/arm-none-eabi/4.8.3/../../../../arm-none-eabi/lib/armv7e-m\libstdc++.a(string-inst.o)
 .group         0x00000000       0x10 c:/program files (x86)/gnu tools arm embedded/4.8 2013q4/bin/../lib/gcc/arm-none-eabi/4.8.3/../../../../arm-none-eabi/lib/armv7e-m\libstdc++.a(string-inst.o)
 .group         0x00000000       0x10 c:/program files (x86)/gnu tools arm embedded/4.8 2013q4/bin/../lib/gcc/arm-none-eabi/4.8.3/../../../../arm-none-eabi/lib/armv7e-m\libstdc++.a(string-inst.o)
 .group         0x00000000       0x10 c:/program files (x86)/gnu tools arm embedded/4.8 2013q4/bin/../lib/gcc/arm-none-eabi/4.8.3/../../../../arm-none-eabi/lib/armv7e-m\libstdc++.a(string-inst.o)
 .group         0x00000000       0x10 c:/program files (x86)/gnu tools arm embedded/4.8 2013q4/bin/../lib/gcc/arm-none-eabi/4.8.3/../../../../arm-none-eabi/lib/armv7e-m\libstdc++.a(string-inst.o)
 .group         0x00000000       0x10 c:/program files (x86)/gnu tools arm embedded/4.8 2013q4/bin/../lib/gcc/arm-none-eabi/4.8.3/../../../../arm-none-eabi/lib/armv7e-m\libstdc++.a(string-inst.o)
 .group         0x00000000       0x10 c:/program files (x86)/gnu tools arm embedded/4.8 2013q4/bin/../lib/gcc/arm-none-eabi/4.8.3/../../../../arm-none-eabi/lib/armv7e-m\libstdc++.a(string-inst.o)
 .group         0x00000000       0x10 c:/program files (x86)/gnu tools arm embedded/4.8 2013q4/bin/../lib/gcc/arm-none-eabi/4.8.3/../../../../arm-none-eabi/lib/armv7e-m\libstdc++.a(string-inst.o)
 .group         0x00000000       0x10 c:/program files (x86)/gnu tools arm embedded/4.8 2013q4/bin/../lib/gcc/arm-none-eabi/4.8.3/../../../../arm-none-eabi/lib/armv7e-m\libstdc++.a(string-inst.o)
 .group         0x00000000       0x10 c:/program files (x86)/gnu tools arm embedded/4.8 2013q4/bin/../lib/gcc/arm-none-eabi/4.8.3/../../../../arm-none-eabi/lib/armv7e-m\libstdc++.a(string-inst.o)
 .group         0x00000000       0x10 c:/program files (x86)/gnu tools arm embedded/4.8 2013q4/bin/../lib/gcc/arm-none-eabi/4.8.3/../../../../arm-none-eabi/lib/armv7e-m\libstdc++.a(string-inst.o)
 .group         0x00000000       0x10 c:/program files (x86)/gnu tools arm embedded/4.8 2013q4/bin/../lib/gcc/arm-none-eabi/4.8.3/../../../../arm-none-eabi/lib/armv7e-m\libstdc++.a(string-inst.o)
 .group         0x00000000       0x10 c:/program files (x86)/gnu tools arm embedded/4.8 2013q4/bin/../lib/gcc/arm-none-eabi/4.8.3/../../../../arm-none-eabi/lib/armv7e-m\libstdc++.a(string-inst.o)
 .group         0x00000000       0x10 c:/program files (x86)/gnu tools arm embedded/4.8 2013q4/bin/../lib/gcc/arm-none-eabi/4.8.3/../../../../arm-none-eabi/lib/armv7e-m\libstdc++.a(string-inst.o)
 .group         0x00000000       0x10 c:/program files (x86)/gnu tools arm embedded/4.8 2013q4/bin/../lib/gcc/arm-none-eabi/4.8.3/../../../../arm-none-eabi/lib/armv7e-m\libstdc++.a(string-inst.o)
 .group         0x00000000       0x10 c:/program files (x86)/gnu tools arm embedded/4.8 2013q4/bin/../lib/gcc/arm-none-eabi/4.8.3/../../../../arm-none-eabi/lib/armv7e-m\libstdc++.a(string-inst.o)
 .group         0x00000000       0x10 c:/program files (x86)/gnu tools arm embedded/4.8 2013q4/bin/../lib/gcc/arm-none-eabi/4.8.3/../../../../arm-none-eabi/lib/armv7e-m\libstdc++.a(string-inst.o)
 .group         0x00000000       0x10 c:/program files (x86)/gnu tools arm embedded/4.8 2013q4/bin/../lib/gcc/arm-none-eabi/4.8.3/../../../../arm-none-eabi/lib/armv7e-m\libstdc++.a(string-inst.o)
 .group         0x00000000       0x10 c:/program files (x86)/gnu tools arm embedded/4.8 2013q4/bin/../lib/gcc/arm-none-eabi/4.8.3/../../../../arm-none-eabi/lib/armv7e-m\libstdc++.a(string-inst.o)
 .group         0x00000000       0x10 c:/program files (x86)/gnu tools arm embedded/4.8 2013q4/bin/../lib/gcc/arm-none-eabi/4.8.3/../../../../arm-none-eabi/lib/armv7e-m\libstdc++.a(string-inst.o)
 .group         0x00000000       0x10 c:/program files (x86)/gnu tools arm embedded/4.8 2013q4/bin/../lib/gcc/arm-none-eabi/4.8.3/../../../../arm-none-eabi/lib/armv7e-m\libstdc++.a(string-inst.o)
 .group         0x00000000       0x10 c:/program files (x86)/gnu tools arm embedded/4.8 2013q4/bin/../lib/gcc/arm-none-eabi/4.8.3/../../../../arm-none-eabi/lib/armv7e-m\libstdc++.a(string-inst.o)
 .group         0x00000000       0x10 c:/program files (x86)/gnu tools arm embedded/4.8 2013q4/bin/../lib/gcc/arm-none-eabi/4.8.3/../../../../arm-none-eabi/lib/armv7e-m\libstdc++.a(string-inst.o)
 .group         0x00000000       0x10 c:/program files (x86)/gnu tools arm embedded/4.8 2013q4/bin/../lib/gcc/arm-none-eabi/4.8.3/../../../../arm-none-eabi/lib/armv7e-m\libstdc++.a(string-inst.o)
 .group         0x00000000       0x10 c:/program files (x86)/gnu tools arm embedded/4.8 2013q4/bin/../lib/gcc/arm-none-eabi/4.8.3/../../../../arm-none-eabi/lib/armv7e-m\libstdc++.a(string-inst.o)
 .group         0x00000000       0x10 c:/program files (x86)/gnu tools arm embedded/4.8 2013q4/bin/../lib/gcc/arm-none-eabi/4.8.3/../../../../arm-none-eabi/lib/armv7e-m\libstdc++.a(string-inst.o)
 .group         0x00000000       0x10 c:/program files (x86)/gnu tools arm embedded/4.8 2013q4/bin/../lib/gcc/arm-none-eabi/4.8.3/../../../../arm-none-eabi/lib/armv7e-m\libstdc++.a(string-inst.o)
 .group         0x00000000       0x10 c:/program files (x86)/gnu tools arm embedded/4.8 2013q4/bin/../lib/gcc/arm-none-eabi/4.8.3/../../../../arm-none-eabi/lib/armv7e-m\libstdc++.a(string-inst.o)
 .group         0x00000000       0x10 c:/program files (x86)/gnu tools arm embedded/4.8 2013q4/bin/../lib/gcc/arm-none-eabi/4.8.3/../../../../arm-none-eabi/lib/armv7e-m\libstdc++.a(string-inst.o)
 .group         0x00000000       0x10 c:/program files (x86)/gnu tools arm embedded/4.8 2013q4/bin/../lib/gcc/arm-none-eabi/4.8.3/../../../../arm-none-eabi/lib/armv7e-m\libstdc++.a(string-inst.o)
 .group         0x00000000       0x10 c:/program files (x86)/gnu tools arm embedded/4.8 2013q4/bin/../lib/gcc/arm-none-eabi/4.8.3/../../../../arm-none-eabi/lib/armv7e-m\libstdc++.a(string-inst.o)
 .group         0x00000000       0x10 c:/program files (x86)/gnu tools arm embedded/4.8 2013q4/bin/../lib/gcc/arm-none-eabi/4.8.3/../../../../arm-none-eabi/lib/armv7e-m\libstdc++.a(string-inst.o)
 .group         0x00000000       0x10 c:/program files (x86)/gnu tools arm embedded/4.8 2013q4/bin/../lib/gcc/arm-none-eabi/4.8.3/../../../../arm-none-eabi/lib/armv7e-m\libstdc++.a(string-inst.o)
 .group         0x00000000       0x10 c:/program files (x86)/gnu tools arm embedded/4.8 2013q4/bin/../lib/gcc/arm-none-eabi/4.8.3/../../../../arm-none-eabi/lib/armv7e-m\libstdc++.a(string-inst.o)
 .group         0x00000000       0x10 c:/program files (x86)/gnu tools arm embedded/4.8 2013q4/bin/../lib/gcc/arm-none-eabi/4.8.3/../../../../arm-none-eabi/lib/armv7e-m\libstdc++.a(string-inst.o)
 .group         0x00000000       0x10 c:/program files (x86)/gnu tools arm embedded/4.8 2013q4/bin/../lib/gcc/arm-none-eabi/4.8.3/../../../../arm-none-eabi/lib/armv7e-m\libstdc++.a(string-inst.o)
 .group         0x00000000       0x10 c:/program files (x86)/gnu tools arm embedded/4.8 2013q4/bin/../lib/gcc/arm-none-eabi/4.8.3/../../../../arm-none-eabi/lib/armv7e-m\libstdc++.a(string-inst.o)
 .group         0x00000000       0x10 c:/program files (x86)/gnu tools arm embedded/4.8 2013q4/bin/../lib/gcc/arm-none-eabi/4.8.3/../../../../arm-none-eabi/lib/armv7e-m\libstdc++.a(string-inst.o)
 .group         0x00000000       0x10 c:/program files (x86)/gnu tools arm embedded/4.8 2013q4/bin/../lib/gcc/arm-none-eabi/4.8.3/../../../../arm-none-eabi/lib/armv7e-m\libstdc++.a(string-inst.o)
 .group         0x00000000       0x10 c:/program files (x86)/gnu tools arm embedded/4.8 2013q4/bin/../lib/gcc/arm-none-eabi/4.8.3/../../../../arm-none-eabi/lib/armv7e-m\libstdc++.a(string-inst.o)
 .group         0x00000000       0x10 c:/program files (x86)/gnu tools arm embedded/4.8 2013q4/bin/../lib/gcc/arm-none-eabi/4.8.3/../../../../arm-none-eabi/lib/armv7e-m\libstdc++.a(string-inst.o)
 .group         0x00000000       0x10 c:/program files (x86)/gnu tools arm embedded/4.8 2013q4/bin/../lib/gcc/arm-none-eabi/4.8.3/../../../../arm-none-eabi/lib/armv7e-m\libstdc++.a(string-inst.o)
 .group         0x00000000       0x10 c:/program files (x86)/gnu tools arm embedded/4.8 2013q4/bin/../lib/gcc/arm-none-eabi/4.8.3/../../../../arm-none-eabi/lib/armv7e-m\libstdc++.a(string-inst.o)
 .group         0x00000000       0x10 c:/program files (x86)/gnu tools arm embedded/4.8 2013q4/bin/../lib/gcc/arm-none-eabi/4.8.3/../../../../arm-none-eabi/lib/armv7e-m\libstdc++.a(string-inst.o)
 .group         0x00000000       0x10 c:/program files (x86)/gnu tools arm embedded/4.8 2013q4/bin/../lib/gcc/arm-none-eabi/4.8.3/../../../../arm-none-eabi/lib/armv7e-m\libstdc++.a(string-inst.o)
 .group         0x00000000       0x10 c:/program files (x86)/gnu tools arm embedded/4.8 2013q4/bin/../lib/gcc/arm-none-eabi/4.8.3/../../../../arm-none-eabi/lib/armv7e-m\libstdc++.a(string-inst.o)
 .group         0x00000000       0x10 c:/program files (x86)/gnu tools arm embedded/4.8 2013q4/bin/../lib/gcc/arm-none-eabi/4.8.3/../../../../arm-none-eabi/lib/armv7e-m\libstdc++.a(string-inst.o)
 .group         0x00000000       0x10 c:/program files (x86)/gnu tools arm embedded/4.8 2013q4/bin/../lib/gcc/arm-none-eabi/4.8.3/../../../../arm-none-eabi/lib/armv7e-m\libstdc++.a(string-inst.o)
 .group         0x00000000       0x10 c:/program files (x86)/gnu tools arm embedded/4.8 2013q4/bin/../lib/gcc/arm-none-eabi/4.8.3/../../../../arm-none-eabi/lib/armv7e-m\libstdc++.a(string-inst.o)
 .group         0x00000000       0x10 c:/program files (x86)/gnu tools arm embedded/4.8 2013q4/bin/../lib/gcc/arm-none-eabi/4.8.3/../../../../arm-none-eabi/lib/armv7e-m\libstdc++.a(string-inst.o)
 .group         0x00000000       0x10 c:/program files (x86)/gnu tools arm embedded/4.8 2013q4/bin/../lib/gcc/arm-none-eabi/4.8.3/../../../../arm-none-eabi/lib/armv7e-m\libstdc++.a(string-inst.o)
 .group         0x00000000       0x10 c:/program files (x86)/gnu tools arm embedded/4.8 2013q4/bin/../lib/gcc/arm-none-eabi/4.8.3/../../../../arm-none-eabi/lib/armv7e-m\libstdc++.a(string-inst.o)
 .group         0x00000000       0x10 c:/program files (x86)/gnu tools arm embedded/4.8 2013q4/bin/../lib/gcc/arm-none-eabi/4.8.3/../../../../arm-none-eabi/lib/armv7e-m\libstdc++.a(string-inst.o)
 .group         0x00000000       0x10 c:/program files (x86)/gnu tools arm embedded/4.8 2013q4/bin/../lib/gcc/arm-none-eabi/4.8.3/../../../../arm-none-eabi/lib/armv7e-m\libstdc++.a(string-inst.o)
 .group         0x00000000       0x10 c:/program files (x86)/gnu tools arm embedded/4.8 2013q4/bin/../lib/gcc/arm-none-eabi/4.8.3/../../../../arm-none-eabi/lib/armv7e-m\libstdc++.a(string-inst.o)
 .group         0x00000000       0x10 c:/program files (x86)/gnu tools arm embedded/4.8 2013q4/bin/../lib/gcc/arm-none-eabi/4.8.3/../../../../arm-none-eabi/lib/armv7e-m\libstdc++.a(string-inst.o)
 .group         0x00000000       0x10 c:/program files (x86)/gnu tools arm embedded/4.8 2013q4/bin/../lib/gcc/arm-none-eabi/4.8.3/../../../../arm-none-eabi/lib/armv7e-m\libstdc++.a(string-inst.o)
 .group         0x00000000       0x10 c:/program files (x86)/gnu tools arm embedded/4.8 2013q4/bin/../lib/gcc/arm-none-eabi/4.8.3/../../../../arm-none-eabi/lib/armv7e-m\libstdc++.a(string-inst.o)
 .group         0x00000000       0x10 c:/program files (x86)/gnu tools arm embedded/4.8 2013q4/bin/../lib/gcc/arm-none-eabi/4.8.3/../../../../arm-none-eabi/lib/armv7e-m\libstdc++.a(string-inst.o)
 .group         0x00000000       0x10 c:/program files (x86)/gnu tools arm embedded/4.8 2013q4/bin/../lib/gcc/arm-none-eabi/4.8.3/../../../../arm-none-eabi/lib/armv7e-m\libstdc++.a(string-inst.o)
 .group         0x00000000       0x10 c:/program files (x86)/gnu tools arm embedded/4.8 2013q4/bin/../lib/gcc/arm-none-eabi/4.8.3/../../../../arm-none-eabi/lib/armv7e-m\libstdc++.a(string-inst.o)
 .group         0x00000000       0x10 c:/program files (x86)/gnu tools arm embedded/4.8 2013q4/bin/../lib/gcc/arm-none-eabi/4.8.3/../../../../arm-none-eabi/lib/armv7e-m\libstdc++.a(string-inst.o)
 .group         0x00000000       0x10 c:/program files (x86)/gnu tools arm embedded/4.8 2013q4/bin/../lib/gcc/arm-none-eabi/4.8.3/../../../../arm-none-eabi/lib/armv7e-m\libstdc++.a(string-inst.o)
 .group         0x00000000       0x10 c:/program files (x86)/gnu tools arm embedded/4.8 2013q4/bin/../lib/gcc/arm-none-eabi/4.8.3/../../../../arm-none-eabi/lib/armv7e-m\libstdc++.a(string-inst.o)
 .group         0x00000000       0x10 c:/program files (x86)/gnu tools arm embedded/4.8 2013q4/bin/../lib/gcc/arm-none-eabi/4.8.3/../../../../arm-none-eabi/lib/armv7e-m\libstdc++.a(string-inst.o)
 .group         0x00000000       0x10 c:/program files (x86)/gnu tools arm embedded/4.8 2013q4/bin/../lib/gcc/arm-none-eabi/4.8.3/../../../../arm-none-eabi/lib/armv7e-m\libstdc++.a(string-inst.o)
 .group         0x00000000       0x10 c:/program files (x86)/gnu tools arm embedded/4.8 2013q4/bin/../lib/gcc/arm-none-eabi/4.8.3/../../../../arm-none-eabi/lib/armv7e-m\libstdc++.a(string-inst.o)
 .group         0x00000000       0x10 c:/program files (x86)/gnu tools arm embedded/4.8 2013q4/bin/../lib/gcc/arm-none-eabi/4.8.3/../../../../arm-none-eabi/lib/armv7e-m\libstdc++.a(string-inst.o)
 .group         0x00000000       0x10 c:/program files (x86)/gnu tools arm embedded/4.8 2013q4/bin/../lib/gcc/arm-none-eabi/4.8.3/../../../../arm-none-eabi/lib/armv7e-m\libstdc++.a(string-inst.o)
 .group         0x00000000       0x10 c:/program files (x86)/gnu tools arm embedded/4.8 2013q4/bin/../lib/gcc/arm-none-eabi/4.8.3/../../../../arm-none-eabi/lib/armv7e-m\libstdc++.a(string-inst.o)
 .group         0x00000000       0x10 c:/program files (x86)/gnu tools arm embedded/4.8 2013q4/bin/../lib/gcc/arm-none-eabi/4.8.3/../../../../arm-none-eabi/lib/armv7e-m\libstdc++.a(string-inst.o)
 .group         0x00000000       0x10 c:/program files (x86)/gnu tools arm embedded/4.8 2013q4/bin/../lib/gcc/arm-none-eabi/4.8.3/../../../../arm-none-eabi/lib/armv7e-m\libstdc++.a(string-inst.o)
 .group         0x00000000       0x10 c:/program files (x86)/gnu tools arm embedded/4.8 2013q4/bin/../lib/gcc/arm-none-eabi/4.8.3/../../../../arm-none-eabi/lib/armv7e-m\libstdc++.a(string-inst.o)
 .group         0x00000000       0x10 c:/program files (x86)/gnu tools arm embedded/4.8 2013q4/bin/../lib/gcc/arm-none-eabi/4.8.3/../../../../arm-none-eabi/lib/armv7e-m\libstdc++.a(string-inst.o)
 .group         0x00000000       0x10 c:/program files (x86)/gnu tools arm embedded/4.8 2013q4/bin/../lib/gcc/arm-none-eabi/4.8.3/../../../../arm-none-eabi/lib/armv7e-m\libstdc++.a(string-inst.o)
 .group         0x00000000       0x10 c:/program files (x86)/gnu tools arm embedded/4.8 2013q4/bin/../lib/gcc/arm-none-eabi/4.8.3/../../../../arm-none-eabi/lib/armv7e-m\libstdc++.a(string-inst.o)
 .group         0x00000000       0x10 c:/program files (x86)/gnu tools arm embedded/4.8 2013q4/bin/../lib/gcc/arm-none-eabi/4.8.3/../../../../arm-none-eabi/lib/armv7e-m\libstdc++.a(string-inst.o)
 .group         0x00000000       0x10 c:/program files (x86)/gnu tools arm embedded/4.8 2013q4/bin/../lib/gcc/arm-none-eabi/4.8.3/../../../../arm-none-eabi/lib/armv7e-m\libstdc++.a(string-inst.o)
 .group         0x00000000       0x10 c:/program files (x86)/gnu tools arm embedded/4.8 2013q4/bin/../lib/gcc/arm-none-eabi/4.8.3/../../../../arm-none-eabi/lib/armv7e-m\libstdc++.a(string-inst.o)
 .group         0x00000000       0x10 c:/program files (x86)/gnu tools arm embedded/4.8 2013q4/bin/../lib/gcc/arm-none-eabi/4.8.3/../../../../arm-none-eabi/lib/armv7e-m\libstdc++.a(string-inst.o)
 .group         0x00000000       0x10 c:/program files (x86)/gnu tools arm embedded/4.8 2013q4/bin/../lib/gcc/arm-none-eabi/4.8.3/../../../../arm-none-eabi/lib/armv7e-m\libstdc++.a(string-inst.o)
 .group         0x00000000       0x10 c:/program files (x86)/gnu tools arm embedded/4.8 2013q4/bin/../lib/gcc/arm-none-eabi/4.8.3/../../../../arm-none-eabi/lib/armv7e-m\libstdc++.a(string-inst.o)
 .group         0x00000000       0x10 c:/program files (x86)/gnu tools arm embedded/4.8 2013q4/bin/../lib/gcc/arm-none-eabi/4.8.3/../../../../arm-none-eabi/lib/armv7e-m\libstdc++.a(string-inst.o)
 .group         0x00000000       0x10 c:/program files (x86)/gnu tools arm embedded/4.8 2013q4/bin/../lib/gcc/arm-none-eabi/4.8.3/../../../../arm-none-eabi/lib/armv7e-m\libstdc++.a(string-inst.o)
 .group         0x00000000       0x10 c:/program files (x86)/gnu tools arm embedded/4.8 2013q4/bin/../lib/gcc/arm-none-eabi/4.8.3/../../../../arm-none-eabi/lib/armv7e-m\libstdc++.a(string-inst.o)
 .group         0x00000000       0x10 c:/program files (x86)/gnu tools arm embedded/4.8 2013q4/bin/../lib/gcc/arm-none-eabi/4.8.3/../../../../arm-none-eabi/lib/armv7e-m\libstdc++.a(string-inst.o)
 .group         0x00000000       0x10 c:/program files (x86)/gnu tools arm embedded/4.8 2013q4/bin/../lib/gcc/arm-none-eabi/4.8.3/../../../../arm-none-eabi/lib/armv7e-m\libstdc++.a(string-inst.o)
 .group         0x00000000       0x10 c:/program files (x86)/gnu tools arm embedded/4.8 2013q4/bin/../lib/gcc/arm-none-eabi/4.8.3/../../../../arm-none-eabi/lib/armv7e-m\libstdc++.a(string-inst.o)
 .group         0x00000000       0x10 c:/program files (x86)/gnu tools arm embedded/4.8 2013q4/bin/../lib/gcc/arm-none-eabi/4.8.3/../../../../arm-none-eabi/lib/armv7e-m\libstdc++.a(string-inst.o)
 .group         0x00000000       0x10 c:/program files (x86)/gnu tools arm embedded/4.8 2013q4/bin/../lib/gcc/arm-none-eabi/4.8.3/../../../../arm-none-eabi/lib/armv7e-m\libstdc++.a(string-inst.o)
 .group         0x00000000       0x10 c:/program files (x86)/gnu tools arm embedded/4.8 2013q4/bin/../lib/gcc/arm-none-eabi/4.8.3/../../../../arm-none-eabi/lib/armv7e-m\libstdc++.a(string-inst.o)
 .group         0x00000000       0x10 c:/program files (x86)/gnu tools arm embedded/4.8 2013q4/bin/../lib/gcc/arm-none-eabi/4.8.3/../../../../arm-none-eabi/lib/armv7e-m\libstdc++.a(string-inst.o)
 .group         0x00000000       0x10 c:/program files (x86)/gnu tools arm embedded/4.8 2013q4/bin/../lib/gcc/arm-none-eabi/4.8.3/../../../../arm-none-eabi/lib/armv7e-m\libstdc++.a(string-inst.o)
 .group         0x00000000       0x10 c:/program files (x86)/gnu tools arm embedded/4.8 2013q4/bin/../lib/gcc/arm-none-eabi/4.8.3/../../../../arm-none-eabi/lib/armv7e-m\libstdc++.a(string-inst.o)
 .group         0x00000000       0x10 c:/program files (x86)/gnu tools arm embedded/4.8 2013q4/bin/../lib/gcc/arm-none-eabi/4.8.3/../../../../arm-none-eabi/lib/armv7e-m\libstdc++.a(string-inst.o)
 .group         0x00000000       0x10 c:/program files (x86)/gnu tools arm embedded/4.8 2013q4/bin/../lib/gcc/arm-none-eabi/4.8.3/../../../../arm-none-eabi/lib/armv7e-m\libstdc++.a(string-inst.o)
 .group         0x00000000       0x10 c:/program files (x86)/gnu tools arm embedded/4.8 2013q4/bin/../lib/gcc/arm-none-eabi/4.8.3/../../../../arm-none-eabi/lib/armv7e-m\libstdc++.a(string-inst.o)
 .group         0x00000000       0x10 c:/program files (x86)/gnu tools arm embedded/4.8 2013q4/bin/../lib/gcc/arm-none-eabi/4.8.3/../../../../arm-none-eabi/lib/armv7e-m\libstdc++.a(string-inst.o)
 .group         0x00000000       0x10 c:/program files (x86)/gnu tools arm embedded/4.8 2013q4/bin/../lib/gcc/arm-none-eabi/4.8.3/../../../../arm-none-eabi/lib/armv7e-m\libstdc++.a(string-inst.o)
 .group         0x00000000       0x10 c:/program files (x86)/gnu tools arm embedded/4.8 2013q4/bin/../lib/gcc/arm-none-eabi/4.8.3/../../../../arm-none-eabi/lib/armv7e-m\libstdc++.a(string-inst.o)
 .group         0x00000000       0x10 c:/program files (x86)/gnu tools arm embedded/4.8 2013q4/bin/../lib/gcc/arm-none-eabi/4.8.3/../../../../arm-none-eabi/lib/armv7e-m\libstdc++.a(string-inst.o)
 .group         0x00000000       0x10 c:/program files (x86)/gnu tools arm embedded/4.8 2013q4/bin/../lib/gcc/arm-none-eabi/4.8.3/../../../../arm-none-eabi/lib/armv7e-m\libstdc++.a(string-inst.o)
 .group         0x00000000       0x10 c:/program files (x86)/gnu tools arm embedded/4.8 2013q4/bin/../lib/gcc/arm-none-eabi/4.8.3/../../../../arm-none-eabi/lib/armv7e-m\libstdc++.a(string-inst.o)
 .group         0x00000000       0x10 c:/program files (x86)/gnu tools arm embedded/4.8 2013q4/bin/../lib/gcc/arm-none-eabi/4.8.3/../../../../arm-none-eabi/lib/armv7e-m\libstdc++.a(string-inst.o)
 .group         0x00000000       0x10 c:/program files (x86)/gnu tools arm embedded/4.8 2013q4/bin/../lib/gcc/arm-none-eabi/4.8.3/../../../../arm-none-eabi/lib/armv7e-m\libstdc++.a(string-inst.o)
 .group         0x00000000       0x10 c:/program files (x86)/gnu tools arm embedded/4.8 2013q4/bin/../lib/gcc/arm-none-eabi/4.8.3/../../../../arm-none-eabi/lib/armv7e-m\libstdc++.a(string-inst.o)
 .group         0x00000000       0x10 c:/program files (x86)/gnu tools arm embedded/4.8 2013q4/bin/../lib/gcc/arm-none-eabi/4.8.3/../../../../arm-none-eabi/lib/armv7e-m\libstdc++.a(string-inst.o)
 .group         0x00000000       0x10 c:/program files (x86)/gnu tools arm embedded/4.8 2013q4/bin/../lib/gcc/arm-none-eabi/4.8.3/../../../../arm-none-eabi/lib/armv7e-m\libstdc++.a(string-inst.o)
 .group         0x00000000       0x10 c:/program files (x86)/gnu tools arm embedded/4.8 2013q4/bin/../lib/gcc/arm-none-eabi/4.8.3/../../../../arm-none-eabi/lib/armv7e-m\libstdc++.a(string-inst.o)
 .group         0x00000000       0x10 c:/program files (x86)/gnu tools arm embedded/4.8 2013q4/bin/../lib/gcc/arm-none-eabi/4.8.3/../../../../arm-none-eabi/lib/armv7e-m\libstdc++.a(string-inst.o)
 .group         0x00000000       0x10 c:/program files (x86)/gnu tools arm embedded/4.8 2013q4/bin/../lib/gcc/arm-none-eabi/4.8.3/../../../../arm-none-eabi/lib/armv7e-m\libstdc++.a(string-inst.o)
 .group         0x00000000       0x10 c:/program files (x86)/gnu tools arm embedded/4.8 2013q4/bin/../lib/gcc/arm-none-eabi/4.8.3/../../../../arm-none-eabi/lib/armv7e-m\libstdc++.a(string-inst.o)
 .group         0x00000000       0x10 c:/program files (x86)/gnu tools arm embedded/4.8 2013q4/bin/../lib/gcc/arm-none-eabi/4.8.3/../../../../arm-none-eabi/lib/armv7e-m\libstdc++.a(string-inst.o)
 .group         0x00000000       0x10 c:/program files (x86)/gnu tools arm embedded/4.8 2013q4/bin/../lib/gcc/arm-none-eabi/4.8.3/../../../../arm-none-eabi/lib/armv7e-m\libstdc++.a(string-inst.o)
 .group         0x00000000       0x10 c:/program files (x86)/gnu tools arm embedded/4.8 2013q4/bin/../lib/gcc/arm-none-eabi/4.8.3/../../../../arm-none-eabi/lib/armv7e-m\libstdc++.a(string-inst.o)
 .group         0x00000000       0x10 c:/program files (x86)/gnu tools arm embedded/4.8 2013q4/bin/../lib/gcc/arm-none-eabi/4.8.3/../../../../arm-none-eabi/lib/armv7e-m\libstdc++.a(string-inst.o)
 .group         0x00000000       0x10 c:/program files (x86)/gnu tools arm embedded/4.8 2013q4/bin/../lib/gcc/arm-none-eabi/4.8.3/../../../../arm-none-eabi/lib/armv7e-m\libstdc++.a(string-inst.o)
 .group         0x00000000       0x10 c:/program files (x86)/gnu tools arm embedded/4.8 2013q4/bin/../lib/gcc/arm-none-eabi/4.8.3/../../../../arm-none-eabi/lib/armv7e-m\libstdc++.a(string-inst.o)
 .group         0x00000000       0x10 c:/program files (x86)/gnu tools arm embedded/4.8 2013q4/bin/../lib/gcc/arm-none-eabi/4.8.3/../../../../arm-none-eabi/lib/armv7e-m\libstdc++.a(string-inst.o)
 .group         0x00000000       0x10 c:/program files (x86)/gnu tools arm embedded/4.8 2013q4/bin/../lib/gcc/arm-none-eabi/4.8.3/../../../../arm-none-eabi/lib/armv7e-m\libstdc++.a(string-inst.o)
 .group         0x00000000       0x10 c:/program files (x86)/gnu tools arm embedded/4.8 2013q4/bin/../lib/gcc/arm-none-eabi/4.8.3/../../../../arm-none-eabi/lib/armv7e-m\libstdc++.a(string-inst.o)
 .group         0x00000000       0x10 c:/program files (x86)/gnu tools arm embedded/4.8 2013q4/bin/../lib/gcc/arm-none-eabi/4.8.3/../../../../arm-none-eabi/lib/armv7e-m\libstdc++.a(string-inst.o)
 .group         0x00000000       0x10 c:/program files (x86)/gnu tools arm embedded/4.8 2013q4/bin/../lib/gcc/arm-none-eabi/4.8.3/../../../../arm-none-eabi/lib/armv7e-m\libstdc++.a(string-inst.o)
 .group         0x00000000       0x10 c:/program files (x86)/gnu tools arm embedded/4.8 2013q4/bin/../lib/gcc/arm-none-eabi/4.8.3/../../../../arm-none-eabi/lib/armv7e-m\libstdc++.a(string-inst.o)
 .group         0x00000000       0x10 c:/program files (x86)/gnu tools arm embedded/4.8 2013q4/bin/../lib/gcc/arm-none-eabi/4.8.3/../../../../arm-none-eabi/lib/armv7e-m\libstdc++.a(string-inst.o)
 .group         0x00000000       0x10 c:/program files (x86)/gnu tools arm embedded/4.8 2013q4/bin/../lib/gcc/arm-none-eabi/4.8.3/../../../../arm-none-eabi/lib/armv7e-m\libstdc++.a(string-inst.o)
 .group         0x00000000       0x10 c:/program files (x86)/gnu tools arm embedded/4.8 2013q4/bin/../lib/gcc/arm-none-eabi/4.8.3/../../../../arm-none-eabi/lib/armv7e-m\libstdc++.a(string-inst.o)
 .group         0x00000000       0x10 c:/program files (x86)/gnu tools arm embedded/4.8 2013q4/bin/../lib/gcc/arm-none-eabi/4.8.3/../../../../arm-none-eabi/lib/armv7e-m\libstdc++.a(string-inst.o)
 .group         0x00000000       0x10 c:/program files (x86)/gnu tools arm embedded/4.8 2013q4/bin/../lib/gcc/arm-none-eabi/4.8.3/../../../../arm-none-eabi/lib/armv7e-m\libstdc++.a(string-inst.o)
 .group         0x00000000       0x10 c:/program files (x86)/gnu tools arm embedded/4.8 2013q4/bin/../lib/gcc/arm-none-eabi/4.8.3/../../../../arm-none-eabi/lib/armv7e-m\libstdc++.a(string-inst.o)
 .group         0x00000000       0x10 c:/program files (x86)/gnu tools arm embedded/4.8 2013q4/bin/../lib/gcc/arm-none-eabi/4.8.3/../../../../arm-none-eabi/lib/armv7e-m\libstdc++.a(string-inst.o)
 .group         0x00000000       0x10 c:/program files (x86)/gnu tools arm embedded/4.8 2013q4/bin/../lib/gcc/arm-none-eabi/4.8.3/../../../../arm-none-eabi/lib/armv7e-m\libstdc++.a(string-inst.o)
 .group         0x00000000       0x10 c:/program files (x86)/gnu tools arm embedded/4.8 2013q4/bin/../lib/gcc/arm-none-eabi/4.8.3/../../../../arm-none-eabi/lib/armv7e-m\libstdc++.a(string-inst.o)
 .group         0x00000000       0x10 c:/program files (x86)/gnu tools arm embedded/4.8 2013q4/bin/../lib/gcc/arm-none-eabi/4.8.3/../../../../arm-none-eabi/lib/armv7e-m\libstdc++.a(string-inst.o)
 .group         0x00000000       0x10 c:/program files (x86)/gnu tools arm embedded/4.8 2013q4/bin/../lib/gcc/arm-none-eabi/4.8.3/../../../../arm-none-eabi/lib/armv7e-m\libstdc++.a(string-inst.o)
 .group         0x00000000       0x10 c:/program files (x86)/gnu tools arm embedded/4.8 2013q4/bin/../lib/gcc/arm-none-eabi/4.8.3/../../../../arm-none-eabi/lib/armv7e-m\libstdc++.a(string-inst.o)
 .group         0x00000000       0x10 c:/program files (x86)/gnu tools arm embedded/4.8 2013q4/bin/../lib/gcc/arm-none-eabi/4.8.3/../../../../arm-none-eabi/lib/armv7e-m\libstdc++.a(string-inst.o)
 .group         0x00000000       0x10 c:/program files (x86)/gnu tools arm embedded/4.8 2013q4/bin/../lib/gcc/arm-none-eabi/4.8.3/../../../../arm-none-eabi/lib/armv7e-m\libstdc++.a(string-inst.o)
 .group         0x00000000       0x10 c:/program files (x86)/gnu tools arm embedded/4.8 2013q4/bin/../lib/gcc/arm-none-eabi/4.8.3/../../../../arm-none-eabi/lib/armv7e-m\libstdc++.a(string-inst.o)
 .group         0x00000000       0x10 c:/program files (x86)/gnu tools arm embedded/4.8 2013q4/bin/../lib/gcc/arm-none-eabi/4.8.3/../../../../arm-none-eabi/lib/armv7e-m\libstdc++.a(string-inst.o)
 .group         0x00000000       0x10 c:/program files (x86)/gnu tools arm embedded/4.8 2013q4/bin/../lib/gcc/arm-none-eabi/4.8.3/../../../../arm-none-eabi/lib/armv7e-m\libstdc++.a(string-inst.o)
 .group         0x00000000       0x10 c:/program files (x86)/gnu tools arm embedded/4.8 2013q4/bin/../lib/gcc/arm-none-eabi/4.8.3/../../../../arm-none-eabi/lib/armv7e-m\libstdc++.a(string-inst.o)
 .group         0x00000000       0x10 c:/program files (x86)/gnu tools arm embedded/4.8 2013q4/bin/../lib/gcc/arm-none-eabi/4.8.3/../../../../arm-none-eabi/lib/armv7e-m\libstdc++.a(string-inst.o)
 .group         0x00000000       0x10 c:/program files (x86)/gnu tools arm embedded/4.8 2013q4/bin/../lib/gcc/arm-none-eabi/4.8.3/../../../../arm-none-eabi/lib/armv7e-m\libstdc++.a(string-inst.o)
 .group         0x00000000       0x10 c:/program files (x86)/gnu tools arm embedded/4.8 2013q4/bin/../lib/gcc/arm-none-eabi/4.8.3/../../../../arm-none-eabi/lib/armv7e-m\libstdc++.a(string-inst.o)
 .group         0x00000000       0x10 c:/program files (x86)/gnu tools arm embedded/4.8 2013q4/bin/../lib/gcc/arm-none-eabi/4.8.3/../../../../arm-none-eabi/lib/armv7e-m\libstdc++.a(string-inst.o)
 .group         0x00000000       0x10 c:/program files (x86)/gnu tools arm embedded/4.8 2013q4/bin/../lib/gcc/arm-none-eabi/4.8.3/../../../../arm-none-eabi/lib/armv7e-m\libstdc++.a(string-inst.o)
 .group         0x00000000       0x10 c:/program files (x86)/gnu tools arm embedded/4.8 2013q4/bin/../lib/gcc/arm-none-eabi/4.8.3/../../../../arm-none-eabi/lib/armv7e-m\libstdc++.a(string-inst.o)
 .group         0x00000000       0x10 c:/program files (x86)/gnu tools arm embedded/4.8 2013q4/bin/../lib/gcc/arm-none-eabi/4.8.3/../../../../arm-none-eabi/lib/armv7e-m\libstdc++.a(string-inst.o)
 .group         0x00000000       0x10 c:/program files (x86)/gnu tools arm embedded/4.8 2013q4/bin/../lib/gcc/arm-none-eabi/4.8.3/../../../../arm-none-eabi/lib/armv7e-m\libstdc++.a(string-inst.o)
 .group         0x00000000       0x10 c:/program files (x86)/gnu tools arm embedded/4.8 2013q4/bin/../lib/gcc/arm-none-eabi/4.8.3/../../../../arm-none-eabi/lib/armv7e-m\libstdc++.a(string-inst.o)
 .group         0x00000000       0x10 c:/program files (x86)/gnu tools arm embedded/4.8 2013q4/bin/../lib/gcc/arm-none-eabi/4.8.3/../../../../arm-none-eabi/lib/armv7e-m\libstdc++.a(string-inst.o)
 .group         0x00000000       0x10 c:/program files (x86)/gnu tools arm embedded/4.8 2013q4/bin/../lib/gcc/arm-none-eabi/4.8.3/../../../../arm-none-eabi/lib/armv7e-m\libstdc++.a(string-inst.o)
 .group         0x00000000       0x10 c:/program files (x86)/gnu tools arm embedded/4.8 2013q4/bin/../lib/gcc/arm-none-eabi/4.8.3/../../../../arm-none-eabi/lib/armv7e-m\libstdc++.a(string-inst.o)
 .group         0x00000000       0x10 c:/program files (x86)/gnu tools arm embedded/4.8 2013q4/bin/../lib/gcc/arm-none-eabi/4.8.3/../../../../arm-none-eabi/lib/armv7e-m\libstdc++.a(string-inst.o)
 .group         0x00000000       0x10 c:/program files (x86)/gnu tools arm embedded/4.8 2013q4/bin/../lib/gcc/arm-none-eabi/4.8.3/../../../../arm-none-eabi/lib/armv7e-m\libstdc++.a(string-inst.o)
 .group         0x00000000       0x10 c:/program files (x86)/gnu tools arm embedded/4.8 2013q4/bin/../lib/gcc/arm-none-eabi/4.8.3/../../../../arm-none-eabi/lib/armv7e-m\libstdc++.a(string-inst.o)
 .group         0x00000000       0x10 c:/program files (x86)/gnu tools arm embedded/4.8 2013q4/bin/../lib/gcc/arm-none-eabi/4.8.3/../../../../arm-none-eabi/lib/armv7e-m\libstdc++.a(string-inst.o)
 .group         0x00000000        0x8 c:/program files (x86)/gnu tools arm embedded/4.8 2013q4/bin/../lib/gcc/arm-none-eabi/4.8.3/../../../../arm-none-eabi/lib/armv7e-m\libstdc++.a(string-inst.o)
 .group         0x00000000        0x8 c:/program files (x86)/gnu tools arm embedded/4.8 2013q4/bin/../lib/gcc/arm-none-eabi/4.8.3/../../../../arm-none-eabi/lib/armv7e-m\libstdc++.a(string-inst.o)
 .group         0x00000000        0x8 c:/program files (x86)/gnu tools arm embedded/4.8 2013q4/bin/../lib/gcc/arm-none-eabi/4.8.3/../../../../arm-none-eabi/lib/armv7e-m\libstdc++.a(string-inst.o)
 .group         0x00000000        0x8 c:/program files (x86)/gnu tools arm embedded/4.8 2013q4/bin/../lib/gcc/arm-none-eabi/4.8.3/../../../../arm-none-eabi/lib/armv7e-m\libstdc++.a(string-inst.o)
 .ARM.attributes
                0x00000000       0x2e c:/program files (x86)/gnu tools arm embedded/4.8 2013q4/bin/../lib/gcc/arm-none-eabi/4.8.3/../../../../arm-none-eabi/lib/armv7e-m\libm.a(lib_a-s_ceil.o)
 .debug_frame   0x00000000       0x38 c:/program files (x86)/gnu tools arm embedded/4.8 2013q4/bin/../lib/gcc/arm-none-eabi/4.8.3/../../../../arm-none-eabi/lib/armv7e-m\libm.a(lib_a-s_ceil.o)
 .ARM.attributes
                0x00000000       0x2e c:/program files (x86)/gnu tools arm embedded/4.8 2013q4/bin/../lib/gcc/arm-none-eabi/4.8.3/../../../../arm-none-eabi/lib/armv7e-m\libm.a(lib_a-s_floor.o)
 .debug_frame   0x00000000       0x38 c:/program files (x86)/gnu tools arm embedded/4.8 2013q4/bin/../lib/gcc/arm-none-eabi/4.8.3/../../../../arm-none-eabi/lib/armv7e-m\libm.a(lib_a-s_floor.o)

Memory Configuration

Name             Origin             Length             Attributes
FLASH            0x08000000         0x00100000         xr
RAM              0x20000000         0x00020000         xrw
CCMRAM           0x10000000         0x00010000         rw
*default*        0x00000000         0xffffffff

Linker script and memory map

LOAD c:/program files (x86)/gnu tools arm embedded/4.8 2013q4/bin/../lib/gcc/arm-none-eabi/4.8.3/armv7e-m/crti.o
LOAD c:/program files (x86)/gnu tools arm embedded/4.8 2013q4/bin/../lib/gcc/arm-none-eabi/4.8.3/armv7e-m/crtbegin.o
LOAD c:/program files (x86)/gnu tools arm embedded/4.8 2013q4/bin/../lib/gcc/arm-none-eabi/4.8.3/../../../../arm-none-eabi/lib/armv7e-m/crt0.o
LOAD ../build/obj/system_stm32f4xx.o
LOAD ../build/obj/bget.o
LOAD ../build/obj/api_lib.o
LOAD ../build/obj/api_msg.o
LOAD ../build/obj/err.o
LOAD ../build/obj/netbuf.o
LOAD ../build/obj/netdb.o
LOAD ../build/obj/netifapi.o
LOAD ../build/obj/sockets.o
LOAD ../build/obj/tcpip.o
LOAD ../build/obj/def.o
LOAD ../build/obj/dhcp.o
LOAD ../build/obj/dns.o
LOAD ../build/obj/init.o
LOAD ../build/obj/mem.o
LOAD ../build/obj/memp.o
LOAD ../build/obj/netif.o
LOAD ../build/obj/pbuf.o
LOAD ../build/obj/raw.o
LOAD ../build/obj/stats.o
LOAD ../build/obj/sys.o
LOAD ../build/obj/tcp.o
LOAD ../build/obj/tcp_in.o
LOAD ../build/obj/tcp_out.o
LOAD ../build/obj/timers.o
LOAD ../build/obj/udp.o
LOAD ../build/obj/autoip.o
LOAD ../build/obj/icmp.o
LOAD ../build/obj/igmp.o
LOAD ../build/obj/inet.o
LOAD ../build/obj/inet_chksum.o
LOAD ../build/obj/ip.o
LOAD ../build/obj/ip_addr.o
LOAD ../build/obj/ip_frag.o
LOAD ../build/obj/etharp.o
LOAD ../build/obj/slipif.o
LOAD ../build/obj/ethernetif.o
LOAD ../build/obj/stm32f4x7_eth_bsp.o
LOAD ../build/obj/stm32f4x7_eth.o
LOAD ../build/obj/misc.o
LOAD ../build/obj/stm32f4xx_dma.o
LOAD ../build/obj/stm32f4xx_exti.o
LOAD ../build/obj/stm32f4xx_gpio.o
LOAD ../build/obj/stm32f4xx_rcc.o
LOAD ../build/obj/stm32f4xx_syscfg.o
LOAD ../build/obj/stm32f4xx_tim.o
LOAD ../build/obj/netconf.o
LOAD ../build/obj/startup_stm32f4xx.o
LOAD ../build/obj/oscreceivedelements.o
LOAD ../build/obj/osctypes.o
LOAD ../build/obj/buffs_iram1.o
LOAD ../build/obj/buffs_iram2.o
LOAD ../build/obj/sys_conf.o
LOAD ../build/obj/stm32f4xx_it.o
LOAD ../build/obj/grizzlysys.o
LOAD ../build/obj/grizzlyapp.o
LOAD ../build/obj/udp_color_server.o
LOAD ../build/obj/main.o
LOAD c:/program files (x86)/gnu tools arm embedded/4.8 2013q4/bin/../lib/gcc/arm-none-eabi/4.8.3/../../../../arm-none-eabi/lib/armv7e-m\libm.a
LOAD c:/program files (x86)/gnu tools arm embedded/4.8 2013q4/bin/../lib/gcc/arm-none-eabi/4.8.3/../../../../arm-none-eabi/lib/armv7e-m\libstdc++.a
START GROUP
LOAD c:/program files (x86)/gnu tools arm embedded/4.8 2013q4/bin/../lib/gcc/arm-none-eabi/4.8.3/armv7e-m\libgcc.a
LOAD c:/program files (x86)/gnu tools arm embedded/4.8 2013q4/bin/../lib/gcc/arm-none-eabi/4.8.3/../../../../arm-none-eabi/lib/armv7e-m\libc.a
END GROUP
LOAD c:/program files (x86)/gnu tools arm embedded/4.8 2013q4/bin/../lib/gcc/arm-none-eabi/4.8.3/armv7e-m/crtend.o
LOAD c:/program files (x86)/gnu tools arm embedded/4.8 2013q4/bin/../lib/gcc/arm-none-eabi/4.8.3/armv7e-m/crtn.o
                0x2001ffff                _estack = 0x2001ffff
                0x00000000                _Min_Heap_Size = 0x0
                0x00000400                _Min_Stack_Size = 0x400

.isr_vector     0x08000000      0x188
                0x08000000                . = ALIGN (0x4)
 *(.isr_vector)
 .isr_vector    0x08000000      0x188 ../build/obj/startup_stm32f4xx.o
                0x08000000                g_pfnVectors
                0x08000188                . = ALIGN (0x4)

.text           0x08000188    0x227cc
                0x08000188                . = ALIGN (0x4)
 *(.text)
 .text          0x08000188        0x0 c:/program files (x86)/gnu tools arm embedded/4.8 2013q4/bin/../lib/gcc/arm-none-eabi/4.8.3/armv7e-m/crti.o
 .text          0x08000188       0x54 c:/program files (x86)/gnu tools arm embedded/4.8 2013q4/bin/../lib/gcc/arm-none-eabi/4.8.3/armv7e-m/crtbegin.o
 .text          0x080001dc       0x74 c:/program files (x86)/gnu tools arm embedded/4.8 2013q4/bin/../lib/gcc/arm-none-eabi/4.8.3/../../../../arm-none-eabi/lib/armv7e-m/crt0.o
                0x080001dc                _start
                0x080001dc                _mainCRTStartup
 .text          0x08000250      0x170 ../build/obj/system_stm32f4xx.o
                0x08000250                SystemInit
                0x08000350                SystemCoreClockUpdate
 .text          0x080003c0      0xa40 ../build/obj/bget.o
                0x080003d4                brel
                0x080005e8                bectl
                0x080005fc                bpool
                0x080006a4                bget
                0x08000814                bgetz
                0x08000854                bgetr
                0x080008a4                bstats
                0x08000934                bstatse
                0x080009d8                bufdump
                0x08000aac                bpoold
                0x08000b44                bpoolv
                0x08000bd4                rand
                0x08000c30                srand
                0x08000c3c                main_mem_test
 .text          0x08000e00        0x0 ../build/obj/api_lib.o
 .text          0x08000e00        0x0 ../build/obj/api_msg.o
 .text          0x08000e00        0x0 ../build/obj/err.o
 .text          0x08000e00        0x0 ../build/obj/netbuf.o
 .text          0x08000e00        0x0 ../build/obj/netdb.o
 .text          0x08000e00        0x0 ../build/obj/netifapi.o
 .text          0x08000e00        0x0 ../build/obj/sockets.o
 .text          0x08000e00        0x0 ../build/obj/tcpip.o
 .text          0x08000e00       0x14 ../build/obj/def.o
                0x08000e00                lwip_htons
                0x08000e06                lwip_ntohs
                0x08000e0c                lwip_htonl
                0x08000e10                lwip_ntohl
 .text          0x08000e14      0xddc ../build/obj/dhcp.o
                0x08001784                dhcp_set_struct
                0x08001798                dhcp_cleanup
                0x080017aa                dhcp_inform
                0x08001844                dhcp_network_changed
                0x08001882                dhcp_arp_reply
                0x08001904                dhcp_renew
                0x0800198c                dhcp_coarse_tmr
                0x080019e0                dhcp_release
                0x08001a88                dhcp_fine_tmr
                0x08001b24                dhcp_stop
                0x08001b52                dhcp_start
 .text          0x08001bf0        0x0 ../build/obj/dns.o
 .text          0x08001bf0       0x1a ../build/obj/init.o
                0x08001bf0                lwip_init
 *fill*         0x08001c0a        0x2 
 .text          0x08001c0c      0x2c4 ../build/obj/mem.o
                0x08001c0c                mem_init
                0x08001c48                mem_free
                0x08001cec                mem_trim
                0x08001db8                mem_malloc
                0x08001eb4                mem_calloc
 .text          0x08001ed0       0xfc ../build/obj/memp.o
                0x08001ed0                memp_init
                0x08001f40                memp_malloc
                0x08001f9c                memp_free
 .text          0x08001fcc      0x1a4 ../build/obj/netif.o
                0x08001fcc                netif_init
                0x08001fce                netif_set_addr
                0x08001fe2                netif_add
                0x08002034                netif_find
                0x08002068                netif_set_ipaddr
                0x08002070                netif_set_gw
                0x08002078                netif_set_netmask
                0x08002080                netif_set_default
                0x0800208c                netif_set_up
                0x080020ac                netif_set_down
                0x080020c6                netif_remove
                0x08002114                netif_set_link_up
                0x0800214e                netif_set_link_down
                0x08002168                netif_set_link_callback
 .text          0x08002170      0x50a ../build/obj/pbuf.o
                0x08002170                pbuf_alloced_custom
                0x080021c0                pbuf_header
                0x0800221a                pbuf_free
                0x0800226a                pbuf_alloc
                0x0800236a                pbuf_realloc
                0x080023b6                pbuf_clen
                0x080023c6                pbuf_ref
                0x080023d0                pbuf_cat
                0x080023f2                pbuf_chain
                0x08002404                pbuf_dechain
                0x0800242a                pbuf_copy
                0x080024be                pbuf_copy_partial
                0x08002520                pbuf_take
                0x08002568                pbuf_coalesce
                0x08002594                pbuf_get_at
                0x080025aa                pbuf_memcmp
                0x080025fc                pbuf_memfind
                0x0800263a                pbuf_strstr
 *fill*         0x0800267a        0x2 
 .text          0x0800267c      0x180 ../build/obj/raw.o
                0x0800267c                raw_input
                0x080026f4                raw_bind
                0x080026fe                raw_connect
                0x08002708                raw_recv
                0x0800270e                raw_sendto
                0x0800279c                raw_send
                0x080027a2                raw_remove
                0x080027d0                raw_new
 .text          0x080027fc        0x2 ../build/obj/stats.o
                0x080027fc                stats_init
 .text          0x080027fe        0x0 ../build/obj/sys.o
 .text          0x080027fe        0x0 ../build/obj/tcp.o
 .text          0x080027fe        0x0 ../build/obj/tcp_in.o
 .text          0x080027fe        0x0 ../build/obj/tcp_out.o
 .text          0x080027fe        0x2 ../build/obj/timers.o
                0x080027fe                tcp_timer_needed
 .text          0x08002800      0x3fc ../build/obj/udp.o
                0x08002800                udp_init
                0x08002802                udp_input
                0x080029a8                udp_bind
                0x08002a3c                udp_sendto_if
                0x08002b0c                udp_sendto
                0x08002b48                udp_send
                0x08002b50                udp_connect
                0x08002b9c                udp_disconnect
                0x08002bac                udp_recv
                0x08002bb2                udp_remove
                0x08002be0                udp_new
 .text          0x08002bfc        0x0 ../build/obj/autoip.o
 .text          0x08002bfc      0x234 ../build/obj/icmp.o
                0x08002c88                icmp_input
                0x08002e1c                icmp_dest_unreach
                0x08002e26                icmp_time_exceeded
 .text          0x08002e30        0x0 ../build/obj/igmp.o
 .text          0x08002e30        0x0 ../build/obj/inet.o
 .text          0x08002e30      0x1ce ../build/obj/inet_chksum.o
                0x08002e88                inet_chksum_pseudo
                0x08002f0c                inet_chksum_pseudo_partial
                0x08002fac                inet_chksum
                0x08002fb8                inet_chksum_pbuf
 *fill*         0x08002ffe        0x2 
 .text          0x08003000      0x320 ../build/obj/ip.o
                0x08003000                ip_route
                0x0800304c                ip_input
                0x0800320c                ip_output_if
                0x080032d8                ip_output
 .text          0x08003320      0x228 ../build/obj/ip_addr.o
                0x08003320                ip4_addr_isbroadcast
                0x08003354                ip4_addr_netmask_valid
                0x08003382                ipaddr_aton
                0x0800348c                ipaddr_addr
                0x080034a4                ipaddr_ntoa_r
                0x0800353c                ipaddr_ntoa
 .text          0x08003548      0x5c8 ../build/obj/ip_frag.o
                0x08003658                ip_reass_tmr
                0x08003680                ip_reass
                0x08003970                ip_frag
 .text          0x08003b10      0x6c0 ../build/obj/etharp.o
                0x08003c30                etharp_tmr
                0x08003c70                etharp_cleanup_netif
                0x08003c98                etharp_find_addr
                0x08003cd0                etharp_request
                0x08003dd0                etharp_query
                0x08003ed8                etharp_output
                0x08003fe0                ethernet_input
 .text          0x080041d0        0x0 ../build/obj/slipif.o
 .text          0x080041d0      0x224 ../build/obj/ethernetif.o
                0x08004278                ethernetif_input
                0x08004354                ethernetif_init
 .text          0x080043f4      0x3f4 ../build/obj/stm32f4x7_eth_bsp.o
                0x080043f4                Eth_Link_PHYITConfig
                0x0800442c                Eth_Link_EXTIConfig
                0x0800449c                ETH_BSP_Config
                0x080046ec                Eth_Link_ITHandler
                0x08004720                ETH_link_callback
 .text          0x080047e8     0x196c ../build/obj/stm32f4x7_eth.o
                0x080047e8                ETH_DeInit
                0x08004802                ETH_StructInit
                0x080048aa                ETH_MACTransmissionCmd
                0x080048f0                ETH_MACReceptionCmd
                0x08004934                ETH_GetFlowControlBusyStatus
                0x08004944                ETH_InitiatePauseControlFrame
                0x0800496c                ETH_BackPressureActivationCmd
                0x080049b0                ETH_GetMACFlagStatus
                0x080049ec                ETH_GetMACITStatus
                0x08004a28                ETH_MACITConfig
                0x08004a6c                ETH_MACAddressConfig
                0x08004ab4                ETH_GetMACAddress
                0x08004af4                ETH_MACAddressPerfectFilterCmd
                0x08004b54                ETH_MACAddressFilterConfig
                0x08004bb0                ETH_MACAddressMaskBytesFilterConfig
                0x08004c38                ETH_Get_Received_Frame
                0x08004c64                ETH_Get_Received_Frame_interrupt
                0x08004cf8                ETH_Prepare_Transmit_Descriptors
                0x08004dbc                ETH_DMARxDescChainInit
                0x08004e1c                ETH_CheckFrameReceived
                0x08004e98                ETH_DMATxDescChainInit
                0x08004ee4                ETH_GetDMATxDescFlagStatus
                0x08004f88                ETH_GetDMATxDescCollisionCount
                0x08004f90                ETH_SetDMATxDescOwnBit
                0x08004f9a                ETH_DMATxDescTransmitITConfig
                0x08004fc8                ETH_DMATxDescFrameSegmentConfig
                0x08004ff0                ETH_DMATxDescChecksumInsertionConfig
                0x08005014                ETH_DMATxDescCRCCmd
                0x08005040                ETH_DMATxDescSecondAddressChainedCmd
                0x0800506c                ETH_DMATxDescShortFramePaddingCmd
                0x08005098                ETH_DMATxDescBufferSizeConfig
                0x080050d0                ETH_GetDMARxDescFlagStatus
                0x0800514c                ETH_GetDMAPTPRxDescExtendedFlagStatus
                0x08005194                ETH_SetDMARxDescOwnBit
                0x0800519e                ETH_GetDMARxDescFrameLength
                0x080051a6                ETH_DMARxDescReceiveITConfig
                0x080051d4                ETH_GetDMARxDescBufferSize
                0x08005200                ETH_GetRxPktSize
                0x08005224                ETH_EnhancedDescriptorCmd
                0x08005268                ETH_SoftwareReset
                0x08005278                ETH_GetSoftwareResetStatus
                0x08005288                ETH_GetDMAFlagStatus
                0x0800530c                ETH_DMAClearFlag
                0x08005338                ETH_DMAITConfig
                0x08005388                ETH_GetDMAITStatus
                0x0800540c                ETH_DMAClearITPendingBit
                0x08005438                ETH_GetTransmitProcessState
                0x0800544c                ETH_GetReceiveProcessState
                0x08005460                ETH_FlushTransmitFIFO
                0x0800548c                ETH_Start
                0x080054bc                ETH_GetFlushTransmitFIFOStatus
                0x080054d0                ETH_DMATransmissionCmd
                0x08005508                ETH_DMAReceptionCmd
                0x08005540                ETH_Stop
                0x08005562                ETH_GetDMAOverflowStatus
                0x08005594                ETH_GetRxOverflowMissedFrameCounter
                0x080055a4                ETH_GetBufferUnavailableMissedFrameCounter
                0x080055b0                ETH_GetCurrentTxDescStartAddress
                0x080055c0                ETH_GetCurrentRxDescStartAddress
                0x080055d0                ETH_GetCurrentTxBufferAddress
                0x080055e0                ETH_GetCurrentRxBufferAddress
                0x080055f0                ETH_ResumeDMATransmission
                0x08005600                ETH_ResumeDMAReception
                0x08005610                ETH_SetReceiveWatchdogTimer
                0x08005620                ETH_ReadPHYRegister
                0x08005678                ETH_WritePHYRegister
                0x080056cc                ETH_Init
                0x08005d64                ETH_PHYLoopBackCmd
                0x08005db0                ETH_ResetWakeUpFrameFilterRegisterPointer
                0x08005dd8                ETH_SetWakeUpFrameFilterRegister
                0x08005e04                ETH_GlobalUnicastWakeUpCmd
                0x08005e48                ETH_GetPMTFlagStatus
                0x08005e74                ETH_WakeUpFrameDetectionCmd
                0x08005eb8                ETH_MagicPacketDetectionCmd
                0x08005efc                ETH_PowerDownCmd
                0x08005f40                ETH_MMCCounterFullPreset
                0x08005f54                ETH_MMCCounterHalfPreset
                0x08005f74                ETH_MMCCounterFreezeCmd
                0x08005fac                ETH_MMCResetOnReadCmd
                0x08005fe4                ETH_MMCCounterRolloverCmd
                0x0800601c                ETH_MMCCountersReset
                0x08006030                ETH_MMCITConfig
                0x080060a0                ETH_GetMMCITStatus
                0x08006104                ETH_GetMMCRegister
 .text          0x08006154      0x190 ../build/obj/misc.o
                0x08006154                NVIC_PriorityGroupConfig
                0x08006190                NVIC_Init
                0x0800622c                NVIC_SetVectorTable
                0x08006270                NVIC_SystemLPConfig
                0x080062b4                SysTick_CLKSourceConfig
 .text          0x080062e4     0x1058 ../build/obj/stm32f4xx_dma.o
                0x080062e4                DMA_DeInit
                0x08006470                DMA_Init
                0x08006640                DMA_StructInit
                0x08006662                DMA_Cmd
                0x08006700                DMA_PeriphIncOffsetSizeConfig
                0x080067a0                DMA_FlowControllerConfig
                0x0800683c                DMA_SetCurrDataCounter
                0x080068bc                DMA_GetCurrDataCounter
                0x0800693c                DMA_DoubleBufferModeConfig
                0x080069e0                DMA_DoubleBufferModeCmd
                0x08006a80                DMA_MemoryTargetConfig
                0x08006b18                DMA_GetCurrentMemoryTarget
                0x08006b98                DMA_GetCmdStatus
                0x08006c18                DMA_GetFIFOStatus
                0x08006c98                DMA_GetFlagStatus
                0x08006e7c                DMA_ClearFlag
                0x08006f44                DMA_ITConfig
                0x08007020                DMA_GetITStatus
                0x08007274                DMA_ClearITPendingBit
 .text          0x0800733c      0x298 ../build/obj/stm32f4xx_exti.o
                0x0800733c                EXTI_DeInit
                0x08007358                EXTI_Init
                0x08007418                EXTI_StructInit
                0x08007426                EXTI_GenerateSWInterrupt
                0x0800744c                EXTI_GetFlagStatus
                0x080074e8                EXTI_ClearFlag
                0x0800750c                EXTI_GetITStatus
                0x080075b0                EXTI_ClearITPendingBit
 .text          0x080075d4      0x808 ../build/obj/stm32f4xx_gpio.o
                0x080075d4                GPIO_DeInit
                0x080076a8                GPIO_Init
                0x080077c8                GPIO_StructInit
                0x080077da                GPIO_PinLockConfig
                0x08007868                GPIO_ReadInputDataBit
                0x0800792c                GPIO_ReadInputData
                0x08007990                GPIO_ReadOutputDataBit
                0x08007a54                GPIO_ReadOutputData
                0x08007ab8                GPIO_SetBits
                0x08007b28                GPIO_ResetBits
                0x08007b98                GPIO_WriteBit
                0x08007c6c                GPIO_Write
                0x08007cd0                GPIO_ToggleBits
                0x08007d38                GPIO_PinAFConfig
 .text          0x08007ddc      0xae4 ../build/obj/stm32f4xx_rcc.o
                0x08007ddc                RCC_DeInit
                0x08007e18                RCC_HSEConfig
                0x08007e40                RCC_AdjustHSICalibrationValue
                0x08007e6c                RCC_HSICmd
                0x08007e8c                RCC_LSEConfig
                0x08007ec8                RCC_LSICmd
                0x08007ee8                RCC_PLLConfig
                0x08007f74                RCC_PLLCmd
                0x08007f94                RCC_PLLI2SConfig
                0x08007fd4                RCC_PLLI2SCmd
                0x08007ff4                RCC_ClockSecuritySystemCmd
                0x08008014                RCC_MCO1Config
                0x08008064                RCC_MCO2Config
                0x080080b4                RCC_SYSCLKConfig
                0x080080dc                RCC_GetSYSCLKSource
                0x080080ec                RCC_HCLKConfig
                0x08008134                RCC_PCLK1Config
                0x08008170                RCC_PCLK2Config
                0x080081ac                RCC_GetClocksFreq
                0x08008234                RCC_RTCCLKConfig
                0x080082dc                RCC_RTCCLKCmd
                0x080082fc                RCC_BackupResetCmd
                0x0800831c                RCC_I2SCLKConfig
                0x0800833c                RCC_TIMCLKPresConfig
                0x0800835c                RCC_AHB1PeriphClockCmd
                0x080083a4                RCC_AHB2PeriphClockCmd
                0x080083e8                RCC_AHB3PeriphClockCmd
                0x0800842c                RCC_APB1PeriphClockCmd
                0x08008474                RCC_APB2PeriphClockCmd
                0x080084bc                RCC_AHB1PeriphResetCmd
                0x08008504                RCC_AHB2PeriphResetCmd
                0x08008548                RCC_AHB3PeriphResetCmd
                0x0800858c                RCC_APB1PeriphResetCmd
                0x080085d4                RCC_APB2PeriphResetCmd
                0x0800861c                RCC_AHB1PeriphClockLPModeCmd
                0x08008664                RCC_AHB2PeriphClockLPModeCmd
                0x080086a8                RCC_AHB3PeriphClockLPModeCmd
                0x080086ec                RCC_APB1PeriphClockLPModeCmd
                0x08008734                RCC_APB2PeriphClockLPModeCmd
                0x0800877c                RCC_ITConfig
                0x080087c0                RCC_GetFlagStatus
                0x0800881c                RCC_WaitForHSEStartUp
                0x0800884c                RCC_ClearFlag
                0x0800885c                RCC_GetITStatus
                0x0800889c                RCC_ClearITPendingBit
 .text          0x080088c0       0xd4 ../build/obj/stm32f4xx_syscfg.o
                0x080088c0                SYSCFG_DeInit
                0x080088da                SYSCFG_MemoryRemapConfig
                0x080088f8                SYSCFG_EXTILineConfig
                0x08008944                SYSCFG_ETH_MediaInterfaceConfig
                0x08008964                SYSCFG_CompensationCellCmd
                0x08008984                SYSCFG_GetCompensationCellStatus
 .text          0x08008994     0x31e0 ../build/obj/stm32f4xx_tim.o
                0x08008a00                TIM_DeInit
                0x08008b4c                TIM_TimeBaseInit
                0x08008c7c                TIM_TimeBaseStructInit
                0x08008c8e                TIM_PrescalerConfig
                0x08008d28                TIM_CounterModeConfig
                0x08008d98                TIM_SetCounter
                0x08008e20                TIM_SetAutoreload
                0x08008ea8                TIM_GetCounter
                0x08008f30                TIM_GetPrescaler
                0x08008fb8                TIM_UpdateDisableConfig
                0x08009068                TIM_UpdateRequestConfig
                0x08009118                TIM_ARRPreloadConfig
                0x080091c8                TIM_SelectOnePulseMode
                0x08009274                TIM_SetClockDivision
                0x08009314                TIM_Cmd
                0x080093c4                TIM_OC1Init
                0x0800953c                TIM_OC2Init
                0x080096ac                TIM_OC3Init
                0x08009808                TIM_OC4Init
                0x0800990c                TIM_OCStructInit
                0x08009920                TIM_SelectOCxM
                0x08009a00                TIM_SetCompare1
                0x08009a78                TIM_SetCompare2
                0x08009ad0                TIM_SetCompare3
                0x08009b18                TIM_SetCompare4
                0x08009b60                TIM_ForcedOC1Config
                0x08009bf8                TIM_ForcedOC2Config
                0x08009c74                TIM_ForcedOC3Config
                0x08009cdc                TIM_ForcedOC4Config
                0x08009d48                TIM_OC1PreloadConfig
                0x08009ddc                TIM_OC2PreloadConfig
                0x08009e54                TIM_OC3PreloadConfig
                0x08009eb8                TIM_OC4PreloadConfig
                0x08009f20                TIM_OC1FastConfig
                0x08009fb4                TIM_OC2FastConfig
                0x0800a02c                TIM_OC3FastConfig
                0x0800a090                TIM_OC4FastConfig
                0x0800a0f8                TIM_ClearOC1Ref
                0x0800a18c                TIM_ClearOC2Ref
                0x0800a200                TIM_ClearOC3Ref
                0x0800a264                TIM_ClearOC4Ref
                0x0800a2c8                TIM_OC1PolarityConfig
                0x0800a35c                TIM_OC1NPolarityConfig
                0x0800a3a4                TIM_OC2PolarityConfig
                0x0800a41c                TIM_OC2NPolarityConfig
                0x0800a468                TIM_OC3PolarityConfig
                0x0800a4d0                TIM_OC3NPolarityConfig
                0x0800a51c                TIM_OC4PolarityConfig
                0x0800a584                TIM_CCxCmd
                0x0800a634                TIM_CCxNCmd
                0x0800a69c                TIM_ICStructInit
                0x0800a6ac                TIM_GetCapture1
                0x0800a724                TIM_GetCapture2
                0x0800a77c                TIM_GetCapture3
                0x0800a7c4                TIM_GetCapture4
                0x0800a80c                TIM_SetIC1Prescaler
                0x0800a8a8                TIM_SetIC2Prescaler
                0x0800a928                TIM_PWMIConfig
                0x0800a9e4                TIM_SetIC3Prescaler
                0x0800aa50                TIM_SetIC4Prescaler
                0x0800aac0                TIM_ICInit
                0x0800acfc                TIM_BDTRConfig
                0x0800adbc                TIM_BDTRStructInit
                0x0800adce                TIM_CtrlPWMOutputs
                0x0800ae24                TIM_SelectCOM
                0x0800ae74                TIM_CCPreloadControl
                0x0800aec4                TIM_ITConfig
                0x0800af84                TIM_GenerateEvent
                0x0800b020                TIM_GetFlagStatus
                0x0800b0f4                TIM_ClearFlag
                0x0800b180                TIM_GetITStatus
                0x0800b244                TIM_ClearITPendingBit
                0x0800b2d0                TIM_DMAConfig
                0x0800b35c                TIM_DMACmd
                0x0800b3ec                TIM_SelectCCDMA
                0x0800b45c                TIM_InternalClockConfig
                0x0800b4bc                TIM_SelectInputTrigger
                0x0800b558                TIM_ITRxExternalClockConfig
                0x0800b5d0                TIM_TIxExternalClockConfig
                0x0800b698                TIM_SelectOutputTrigger
                0x0800b718                TIM_SelectSlaveMode
                0x0800b794                TIM_SelectMasterSlaveMode
                0x0800b810                TIM_ETRConfig
                0x0800b898                TIM_ETRClockMode1Config
                0x0800b92c                TIM_ETRClockMode2Config
                0x0800b9bc                TIM_EncoderInterfaceConfig
                0x0800ba94                TIM_SelectHallSensor
                0x0800bb14                TIM_RemapConfig
 .text          0x0800bb74       0xb8 ../build/obj/netconf.o
                0x0800bb74                LwIP_Init
                0x0800bbf8                LwIP_Pkt_Handle
                0x0800bc04                LwIP_Periodic_Handle
 .text          0x0800bc2c       0x14 ../build/obj/startup_stm32f4xx.o
 .text          0x0800bc40      0xb44 ../build/obj/oscreceivedelements.o
                0x0800bc88                osc::ReceivedPacket::IsBundle() const
                0x0800bca0                osc::ReceivedBundleElement::Size() const
                0x0800bcbe                osc::ReceivedBundleElement::IsBundle() const
                0x0800bcdc                osc::ReceivedMessageArgument::AsBool() const
                0x0800bd40                osc::ReceivedMessageArgument::AsBoolUnchecked() const
                0x0800bd78                osc::ReceivedMessageArgument::AsInt32Unchecked() const
                0x0800bd96                osc::ReceivedMessageArgument::AsInt32() const
                0x0800bdf4                osc::ReceivedMessageArgument::AsFloatUnchecked() const
                0x0800be12                osc::ReceivedMessageArgument::AsFloat() const
                0x0800be70                osc::ReceivedMessageArgument::AsCharUnchecked() const
                0x0800be76                osc::ReceivedMessageArgument::AsChar() const
                0x0800bed4                osc::ReceivedMessageArgument::AsRgbaColorUnchecked() const
                0x0800beda                osc::ReceivedMessageArgument::AsRgbaColor() const
                0x0800bf38                osc::ReceivedMessageArgument::AsMidiMessageUnchecked() const
                0x0800bf3e                osc::ReceivedMessageArgument::AsMidiMessage() const
                0x0800bf9c                osc::ReceivedMessageArgument::AsInt64Unchecked() const
                0x0800bfd4                osc::ReceivedMessageArgument::AsInt64() const
                0x0800c034                osc::ReceivedMessageArgument::AsTimeTagUnchecked() const
                0x0800c06c                osc::ReceivedMessageArgument::AsTimeTag() const
                0x0800c0cc                osc::ReceivedMessageArgument::AsDoubleUnchecked() const
                0x0800c104                osc::ReceivedMessageArgument::AsDouble() const
                0x0800c164                osc::ReceivedMessageArgument::AsString() const
                0x0800c1c0                osc::ReceivedMessageArgument::AsSymbol() const
                0x0800c21c                osc::ReceivedMessageArgument::AsBlobUnchecked(void const*&, long&) const
                0x0800c264                osc::ReceivedMessageArgument::AsBlob(void const*&, long&) const
                0x0800c2c4                osc::ReceivedMessageArgument::ComputeArrayItemCount() const
                0x0800c31c                osc::ReceivedMessageArgumentIterator::Advance()
                0x0800c3be                osc::ReceivedMessage::AddressPatternIsUInt32() const
                0x0800c3cc                osc::ReceivedMessage::AddressPatternAsUInt32() const
                0x0800c3d2                osc::ReceivedMessage::Init(char const*, long)
                0x0800c5d4                osc::ReceivedMessage::ReceivedMessage(osc::ReceivedPacket const&)
                0x0800c5d4                osc::ReceivedMessage::ReceivedMessage(osc::ReceivedPacket const&)
                0x0800c5e8                osc::ReceivedMessage::ReceivedMessage(osc::ReceivedBundleElement const&)
                0x0800c5e8                osc::ReceivedMessage::ReceivedMessage(osc::ReceivedBundleElement const&)
                0x0800c606                osc::ReceivedBundle::Init(char const*, long)
                0x0800c718                osc::ReceivedBundle::ReceivedBundle(osc::ReceivedPacket const&)
                0x0800c718                osc::ReceivedBundle::ReceivedBundle(osc::ReceivedPacket const&)
                0x0800c72a                osc::ReceivedBundle::ReceivedBundle(osc::ReceivedBundleElement const&)
                0x0800c72a                osc::ReceivedBundle::ReceivedBundle(osc::ReceivedBundleElement const&)
                0x0800c74a                osc::ReceivedBundle::TimeTag() const
 .text          0x0800c784        0x0 ../build/obj/osctypes.o
 .text          0x0800c784        0x0 ../build/obj/buffs_iram1.o
 .text          0x0800c784        0x0 ../build/obj/buffs_iram2.o
 .text          0x0800c784      0x118 ../build/obj/sys_conf.o
                0x0800c784                Delay
                0x0800c7a0                Time_Update
                0x0800c7b0                assert_failed
                0x0800c7b2                malloc
                0x0800c7b6                free
                0x0800c7ba                initialise_monitor_handles
                0x0800c7bc                _getpid
                0x0800c7c0                _kill
                0x0800c7d0                _exit
                0x0800c7dc                _write
                0x0800c7e0                _sbrk
                0x0800c814                _close
                0x0800c81a                _fstat
                0x0800c824                _isatty
                0x0800c828                _lseek
                0x0800c82c                _read
                0x0800c830                _open
                0x0800c83a                _wait
                0x0800c84c                _unlink
                0x0800c85c                _times
                0x0800c862                _stat
                0x0800c86c                _link
                0x0800c87c                _fork
                0x0800c88c                _execve
 .text          0x0800c89c       0xdc ../build/obj/stm32f4xx_it.o
                0x0800c89c                NMI_Handler
                0x0800c89e                HardFault_Handler
                0x0800c8a0                MemManage_Handler
                0x0800c8a2                BusFault_Handler
                0x0800c8a4                UsageFault_Handler
                0x0800c8a6                DebugMon_Handler
                0x0800c8a8                SysTick_Handler
                0x0800c8ac                EXTI15_10_IRQHandler
                0x0800c8cc                TIM2_IRQHandler
                0x0800c8ea                DMA2_Stream0_IRQHandler
                0x0800c90c                DMA2_Stream5_IRQHandler
 .text          0x0800c978      0x5f0 ../build/obj/grizzlysys.o
                0x0800c978                GrizzlyApp::sysConfigRCC()
                0x0800c9f8                GrizzlyApp::sysConfigSysTick()
                0x0800ca5c                GrizzlyApp::sysConfigDebug(unsigned char)
                0x0800ca74                GrizzlyApp::sysDisablePHY()
                0x0800ca84                GrizzlyApp::sysEnablePHY()
                0x0800ca94                GrizzlyApp::gpioConfigEthernet()
                0x0800cba8                GrizzlyApp::gpioConfigLEDOutput()
                0x0800cc90                GrizzlyApp::dmaInitializeRGBData()
                0x0800cd48                GrizzlyApp::dmaInitializeClockRising()
                0x0800cde8                GrizzlyApp::dmaInitializeClockFalling()
                0x0800ce88                GrizzlyApp::dmaSendRGBFrame()
                0x0800ceec                GrizzlyApp::dmaInitLEDFrameTimer()
                0x0800cf40                GrizzlyApp::dmaStartLEDFrameTimer()
                0x0800cf54                GrizzlyApp::dmaStopLEDFrameTimer()
 .text          0x0800cf68       0x34 ../build/obj/grizzlyapp.o
                0x0800cf68                GrizzlyApp::pushNextWorker()
                0x0800cf6a                GrizzlyApp::runWorker()
                0x0800cf6c                GrizzlyApp::processDMA()
                0x0800cf6e                GrizzlyApp::initialize()
                0x0800cf70                GrizzlyApp::initReceivers()
                0x0800cf72                GrizzlyApp::runReceivers()
 .text          0x0800cf9c      0x328 ../build/obj/udp_color_server.o
                0x0800cf9c                GrizzlyLib::ElementBuffer<GrizzlyLib::ARGBFormat>::bufferType()
                0x0800cfa4                GrizzlyLib::ElementBuffer<GrizzlyLib::RGBFormat>::bufferType()
                0x0800cfac                GrizzlyLib::ElementBuffer<GrizzlyLib::XYZFormat>::bufferType()
                0x0800cfb4                GrizzlyLib::ElementBuffer<GrizzlyLib::SlowXYZFormat>::bufferType()
                0x0800cfbc                GrizzlyLib::ElementBuffer<GrizzlyLib::DMAFormat>::bufferType()
                0x0800cfc4                GrizzlyLib::ElementBuffer<GrizzlyLib::SlowDMAFormat>::bufferType()
                0x0800cfcc                udp_colorserver_init(GrizzlyApp*)
                0x0800d018                udp_colorserver_receive_callback
 .text          0x0800d2c4        0x0 ../build/obj/main.o
 .text          0x0800d2c4        0x0 c:/program files (x86)/gnu tools arm embedded/4.8 2013q4/bin/../lib/gcc/arm-none-eabi/4.8.3/../../../../arm-none-eabi/lib/armv7e-m\libm.a(lib_a-w_pow.o)
 .text          0x0800d2c4        0x0 c:/program files (x86)/gnu tools arm embedded/4.8 2013q4/bin/../lib/gcc/arm-none-eabi/4.8.3/../../../../arm-none-eabi/lib/armv7e-m\libm.a(lib_a-e_pow.o)
 .text          0x0800d2c4        0x0 c:/program files (x86)/gnu tools arm embedded/4.8 2013q4/bin/../lib/gcc/arm-none-eabi/4.8.3/../../../../arm-none-eabi/lib/armv7e-m\libm.a(lib_a-e_sqrt.o)
 .text          0x0800d2c4        0x0 c:/program files (x86)/gnu tools arm embedded/4.8 2013q4/bin/../lib/gcc/arm-none-eabi/4.8.3/../../../../arm-none-eabi/lib/armv7e-m\libm.a(lib_a-s_fabs.o)
 .text          0x0800d2c4        0x0 c:/program files (x86)/gnu tools arm embedded/4.8 2013q4/bin/../lib/gcc/arm-none-eabi/4.8.3/../../../../arm-none-eabi/lib/armv7e-m\libm.a(lib_a-s_finite.o)
 .text          0x0800d2c4        0x0 c:/program files (x86)/gnu tools arm embedded/4.8 2013q4/bin/../lib/gcc/arm-none-eabi/4.8.3/../../../../arm-none-eabi/lib/armv7e-m\libm.a(lib_a-s_fpclassify.o)
 .text          0x0800d2c4        0x0 c:/program files (x86)/gnu tools arm embedded/4.8 2013q4/bin/../lib/gcc/arm-none-eabi/4.8.3/../../../../arm-none-eabi/lib/armv7e-m\libm.a(lib_a-s_lib_ver.o)
 .text          0x0800d2c4        0x0 c:/program files (x86)/gnu tools arm embedded/4.8 2013q4/bin/../lib/gcc/arm-none-eabi/4.8.3/../../../../arm-none-eabi/lib/armv7e-m\libm.a(lib_a-s_matherr.o)
 .text          0x0800d2c4        0x0 c:/program files (x86)/gnu tools arm embedded/4.8 2013q4/bin/../lib/gcc/arm-none-eabi/4.8.3/../../../../arm-none-eabi/lib/armv7e-m\libm.a(lib_a-s_nan.o)
 .text          0x0800d2c4        0x0 c:/program files (x86)/gnu tools arm embedded/4.8 2013q4/bin/../lib/gcc/arm-none-eabi/4.8.3/../../../../arm-none-eabi/lib/armv7e-m\libm.a(lib_a-s_rint.o)
 .text          0x0800d2c4        0x0 c:/program files (x86)/gnu tools arm embedded/4.8 2013q4/bin/../lib/gcc/arm-none-eabi/4.8.3/../../../../arm-none-eabi/lib/armv7e-m\libm.a(lib_a-s_scalbn.o)
 .text          0x0800d2c4        0x0 c:/program files (x86)/gnu tools arm embedded/4.8 2013q4/bin/../lib/gcc/arm-none-eabi/4.8.3/../../../../arm-none-eabi/lib/armv7e-m\libm.a(lib_a-s_copysign.o)
 .text          0x0800d2c4        0x0 c:/program files (x86)/gnu tools arm embedded/4.8 2013q4/bin/../lib/gcc/arm-none-eabi/4.8.3/../../../../arm-none-eabi/lib/armv7e-m\libstdc++.a(pointer_type_info.o)
 .text          0x0800d2c4        0x0 c:/program files (x86)/gnu tools arm embedded/4.8 2013q4/bin/../lib/gcc/arm-none-eabi/4.8.3/../../../../arm-none-eabi/lib/armv7e-m\libstdc++.a(fundamental_type_info.o)
 .text          0x0800d2c4        0x0 c:/program files (x86)/gnu tools arm embedded/4.8 2013q4/bin/../lib/gcc/arm-none-eabi/4.8.3/../../../../arm-none-eabi/lib/armv7e-m\libstdc++.a(si_class_type_info.o)
 .text          0x0800d2c4        0x0 c:/program files (x86)/gnu tools arm embedded/4.8 2013q4/bin/../lib/gcc/arm-none-eabi/4.8.3/../../../../arm-none-eabi/lib/armv7e-m\libstdc++.a(pure.o)
 .text          0x0800d2c4        0x0 c:/program files (x86)/gnu tools arm embedded/4.8 2013q4/bin/../lib/gcc/arm-none-eabi/4.8.3/../../../../arm-none-eabi/lib/armv7e-m\libstdc++.a(pbase_type_info.o)
 .text          0x0800d2c4        0x0 c:/program files (x86)/gnu tools arm embedded/4.8 2013q4/bin/../lib/gcc/arm-none-eabi/4.8.3/../../../../arm-none-eabi/lib/armv7e-m\libstdc++.a(eh_exception.o)
 .text          0x0800d2c4        0x0 c:/program files (x86)/gnu tools arm embedded/4.8 2013q4/bin/../lib/gcc/arm-none-eabi/4.8.3/../../../../arm-none-eabi/lib/armv7e-m\libstdc++.a(del_op.o)
 .text          0x0800d2c4        0x0 c:/program files (x86)/gnu tools arm embedded/4.8 2013q4/bin/../lib/gcc/arm-none-eabi/4.8.3/../../../../arm-none-eabi/lib/armv7e-m\libstdc++.a(class_type_info.o)
 .text          0x0800d2c4        0x0 c:/program files (x86)/gnu tools arm embedded/4.8 2013q4/bin/../lib/gcc/arm-none-eabi/4.8.3/../../../../arm-none-eabi/lib/armv7e-m\libstdc++.a(atexit_arm.o)
 .text          0x0800d2c4        0x0 c:/program files (x86)/gnu tools arm embedded/4.8 2013q4/bin/../lib/gcc/arm-none-eabi/4.8.3/../../../../arm-none-eabi/lib/armv7e-m\libstdc++.a(eh_throw.o)
 .text          0x0800d2c4        0x0 c:/program files (x86)/gnu tools arm embedded/4.8 2013q4/bin/../lib/gcc/arm-none-eabi/4.8.3/../../../../arm-none-eabi/lib/armv7e-m\libstdc++.a(new_op.o)
 .text          0x0800d2c4        0x0 c:/program files (x86)/gnu tools arm embedded/4.8 2013q4/bin/../lib/gcc/arm-none-eabi/4.8.3/../../../../arm-none-eabi/lib/armv7e-m\libstdc++.a(eh_personality.o)
 .text          0x0800d2c4        0x0 c:/program files (x86)/gnu tools arm embedded/4.8 2013q4/bin/../lib/gcc/arm-none-eabi/4.8.3/../../../../arm-none-eabi/lib/armv7e-m\libstdc++.a(eh_term_handler.o)
 .text          0x0800d2c4        0x0 c:/program files (x86)/gnu tools arm embedded/4.8 2013q4/bin/../lib/gcc/arm-none-eabi/4.8.3/../../../../arm-none-eabi/lib/armv7e-m\libstdc++.a(eh_alloc.o)
 .text          0x0800d2c4        0x0 c:/program files (x86)/gnu tools arm embedded/4.8 2013q4/bin/../lib/gcc/arm-none-eabi/4.8.3/../../../../arm-none-eabi/lib/armv7e-m\libstdc++.a(function_type_info.o)
 .text          0x0800d2c4        0x0 c:/program files (x86)/gnu tools arm embedded/4.8 2013q4/bin/../lib/gcc/arm-none-eabi/4.8.3/../../../../arm-none-eabi/lib/armv7e-m\libstdc++.a(eh_terminate.o)
 .text          0x0800d2c4        0x0 c:/program files (x86)/gnu tools arm embedded/4.8 2013q4/bin/../lib/gcc/arm-none-eabi/4.8.3/../../../../arm-none-eabi/lib/armv7e-m\libstdc++.a(tinfo.o)
 .text          0x0800d2c4        0x0 c:/program files (x86)/gnu tools arm embedded/4.8 2013q4/bin/../lib/gcc/arm-none-eabi/4.8.3/../../../../arm-none-eabi/lib/armv7e-m\libstdc++.a(eh_unex_handler.o)
 .text          0x0800d2c4        0x0 c:/program files (x86)/gnu tools arm embedded/4.8 2013q4/bin/../lib/gcc/arm-none-eabi/4.8.3/../../../../arm-none-eabi/lib/armv7e-m\libstdc++.a(string-inst.o)
 .text          0x0800d2c4        0x0 c:/program files (x86)/gnu tools arm embedded/4.8 2013q4/bin/../lib/gcc/arm-none-eabi/4.8.3/../../../../arm-none-eabi/lib/armv7e-m\libstdc++.a(hashtable_c++0x.o)
 .text          0x0800d2c4        0x0 c:/program files (x86)/gnu tools arm embedded/4.8 2013q4/bin/../lib/gcc/arm-none-eabi/4.8.3/../../../../arm-none-eabi/lib/armv7e-m\libstdc++.a(functexcept.o)
 .text          0x0800d2c4        0x0 c:/program files (x86)/gnu tools arm embedded/4.8 2013q4/bin/../lib/gcc/arm-none-eabi/4.8.3/../../../../arm-none-eabi/lib/armv7e-m\libstdc++.a(functional.o)
 .text          0x0800d2c4        0x0 c:/program files (x86)/gnu tools arm embedded/4.8 2013q4/bin/../lib/gcc/arm-none-eabi/4.8.3/../../../../arm-none-eabi/lib/armv7e-m\libstdc++.a(eh_call.o)
 .text          0x0800d2c4        0x0 c:/program files (x86)/gnu tools arm embedded/4.8 2013q4/bin/../lib/gcc/arm-none-eabi/4.8.3/../../../../arm-none-eabi/lib/armv7e-m\libstdc++.a(eh_arm.o)
 .text          0x0800d2c4        0x0 c:/program files (x86)/gnu tools arm embedded/4.8 2013q4/bin/../lib/gcc/arm-none-eabi/4.8.3/../../../../arm-none-eabi/lib/armv7e-m\libstdc++.a(new_handler.o)
 .text          0x0800d2c4        0x0 c:/program files (x86)/gnu tools arm embedded/4.8 2013q4/bin/../lib/gcc/arm-none-eabi/4.8.3/../../../../arm-none-eabi/lib/armv7e-m\libstdc++.a(bad_alloc.o)
 .text          0x0800d2c4        0x0 c:/program files (x86)/gnu tools arm embedded/4.8 2013q4/bin/../lib/gcc/arm-none-eabi/4.8.3/../../../../arm-none-eabi/lib/armv7e-m\libstdc++.a(eh_aux_runtime.o)
 .text          0x0800d2c4        0x0 c:/program files (x86)/gnu tools arm embedded/4.8 2013q4/bin/../lib/gcc/arm-none-eabi/4.8.3/../../../../arm-none-eabi/lib/armv7e-m\libstdc++.a(eh_globals.o)
 .text          0x0800d2c4        0x0 c:/program files (x86)/gnu tools arm embedded/4.8 2013q4/bin/../lib/gcc/arm-none-eabi/4.8.3/../../../../arm-none-eabi/lib/armv7e-m\libstdc++.a(bad_cast.o)
 .text          0x0800d2c4        0x0 c:/program files (x86)/gnu tools arm embedded/4.8 2013q4/bin/../lib/gcc/arm-none-eabi/4.8.3/../../../../arm-none-eabi/lib/armv7e-m\libstdc++.a(eh_catch.o)
 .text          0x0800d2c4        0x0 c:/program files (x86)/gnu tools arm embedded/4.8 2013q4/bin/../lib/gcc/arm-none-eabi/4.8.3/../../../../arm-none-eabi/lib/armv7e-m\libstdc++.a(vterminate.o)
 .text          0x0800d2c4        0x0 c:/program files (x86)/gnu tools arm embedded/4.8 2013q4/bin/../lib/gcc/arm-none-eabi/4.8.3/../../../../arm-none-eabi/lib/armv7e-m\libstdc++.a(eh_type.o)
 .text          0x0800d2c4        0x0 c:/program files (x86)/gnu tools arm embedded/4.8 2013q4/bin/../lib/gcc/arm-none-eabi/4.8.3/../../../../arm-none-eabi/lib/armv7e-m\libstdc++.a(bad_typeid.o)
 .text          0x0800d2c4        0x0 c:/program files (x86)/gnu tools arm embedded/4.8 2013q4/bin/../lib/gcc/arm-none-eabi/4.8.3/../../../../arm-none-eabi/lib/armv7e-m\libstdc++.a(ios_failure.o)
 .text          0x0800d2c4        0x0 c:/program files (x86)/gnu tools arm embedded/4.8 2013q4/bin/../lib/gcc/arm-none-eabi/4.8.3/../../../../arm-none-eabi/lib/armv7e-m\libstdc++.a(stdexcept.o)
 .text          0x0800d2c4        0x0 c:/program files (x86)/gnu tools arm embedded/4.8 2013q4/bin/../lib/gcc/arm-none-eabi/4.8.3/../../../../arm-none-eabi/lib/armv7e-m\libstdc++.a(system_error.o)
 .text          0x0800d2c4        0x0 c:/program files (x86)/gnu tools arm embedded/4.8 2013q4/bin/../lib/gcc/arm-none-eabi/4.8.3/../../../../arm-none-eabi/lib/armv7e-m\libstdc++.a(future.o)
 .text          0x0800d2c4        0x0 c:/program files (x86)/gnu tools arm embedded/4.8 2013q4/bin/../lib/gcc/arm-none-eabi/4.8.3/../../../../arm-none-eabi/lib/armv7e-m\libstdc++.a(regex.o)
 .text          0x0800d2c4        0x0 c:/program files (x86)/gnu tools arm embedded/4.8 2013q4/bin/../lib/gcc/arm-none-eabi/4.8.3/../../../../arm-none-eabi/lib/armv7e-m\libstdc++.a(guard.o)
 .text          0x0800d2c4     0x57d8 c:/program files (x86)/gnu tools arm embedded/4.8 2013q4/bin/../lib/gcc/arm-none-eabi/4.8.3/../../../../arm-none-eabi/lib/armv7e-m\libstdc++.a(cp-demangle.o)
                0x080129bc                __cxa_demangle
                0x08012a80                __gcclibcxx_demangle_callback
 .text          0x08012a9c        0x0 c:/program files (x86)/gnu tools arm embedded/4.8 2013q4/bin/../lib/gcc/arm-none-eabi/4.8.3/../../../../arm-none-eabi/lib/armv7e-m\libstdc++.a(guard_error.o)
 .text          0x08012a9c      0x370 c:/program files (x86)/gnu tools arm embedded/4.8 2013q4/bin/../lib/gcc/arm-none-eabi/4.8.3/armv7e-m\libgcc.a(_arm_addsubdf3.o)
                0x08012a9c                __aeabi_drsub
                0x08012aa4                __aeabi_dsub
                0x08012aa4                __subdf3
                0x08012aa8                __aeabi_dadd
                0x08012aa8                __adddf3
                0x08012d20                __floatunsidf
                0x08012d20                __aeabi_ui2d
                0x08012d40                __floatsidf
                0x08012d40                __aeabi_i2d
                0x08012d64                __aeabi_f2d
                0x08012d64                __extendsfdf2
                0x08012da0                __floatundidf
                0x08012da0                __aeabi_ul2d
                0x08012db0                __floatdidf
                0x08012db0                __aeabi_l2d
 .text          0x08012e0c      0x424 c:/program files (x86)/gnu tools arm embedded/4.8 2013q4/bin/../lib/gcc/arm-none-eabi/4.8.3/armv7e-m\libgcc.a(_arm_muldivdf3.o)
                0x08012e0c                __aeabi_dmul
                0x08012e0c                __muldf3
                0x08013060                __divdf3
                0x08013060                __aeabi_ddiv
 .text          0x08013230      0x110 c:/program files (x86)/gnu tools arm embedded/4.8 2013q4/bin/../lib/gcc/arm-none-eabi/4.8.3/armv7e-m\libgcc.a(_arm_cmpdf2.o)
                0x08013230                __gtdf2
                0x08013230                __gedf2
                0x08013238                __ltdf2
                0x08013238                __ledf2
                0x08013240                __nedf2
                0x08013240                __eqdf2
                0x08013240                __cmpdf2
                0x080132bc                __aeabi_cdrcmple
                0x080132cc                __aeabi_cdcmpeq
                0x080132cc                __aeabi_cdcmple
                0x080132dc                __aeabi_dcmpeq
                0x080132f0                __aeabi_dcmplt
                0x08013304                __aeabi_dcmple
                0x08013318                __aeabi_dcmpge
                0x0801332c                __aeabi_dcmpgt
 .text          0x08013340       0x50 c:/program files (x86)/gnu tools arm embedded/4.8 2013q4/bin/../lib/gcc/arm-none-eabi/4.8.3/armv7e-m\libgcc.a(_arm_fixdfsi.o)
                0x08013340                __aeabi_d2iz
                0x08013340                __fixdfsi
 .text          0x08013390       0x40 c:/program files (x86)/gnu tools arm embedded/4.8 2013q4/bin/../lib/gcc/arm-none-eabi/4.8.3/armv7e-m\libgcc.a(_arm_fixunsdfsi.o)
                0x08013390                __aeabi_d2uiz
                0x08013390                __fixunsdfsi
 .text          0x080133d0      0xa1c c:/program files (x86)/gnu tools arm embedded/4.8 2013q4/bin/../lib/gcc/arm-none-eabi/4.8.3/armv7e-m\libgcc.a(unwind-arm.o)
                0x080136b4                _Unwind_GetCFA
                0x080136b8                __gnu_Unwind_RaiseException
                0x08013718                __gnu_Unwind_ForcedUnwind
                0x0801372c                __gnu_Unwind_Resume
                0x08013770                __gnu_Unwind_Resume_or_Rethrow
                0x08013780                _Unwind_Complete
                0x08013784                _Unwind_DeleteException
                0x08013794                _Unwind_VRS_Get
                0x080137e4                _Unwind_VRS_Set
                0x08013834                __gnu_Unwind_Backtrace
                0x08013b88                __aeabi_unwind_cpp_pr0
                0x08013b90                __aeabi_unwind_cpp_pr1
                0x08013b98                __aeabi_unwind_cpp_pr2
                0x08013ba0                _Unwind_VRS_Pop
 .text          0x08013dec      0x1ac c:/program files (x86)/gnu tools arm embedded/4.8 2013q4/bin/../lib/gcc/arm-none-eabi/4.8.3/armv7e-m\libgcc.a(libunwind.o)
                0x08013dec                __restore_core_regs
                0x08013dec                restore_core_regs
                0x08013e04                __gnu_Unwind_Restore_VFP
                0x08013e0c                __gnu_Unwind_Save_VFP
                0x08013e14                __gnu_Unwind_Restore_VFP_D
                0x08013e1c                __gnu_Unwind_Save_VFP_D
                0x08013e24                __gnu_Unwind_Restore_VFP_D_16_to_31
                0x08013e2c                __gnu_Unwind_Save_VFP_D_16_to_31
                0x08013e34                __gnu_Unwind_Restore_WMMXD
                0x08013e78                __gnu_Unwind_Save_WMMXD
                0x08013ebc                __gnu_Unwind_Restore_WMMXC
                0x08013ed0                __gnu_Unwind_Save_WMMXC
                0x08013ee4                ___Unwind_RaiseException
                0x08013ee4                _Unwind_RaiseException
                0x08013f08                _Unwind_Resume
                0x08013f08                ___Unwind_Resume
                0x08013f2c                _Unwind_Resume_or_Rethrow
                0x08013f2c                ___Unwind_Resume_or_Rethrow
                0x08013f50                _Unwind_ForcedUnwind
                0x08013f50                ___Unwind_ForcedUnwind
                0x08013f74                ___Unwind_Backtrace
                0x08013f74                _Unwind_Backtrace
 .text          0x08013f98      0x33c c:/program files (x86)/gnu tools arm embedded/4.8 2013q4/bin/../lib/gcc/arm-none-eabi/4.8.3/armv7e-m\libgcc.a(pr-support.o)
                0x08013fec                __gnu_unwind_execute
                0x08014278                __gnu_unwind_frame
                0x080142a4                _Unwind_GetRegionStart
                0x080142b0                _Unwind_GetLanguageSpecificData
                0x080142c4                _Unwind_GetDataRelBase
                0x080142cc                _Unwind_GetTextRelBase
 .text          0x080142d4        0x0 c:/program files (x86)/gnu tools arm embedded/4.8 2013q4/bin/../lib/gcc/arm-none-eabi/4.8.3/../../../../arm-none-eabi/lib/armv7e-m\libc.a(lib_a-abort.o)
 .text          0x080142d4        0x0 c:/program files (x86)/gnu tools arm embedded/4.8 2013q4/bin/../lib/gcc/arm-none-eabi/4.8.3/../../../../arm-none-eabi/lib/armv7e-m\libc.a(lib_a-assert.o)
 .text          0x080142d4        0x0 c:/program files (x86)/gnu tools arm embedded/4.8 2013q4/bin/../lib/gcc/arm-none-eabi/4.8.3/../../../../arm-none-eabi/lib/armv7e-m\libc.a(lib_a-ctype_.o)
 .text          0x080142d4        0x0 c:/program files (x86)/gnu tools arm embedded/4.8 2013q4/bin/../lib/gcc/arm-none-eabi/4.8.3/../../../../arm-none-eabi/lib/armv7e-m\libc.a(lib_a-cxa_atexit.o)
 .text          0x080142d4        0x0 c:/program files (x86)/gnu tools arm embedded/4.8 2013q4/bin/../lib/gcc/arm-none-eabi/4.8.3/../../../../arm-none-eabi/lib/armv7e-m\libc.a(lib_a-errno.o)
 .text          0x080142d4        0x0 c:/program files (x86)/gnu tools arm embedded/4.8 2013q4/bin/../lib/gcc/arm-none-eabi/4.8.3/../../../../arm-none-eabi/lib/armv7e-m\libc.a(lib_a-exit.o)
 .text          0x080142d4        0x0 c:/program files (x86)/gnu tools arm embedded/4.8 2013q4/bin/../lib/gcc/arm-none-eabi/4.8.3/../../../../arm-none-eabi/lib/armv7e-m\libc.a(lib_a-fiprintf.o)
 .text          0x080142d4        0x0 c:/program files (x86)/gnu tools arm embedded/4.8 2013q4/bin/../lib/gcc/arm-none-eabi/4.8.3/../../../../arm-none-eabi/lib/armv7e-m\libc.a(lib_a-fputc.o)
 .text          0x080142d4        0x0 c:/program files (x86)/gnu tools arm embedded/4.8 2013q4/bin/../lib/gcc/arm-none-eabi/4.8.3/../../../../arm-none-eabi/lib/armv7e-m\libc.a(lib_a-fputs.o)
 .text          0x080142d4        0x0 c:/program files (x86)/gnu tools arm embedded/4.8 2013q4/bin/../lib/gcc/arm-none-eabi/4.8.3/../../../../arm-none-eabi/lib/armv7e-m\libc.a(lib_a-fvwrite.o)
 .text          0x080142d4        0x0 c:/program files (x86)/gnu tools arm embedded/4.8 2013q4/bin/../lib/gcc/arm-none-eabi/4.8.3/../../../../arm-none-eabi/lib/armv7e-m\libc.a(lib_a-fwrite.o)
 .text          0x080142d4        0x0 c:/program files (x86)/gnu tools arm embedded/4.8 2013q4/bin/../lib/gcc/arm-none-eabi/4.8.3/../../../../arm-none-eabi/lib/armv7e-m\libc.a(lib_a-impure.o)
 .text          0x080142d4        0x0 c:/program files (x86)/gnu tools arm embedded/4.8 2013q4/bin/../lib/gcc/arm-none-eabi/4.8.3/../../../../arm-none-eabi/lib/armv7e-m\libc.a(lib_a-init.o)
 .text          0x080142d4        0x0 c:/program files (x86)/gnu tools arm embedded/4.8 2013q4/bin/../lib/gcc/arm-none-eabi/4.8.3/../../../../arm-none-eabi/lib/armv7e-m\libc.a(lib_a-mallocr.o)
 .text          0x080142d4        0x0 c:/program files (x86)/gnu tools arm embedded/4.8 2013q4/bin/../lib/gcc/arm-none-eabi/4.8.3/../../../../arm-none-eabi/lib/armv7e-m\libc.a(lib_a-memchr-stub.o)
 .text          0x080142d4        0x0 c:/program files (x86)/gnu tools arm embedded/4.8 2013q4/bin/../lib/gcc/arm-none-eabi/4.8.3/../../../../arm-none-eabi/lib/armv7e-m\libc.a(lib_a-memcmp.o)
 .text          0x080142d4      0x134 c:/program files (x86)/gnu tools arm embedded/4.8 2013q4/bin/../lib/gcc/arm-none-eabi/4.8.3/../../../../arm-none-eabi/lib/armv7e-m\libc.a(lib_a-memcpy.o)
                0x080142d4                memcpy
 .text          0x08014408        0x0 c:/program files (x86)/gnu tools arm embedded/4.8 2013q4/bin/../lib/gcc/arm-none-eabi/4.8.3/../../../../arm-none-eabi/lib/armv7e-m\libc.a(lib_a-memmove.o)
 .text          0x08014408        0x0 c:/program files (x86)/gnu tools arm embedded/4.8 2013q4/bin/../lib/gcc/arm-none-eabi/4.8.3/../../../../arm-none-eabi/lib/armv7e-m\libc.a(lib_a-memset.o)
 .text          0x08014408        0x0 c:/program files (x86)/gnu tools arm embedded/4.8 2013q4/bin/../lib/gcc/arm-none-eabi/4.8.3/../../../../arm-none-eabi/lib/armv7e-m\libc.a(lib_a-mlock.o)
 .text          0x08014408        0x0 c:/program files (x86)/gnu tools arm embedded/4.8 2013q4/bin/../lib/gcc/arm-none-eabi/4.8.3/../../../../arm-none-eabi/lib/armv7e-m\libc.a(lib_a-printf.o)
 .text          0x08014408        0x0 c:/program files (x86)/gnu tools arm embedded/4.8 2013q4/bin/../lib/gcc/arm-none-eabi/4.8.3/../../../../arm-none-eabi/lib/armv7e-m\libc.a(lib_a-putc.o)
 .text          0x08014408        0x0 c:/program files (x86)/gnu tools arm embedded/4.8 2013q4/bin/../lib/gcc/arm-none-eabi/4.8.3/../../../../arm-none-eabi/lib/armv7e-m\libc.a(lib_a-puts.o)
 .text          0x08014408        0x0 c:/program files (x86)/gnu tools arm embedded/4.8 2013q4/bin/../lib/gcc/arm-none-eabi/4.8.3/../../../../arm-none-eabi/lib/armv7e-m\libc.a(lib_a-realloc.o)
 .text          0x08014408        0x0 c:/program files (x86)/gnu tools arm embedded/4.8 2013q4/bin/../lib/gcc/arm-none-eabi/4.8.3/../../../../arm-none-eabi/lib/armv7e-m\libc.a(lib_a-reallocr.o)
 .text          0x08014408        0x0 c:/program files (x86)/gnu tools arm embedded/4.8 2013q4/bin/../lib/gcc/arm-none-eabi/4.8.3/../../../../arm-none-eabi/lib/armv7e-m\libc.a(lib_a-reent.o)
 .text          0x08014408        0x0 c:/program files (x86)/gnu tools arm embedded/4.8 2013q4/bin/../lib/gcc/arm-none-eabi/4.8.3/../../../../arm-none-eabi/lib/armv7e-m\libc.a(lib_a-sbrkr.o)
 .text          0x08014408        0x0 c:/program files (x86)/gnu tools arm embedded/4.8 2013q4/bin/../lib/gcc/arm-none-eabi/4.8.3/../../../../arm-none-eabi/lib/armv7e-m\libc.a(lib_a-signal.o)
 .text          0x08014408        0x0 c:/program files (x86)/gnu tools arm embedded/4.8 2013q4/bin/../lib/gcc/arm-none-eabi/4.8.3/../../../../arm-none-eabi/lib/armv7e-m\libc.a(lib_a-signalr.o)
 .text          0x08014408        0x0 c:/program files (x86)/gnu tools arm embedded/4.8 2013q4/bin/../lib/gcc/arm-none-eabi/4.8.3/../../../../arm-none-eabi/lib/armv7e-m\libc.a(lib_a-sprintf.o)
 .text          0x08014408      0x21c c:/program files (x86)/gnu tools arm embedded/4.8 2013q4/bin/../lib/gcc/arm-none-eabi/4.8.3/../../../../arm-none-eabi/lib/armv7e-m\libc.a(lib_a-strcmp.o)
                0x08014408                strcmp
 .text          0x08014624        0x0 c:/program files (x86)/gnu tools arm embedded/4.8 2013q4/bin/../lib/gcc/arm-none-eabi/4.8.3/../../../../arm-none-eabi/lib/armv7e-m\libc.a(lib_a-strerror.o)
 .text          0x08014624        0x0 c:/program files (x86)/gnu tools arm embedded/4.8 2013q4/bin/../lib/gcc/arm-none-eabi/4.8.3/../../../../arm-none-eabi/lib/armv7e-m\libc.a(lib_a-strlen.o)
 .text          0x08014624        0x0 c:/program files (x86)/gnu tools arm embedded/4.8 2013q4/bin/../lib/gcc/arm-none-eabi/4.8.3/../../../../arm-none-eabi/lib/armv7e-m\libc.a(lib_a-strncmp.o)
 .text          0x08014624        0x0 c:/program files (x86)/gnu tools arm embedded/4.8 2013q4/bin/../lib/gcc/arm-none-eabi/4.8.3/../../../../arm-none-eabi/lib/armv7e-m\libc.a(lib_a-svfprintf.o)
 .text          0x08014624        0x0 c:/program files (x86)/gnu tools arm embedded/4.8 2013q4/bin/../lib/gcc/arm-none-eabi/4.8.3/../../../../arm-none-eabi/lib/armv7e-m\libc.a(lib_a-syswrite.o)
 .text          0x08014624        0x0 c:/program files (x86)/gnu tools arm embedded/4.8 2013q4/bin/../lib/gcc/arm-none-eabi/4.8.3/../../../../arm-none-eabi/lib/armv7e-m\libc.a(lib_a-u_strerr.o)
 .text          0x08014624        0x0 c:/program files (x86)/gnu tools arm embedded/4.8 2013q4/bin/../lib/gcc/arm-none-eabi/4.8.3/../../../../arm-none-eabi/lib/armv7e-m\libc.a(lib_a-vfiprintf.o)
 .text          0x08014624        0x0 c:/program files (x86)/gnu tools arm embedded/4.8 2013q4/bin/../lib/gcc/arm-none-eabi/4.8.3/../../../../arm-none-eabi/lib/armv7e-m\libc.a(lib_a-vfprintf.o)
 .text          0x08014624        0x0 c:/program files (x86)/gnu tools arm embedded/4.8 2013q4/bin/../lib/gcc/arm-none-eabi/4.8.3/../../../../arm-none-eabi/lib/armv7e-m\libc.a(lib_a-wbuf.o)
 .text          0x08014624        0x0 c:/program files (x86)/gnu tools arm embedded/4.8 2013q4/bin/../lib/gcc/arm-none-eabi/4.8.3/../../../../arm-none-eabi/lib/armv7e-m\libc.a(lib_a-writer.o)
 .text          0x08014624        0x0 c:/program files (x86)/gnu tools arm embedded/4.8 2013q4/bin/../lib/gcc/arm-none-eabi/4.8.3/../../../../arm-none-eabi/lib/armv7e-m\libc.a(lib_a-wsetup.o)
 .text          0x08014624        0x0 c:/program files (x86)/gnu tools arm embedded/4.8 2013q4/bin/../lib/gcc/arm-none-eabi/4.8.3/../../../../arm-none-eabi/lib/armv7e-m\libc.a(lib_a-__atexit.o)
 .text          0x08014624        0x0 c:/program files (x86)/gnu tools arm embedded/4.8 2013q4/bin/../lib/gcc/arm-none-eabi/4.8.3/../../../../arm-none-eabi/lib/armv7e-m\libc.a(lib_a-__call_atexit.o)
 .text          0x08014624        0x0 c:/program files (x86)/gnu tools arm embedded/4.8 2013q4/bin/../lib/gcc/arm-none-eabi/4.8.3/../../../../arm-none-eabi/lib/armv7e-m\libc.a(lib_a-atexit.o)
 .text          0x08014624        0x0 c:/program files (x86)/gnu tools arm embedded/4.8 2013q4/bin/../lib/gcc/arm-none-eabi/4.8.3/../../../../arm-none-eabi/lib/armv7e-m\libc.a(lib_a-dtoa.o)
 .text          0x08014624        0x0 c:/program files (x86)/gnu tools arm embedded/4.8 2013q4/bin/../lib/gcc/arm-none-eabi/4.8.3/../../../../arm-none-eabi/lib/armv7e-m\libc.a(lib_a-fflush.o)
 .text          0x08014624        0x0 c:/program files (x86)/gnu tools arm embedded/4.8 2013q4/bin/../lib/gcc/arm-none-eabi/4.8.3/../../../../arm-none-eabi/lib/armv7e-m\libc.a(lib_a-findfp.o)
 .text          0x08014624        0x0 c:/program files (x86)/gnu tools arm embedded/4.8 2013q4/bin/../lib/gcc/arm-none-eabi/4.8.3/../../../../arm-none-eabi/lib/armv7e-m\libc.a(lib_a-fini.o)
 .text          0x08014624        0x0 c:/program files (x86)/gnu tools arm embedded/4.8 2013q4/bin/../lib/gcc/arm-none-eabi/4.8.3/../../../../arm-none-eabi/lib/armv7e-m\libc.a(lib_a-fputwc.o)
 .text          0x08014624        0x0 c:/program files (x86)/gnu tools arm embedded/4.8 2013q4/bin/../lib/gcc/arm-none-eabi/4.8.3/../../../../arm-none-eabi/lib/armv7e-m\libc.a(lib_a-freer.o)
 .text          0x08014624        0x0 c:/program files (x86)/gnu tools arm embedded/4.8 2013q4/bin/../lib/gcc/arm-none-eabi/4.8.3/../../../../arm-none-eabi/lib/armv7e-m\libc.a(lib_a-fwalk.o)
 .text          0x08014624        0x0 c:/program files (x86)/gnu tools arm embedded/4.8 2013q4/bin/../lib/gcc/arm-none-eabi/4.8.3/../../../../arm-none-eabi/lib/armv7e-m\libc.a(lib_a-locale.o)
 .text          0x08014624        0x0 c:/program files (x86)/gnu tools arm embedded/4.8 2013q4/bin/../lib/gcc/arm-none-eabi/4.8.3/../../../../arm-none-eabi/lib/armv7e-m\libc.a(lib_a-makebuf.o)
 .text          0x08014624        0x0 c:/program files (x86)/gnu tools arm embedded/4.8 2013q4/bin/../lib/gcc/arm-none-eabi/4.8.3/../../../../arm-none-eabi/lib/armv7e-m\libc.a(lib_a-mprec.o)
 .text          0x08014624        0x0 c:/program files (x86)/gnu tools arm embedded/4.8 2013q4/bin/../lib/gcc/arm-none-eabi/4.8.3/../../../../arm-none-eabi/lib/armv7e-m\libc.a(lib_a-stdio.o)
 .text          0x08014624        0x0 c:/program files (x86)/gnu tools arm embedded/4.8 2013q4/bin/../lib/gcc/arm-none-eabi/4.8.3/../../../../arm-none-eabi/lib/armv7e-m\libc.a(lib_a-svfiprintf.o)
 .text          0x08014624        0x0 c:/program files (x86)/gnu tools arm embedded/4.8 2013q4/bin/../lib/gcc/arm-none-eabi/4.8.3/../../../../arm-none-eabi/lib/armv7e-m\libc.a(lib_a-wcrtomb.o)
 .text          0x08014624        0x0 c:/program files (x86)/gnu tools arm embedded/4.8 2013q4/bin/../lib/gcc/arm-none-eabi/4.8.3/../../../../arm-none-eabi/lib/armv7e-m\libc.a(lib_a-wctomb_r.o)
 .text          0x08014624        0x0 c:/program files (x86)/gnu tools arm embedded/4.8 2013q4/bin/../lib/gcc/arm-none-eabi/4.8.3/../../../../arm-none-eabi/lib/armv7e-m\libc.a(lib_a-callocr.o)
 .text          0x08014624        0x0 c:/program files (x86)/gnu tools arm embedded/4.8 2013q4/bin/../lib/gcc/arm-none-eabi/4.8.3/../../../../arm-none-eabi/lib/armv7e-m\libc.a(lib_a-closer.o)
 .text          0x08014624        0x0 c:/program files (x86)/gnu tools arm embedded/4.8 2013q4/bin/../lib/gcc/arm-none-eabi/4.8.3/../../../../arm-none-eabi/lib/armv7e-m\libc.a(lib_a-fclose.o)
 .text          0x08014624        0x0 c:/program files (x86)/gnu tools arm embedded/4.8 2013q4/bin/../lib/gcc/arm-none-eabi/4.8.3/../../../../arm-none-eabi/lib/armv7e-m\libc.a(lib_a-fstatr.o)
 .text          0x08014624        0x0 c:/program files (x86)/gnu tools arm embedded/4.8 2013q4/bin/../lib/gcc/arm-none-eabi/4.8.3/../../../../arm-none-eabi/lib/armv7e-m\libc.a(lib_a-isattyr.o)
 .text          0x08014624        0x0 c:/program files (x86)/gnu tools arm embedded/4.8 2013q4/bin/../lib/gcc/arm-none-eabi/4.8.3/../../../../arm-none-eabi/lib/armv7e-m\libc.a(lib_a-lseekr.o)
 .text          0x08014624        0x0 c:/program files (x86)/gnu tools arm embedded/4.8 2013q4/bin/../lib/gcc/arm-none-eabi/4.8.3/../../../../arm-none-eabi/lib/armv7e-m\libc.a(lib_a-readr.o)
 .text          0x08014624       0x2c c:/program files (x86)/gnu tools arm embedded/4.8 2013q4/bin/../lib/gcc/arm-none-eabi/4.8.3/armv7e-m\libgcc.a(_aeabi_uldivmod.o)
                0x08014624                __aeabi_uldivmod
 .text          0x08014650       0x60 c:/program files (x86)/gnu tools arm embedded/4.8 2013q4/bin/../lib/gcc/arm-none-eabi/4.8.3/armv7e-m\libgcc.a(bpabi.o)
                0x08014650                __gnu_ldivmod_helper
                0x08014680                __gnu_uldivmod_helper
 .text          0x080146b0        0x4 c:/program files (x86)/gnu tools arm embedded/4.8 2013q4/bin/../lib/gcc/arm-none-eabi/4.8.3/armv7e-m\libgcc.a(_dvmd_tls.o)
                0x080146b0                __aeabi_idiv0
                0x080146b0                __aeabi_ldiv0
 .text          0x080146b4      0x298 c:/program files (x86)/gnu tools arm embedded/4.8 2013q4/bin/../lib/gcc/arm-none-eabi/4.8.3/armv7e-m\libgcc.a(_divdi3.o)
                0x080146b4                __divdi3
 .text          0x0801494c      0x284 c:/program files (x86)/gnu tools arm embedded/4.8 2013q4/bin/../lib/gcc/arm-none-eabi/4.8.3/armv7e-m\libgcc.a(_udivdi3.o)
                0x0801494c                __udivdi3
 .text          0x08014bd0        0x0 c:/program files (x86)/gnu tools arm embedded/4.8 2013q4/bin/../lib/gcc/arm-none-eabi/4.8.3/armv7e-m/crtend.o
 .text          0x08014bd0        0x0 c:/program files (x86)/gnu tools arm embedded/4.8 2013q4/bin/../lib/gcc/arm-none-eabi/4.8.3/armv7e-m/crtn.o
 .text          0x08014bd0        0x0 c:/program files (x86)/gnu tools arm embedded/4.8 2013q4/bin/../lib/gcc/arm-none-eabi/4.8.3/../../../../arm-none-eabi/lib/armv7e-m\libm.a(lib_a-s_ceil.o)
 .text          0x08014bd0        0x0 c:/program files (x86)/gnu tools arm embedded/4.8 2013q4/bin/../lib/gcc/arm-none-eabi/4.8.3/../../../../arm-none-eabi/lib/armv7e-m\libm.a(lib_a-s_floor.o)
 *(.text*)
 .text.Reset_Handler
                0x08014bd0       0x4c ../build/obj/startup_stm32f4xx.o
                0x08014bd0                Reset_Handler
 .text.Default_Handler
                0x08014c1c        0x4 ../build/obj/startup_stm32f4xx.o
                0x08014c1c                RTC_Alarm_IRQHandler
                0x08014c1c                HASH_RNG_IRQHandler
                0x08014c1c                EXTI2_IRQHandler
                0x08014c1c                TIM8_CC_IRQHandler
                0x08014c1c                TIM1_CC_IRQHandler
                0x08014c1c                DMA1_Stream5_IRQHandler
                0x08014c1c                PVD_IRQHandler
                0x08014c1c                SDIO_IRQHandler
                0x08014c1c                TAMP_STAMP_IRQHandler
                0x08014c1c                PendSV_Handler
                0x08014c1c                CAN2_RX1_IRQHandler
                0x08014c1c                EXTI3_IRQHandler
                0x08014c1c                TIM8_TRG_COM_TIM14_IRQHandler
                0x08014c1c                TIM1_UP_TIM10_IRQHandler
                0x08014c1c                TIM8_UP_TIM13_IRQHandler
                0x08014c1c                I2C3_ER_IRQHandler
                0x08014c1c                EXTI0_IRQHandler
                0x08014c1c                I2C2_EV_IRQHandler
                0x08014c1c                DMA1_Stream2_IRQHandler
                0x08014c1c                CAN1_RX0_IRQHandler
                0x08014c1c                FPU_IRQHandler
                0x08014c1c                OTG_HS_WKUP_IRQHandler
                0x08014c1c                CAN2_SCE_IRQHandler
                0x08014c1c                DMA2_Stream2_IRQHandler
                0x08014c1c                SPI1_IRQHandler
                0x08014c1c                TIM6_DAC_IRQHandler
                0x08014c1c                TIM1_BRK_TIM9_IRQHandler
                0x08014c1c                DCMI_IRQHandler
                0x08014c1c                CAN2_RX0_IRQHandler
                0x08014c1c                DMA2_Stream3_IRQHandler
                0x08014c1c                USART6_IRQHandler
                0x08014c1c                USART3_IRQHandler
                0x08014c1c                CRYP_IRQHandler
                0x08014c1c                CAN1_RX1_IRQHandler
                0x08014c1c                UART5_IRQHandler
                0x08014c1c                TIM4_IRQHandler
                0x08014c1c                I2C1_EV_IRQHandler
                0x08014c1c                DMA1_Stream6_IRQHandler
                0x08014c1c                DMA1_Stream1_IRQHandler
                0x08014c1c                UART4_IRQHandler
                0x08014c1c                TIM3_IRQHandler
                0x08014c1c                RCC_IRQHandler
                0x08014c1c                TIM8_BRK_TIM12_IRQHandler
                0x08014c1c                Default_Handler
                0x08014c1c                ADC_IRQHandler
                0x08014c1c                DMA1_Stream7_IRQHandler
                0x08014c1c                TIM7_IRQHandler
                0x08014c1c                CAN2_TX_IRQHandler
                0x08014c1c                TIM5_IRQHandler
                0x08014c1c                DMA2_Stream7_IRQHandler
                0x08014c1c                I2C3_EV_IRQHandler
                0x08014c1c                EXTI9_5_IRQHandler
                0x08014c1c                RTC_WKUP_IRQHandler
                0x08014c1c                ETH_WKUP_IRQHandler
                0x08014c1c                SPI2_IRQHandler
                0x08014c1c                OTG_HS_EP1_IN_IRQHandler
                0x08014c1c                DMA1_Stream0_IRQHandler
                0x08014c1c                CAN1_TX_IRQHandler
                0x08014c1c                SVC_Handler
                0x08014c1c                EXTI4_IRQHandler
                0x08014c1c                FSMC_IRQHandler
                0x08014c1c                ETH_IRQHandler
                0x08014c1c                OTG_HS_EP1_OUT_IRQHandler
                0x08014c1c                WWDG_IRQHandler
                0x08014c1c                OTG_FS_WKUP_IRQHandler
                0x08014c1c                TIM1_TRG_COM_TIM11_IRQHandler
                0x08014c1c                OTG_HS_IRQHandler
                0x08014c1c                EXTI1_IRQHandler
                0x08014c1c                USART2_IRQHandler
                0x08014c1c                I2C2_ER_IRQHandler
                0x08014c1c                DMA2_Stream1_IRQHandler
                0x08014c1c                CAN1_SCE_IRQHandler
                0x08014c1c                FLASH_IRQHandler
                0x08014c1c                DMA2_Stream4_IRQHandler
                0x08014c1c                USART1_IRQHandler
                0x08014c1c                OTG_FS_IRQHandler
                0x08014c1c                SPI3_IRQHandler
                0x08014c1c                DMA1_Stream4_IRQHandler
                0x08014c1c                I2C1_ER_IRQHandler
                0x08014c1c                DMA2_Stream6_IRQHandler
                0x08014c1c                DMA1_Stream3_IRQHandler
 .text._ZNK3osc9Exception4whatEv
                0x08014c20        0x4 ../build/obj/oscreceivedelements.o
                0x08014c20                osc::Exception::what() const
 .text._ZN3osc9ExceptionD2Ev
                0x08014c24       0x14 ../build/obj/oscreceivedelements.o
                0x08014c24                osc::Exception::~Exception()
                0x08014c24                osc::Exception::~Exception()
 .text._ZN3osc24MissingArgumentExceptionD2Ev
                0x08014c38       0x14 ../build/obj/oscreceivedelements.o
                0x08014c38                osc::MissingArgumentException::~MissingArgumentException()
                0x08014c38                osc::MissingArgumentException::~MissingArgumentException()
 .text._ZN3osc26WrongArgumentTypeExceptionD2Ev
                0x08014c4c       0x14 ../build/obj/oscreceivedelements.o
                0x08014c4c                osc::WrongArgumentTypeException::~WrongArgumentTypeException()
                0x08014c4c                osc::WrongArgumentTypeException::~WrongArgumentTypeException()
 .text._ZN3osc24MalformedBundleExceptionD2Ev
                0x08014c60       0x14 ../build/obj/oscreceivedelements.o
                0x08014c60                osc::MalformedBundleException::~MalformedBundleException()
                0x08014c60                osc::MalformedBundleException::~MalformedBundleException()
 .text._ZN3osc25MalformedMessageExceptionD2Ev
                0x08014c74       0x14 ../build/obj/oscreceivedelements.o
                0x08014c74                osc::MalformedMessageException::~MalformedMessageException()
                0x08014c74                osc::MalformedMessageException::~MalformedMessageException()
 .text._ZN3osc9ExceptionD0Ev
                0x08014c88       0x12 ../build/obj/oscreceivedelements.o
                0x08014c88                osc::Exception::~Exception()
 .text._ZN3osc24MissingArgumentExceptionD0Ev
                0x08014c9a       0x12 ../build/obj/oscreceivedelements.o
                0x08014c9a                osc::MissingArgumentException::~MissingArgumentException()
 .text._ZN3osc26WrongArgumentTypeExceptionD0Ev
                0x08014cac       0x12 ../build/obj/oscreceivedelements.o
                0x08014cac                osc::WrongArgumentTypeException::~WrongArgumentTypeException()
 .text._ZN3osc24MalformedBundleExceptionD0Ev
                0x08014cbe       0x12 ../build/obj/oscreceivedelements.o
                0x08014cbe                osc::MalformedBundleException::~MalformedBundleException()
 .text._ZN3osc25MalformedMessageExceptionD0Ev
                0x08014cd0       0x12 ../build/obj/oscreceivedelements.o
                0x08014cd0                osc::MalformedMessageException::~MalformedMessageException()
 *fill*         0x08014ce2        0x2 
 .text.startup  0x08014ce4       0x10 ../build/obj/osctypes.o
 .text._ZNSt16_Sp_counted_baseILN9__gnu_cxx12_Lock_policyE0EE10_M_destroyEv
                0x08014cf4        0xc ../build/obj/udp_color_server.o
                0x08014cf4                std::_Sp_counted_base<(__gnu_cxx::_Lock_policy)0>::_M_destroy()
 .text._ZNSt16_Sp_counted_baseILN9__gnu_cxx12_Lock_policyE0EED2Ev
                0x08014d00        0xc ../build/obj/udp_color_server.o
                0x08014d00                std::_Sp_counted_base<(__gnu_cxx::_Lock_policy)0>::~_Sp_counted_base()
                0x08014d00                std::_Sp_counted_base<(__gnu_cxx::_Lock_policy)0>::~_Sp_counted_base()
 .text._ZNSt23_Sp_counted_ptr_inplaceIN10GrizzlyLib13ElementBufferINS0_10ARGBFormatEEESaIS3_ELN9__gnu_cxx12_Lock_policyE0EED2Ev
                0x08014d0c        0xc ../build/obj/udp_color_server.o
                0x08014d0c                std::_Sp_counted_ptr_inplace<GrizzlyLib::ElementBuffer<GrizzlyLib::ARGBFormat>, std::allocator<GrizzlyLib::ElementBuffer<GrizzlyLib::ARGBFormat> >, (__gnu_cxx::_Lock_policy)0>::~_Sp_counted_ptr_inplace()
                0x08014d0c                std::_Sp_counted_ptr_inplace<GrizzlyLib::ElementBuffer<GrizzlyLib::ARGBFormat>, std::allocator<GrizzlyLib::ElementBuffer<GrizzlyLib::ARGBFormat> >, (__gnu_cxx::_Lock_policy)0>::~_Sp_counted_ptr_inplace()
 .text._ZNSt23_Sp_counted_ptr_inplaceIN10GrizzlyLib13ElementBufferINS0_10ARGBFormatEEESaIS3_ELN9__gnu_cxx12_Lock_policyE0EE10_M_disposeEv
                0x08014d18        0x2 ../build/obj/udp_color_server.o
                0x08014d18                std::_Sp_counted_ptr_inplace<GrizzlyLib::ElementBuffer<GrizzlyLib::ARGBFormat>, std::allocator<GrizzlyLib::ElementBuffer<GrizzlyLib::ARGBFormat> >, (__gnu_cxx::_Lock_policy)0>::_M_dispose()
 *fill*         0x08014d1a        0x2 
 .text._ZNSt23_Sp_counted_ptr_inplaceIN10GrizzlyLib9ObjectPtrESaIS1_ELN9__gnu_cxx12_Lock_policyE0EED2Ev
                0x08014d1c        0xc ../build/obj/udp_color_server.o
                0x08014d1c                std::_Sp_counted_ptr_inplace<GrizzlyLib::ObjectPtr, std::allocator<GrizzlyLib::ObjectPtr>, (__gnu_cxx::_Lock_policy)0>::~_Sp_counted_ptr_inplace()
                0x08014d1c                std::_Sp_counted_ptr_inplace<GrizzlyLib::ObjectPtr, std::allocator<GrizzlyLib::ObjectPtr>, (__gnu_cxx::_Lock_policy)0>::~_Sp_counted_ptr_inplace()
 .text._ZNSt19_Sp_counted_deleterIP4pbufPFhS1_ESaIiELN9__gnu_cxx12_Lock_policyE0EED2Ev
                0x08014d28        0xc ../build/obj/udp_color_server.o
                0x08014d28                std::_Sp_counted_deleter<pbuf*, unsigned char (*)(pbuf*), std::allocator<int>, (__gnu_cxx::_Lock_policy)0>::~_Sp_counted_deleter()
                0x08014d28                std::_Sp_counted_deleter<pbuf*, unsigned char (*)(pbuf*), std::allocator<int>, (__gnu_cxx::_Lock_policy)0>::~_Sp_counted_deleter()
 .text._ZNSt19_Sp_counted_deleterIP4pbufPFhS1_ESaIiELN9__gnu_cxx12_Lock_policyE0EE10_M_disposeEv
                0x08014d34        0xa ../build/obj/udp_color_server.o
                0x08014d34                std::_Sp_counted_deleter<pbuf*, unsigned char (*)(pbuf*), std::allocator<int>, (__gnu_cxx::_Lock_policy)0>::_M_dispose()
 *fill*         0x08014d3e        0x2 
 .text._ZNSt16_Sp_counted_baseILN9__gnu_cxx12_Lock_policyE0EED0Ev
                0x08014d40       0x14 ../build/obj/udp_color_server.o
                0x08014d40                std::_Sp_counted_base<(__gnu_cxx::_Lock_policy)0>::~_Sp_counted_base()
 .text._ZNSt19_Sp_counted_deleterIP4pbufPFhS1_ESaIiELN9__gnu_cxx12_Lock_policyE0EED0Ev
                0x08014d54       0x14 ../build/obj/udp_color_server.o
                0x08014d54                std::_Sp_counted_deleter<pbuf*, unsigned char (*)(pbuf*), std::allocator<int>, (__gnu_cxx::_Lock_policy)0>::~_Sp_counted_deleter()
 .text._ZNSt23_Sp_counted_ptr_inplaceIN10GrizzlyLib9ObjectPtrESaIS1_ELN9__gnu_cxx12_Lock_policyE0EED0Ev
                0x08014d68       0x14 ../build/obj/udp_color_server.o
                0x08014d68                std::_Sp_counted_ptr_inplace<GrizzlyLib::ObjectPtr, std::allocator<GrizzlyLib::ObjectPtr>, (__gnu_cxx::_Lock_policy)0>::~_Sp_counted_ptr_inplace()
 .text._ZNSt23_Sp_counted_ptr_inplaceIN10GrizzlyLib13ElementBufferINS0_10ARGBFormatEEESaIS3_ELN9__gnu_cxx12_Lock_policyE0EED0Ev
                0x08014d7c       0x14 ../build/obj/udp_color_server.o
                0x08014d7c                std::_Sp_counted_ptr_inplace<GrizzlyLib::ElementBuffer<GrizzlyLib::ARGBFormat>, std::allocator<GrizzlyLib::ElementBuffer<GrizzlyLib::ARGBFormat> >, (__gnu_cxx::_Lock_policy)0>::~_Sp_counted_ptr_inplace()
 .text._ZNSt23_Sp_counted_ptr_inplaceIN10GrizzlyLib13ElementBufferINS0_10ARGBFormatEEESaIS3_ELN9__gnu_cxx12_Lock_policyE0EE10_M_destroyEv
                0x08014d90        0xc ../build/obj/udp_color_server.o
                0x08014d90                std::_Sp_counted_ptr_inplace<GrizzlyLib::ElementBuffer<GrizzlyLib::ARGBFormat>, std::allocator<GrizzlyLib::ElementBuffer<GrizzlyLib::ARGBFormat> >, (__gnu_cxx::_Lock_policy)0>::_M_destroy()
 .text._ZNSt23_Sp_counted_ptr_inplaceIN10GrizzlyLib9ObjectPtrESaIS1_ELN9__gnu_cxx12_Lock_policyE0EE10_M_destroyEv
                0x08014d9c        0xc ../build/obj/udp_color_server.o
                0x08014d9c                std::_Sp_counted_ptr_inplace<GrizzlyLib::ObjectPtr, std::allocator<GrizzlyLib::ObjectPtr>, (__gnu_cxx::_Lock_policy)0>::_M_destroy()
 .text._ZNSt19_Sp_counted_deleterIP4pbufPFhS1_ESaIiELN9__gnu_cxx12_Lock_policyE0EE10_M_destroyEv
                0x08014da8        0xc ../build/obj/udp_color_server.o
                0x08014da8                std::_Sp_counted_deleter<pbuf*, unsigned char (*)(pbuf*), std::allocator<int>, (__gnu_cxx::_Lock_policy)0>::_M_destroy()
 .text._ZNSt23_Sp_counted_ptr_inplaceIN10GrizzlyLib13ElementBufferINS0_10ARGBFormatEEESaIS3_ELN9__gnu_cxx12_Lock_policyE0EE14_M_get_deleterERKSt9type_info
                0x08014db4       0x18 ../build/obj/udp_color_server.o
                0x08014db4                std::_Sp_counted_ptr_inplace<GrizzlyLib::ElementBuffer<GrizzlyLib::ARGBFormat>, std::allocator<GrizzlyLib::ElementBuffer<GrizzlyLib::ARGBFormat> >, (__gnu_cxx::_Lock_policy)0>::_M_get_deleter(std::type_info const&)
 .text._ZNSt23_Sp_counted_ptr_inplaceIN10GrizzlyLib9ObjectPtrESaIS1_ELN9__gnu_cxx12_Lock_policyE0EE14_M_get_deleterERKSt9type_info
                0x08014dcc       0x18 ../build/obj/udp_color_server.o
                0x08014dcc                std::_Sp_counted_ptr_inplace<GrizzlyLib::ObjectPtr, std::allocator<GrizzlyLib::ObjectPtr>, (__gnu_cxx::_Lock_policy)0>::_M_get_deleter(std::type_info const&)
 .text._ZNSt19_Sp_counted_deleterIP4pbufPFhS1_ESaIiELN9__gnu_cxx12_Lock_policyE0EE14_M_get_deleterERKSt9type_info
                0x08014de4       0x18 ../build/obj/udp_color_server.o
                0x08014de4                std::_Sp_counted_deleter<pbuf*, unsigned char (*)(pbuf*), std::allocator<int>, (__gnu_cxx::_Lock_policy)0>::_M_get_deleter(std::type_info const&)
 .text._ZNSt14__shared_countILN9__gnu_cxx12_Lock_policyE0EEC2ERKS2_
                0x08014dfc        0xe ../build/obj/udp_color_server.o
                0x08014dfc                std::__shared_count<(__gnu_cxx::_Lock_policy)0>::__shared_count(std::__shared_count<(__gnu_cxx::_Lock_policy)0> const&)
                0x08014dfc                std::__shared_count<(__gnu_cxx::_Lock_policy)0>::__shared_count(std::__shared_count<(__gnu_cxx::_Lock_policy)0> const&)
 .text._ZNSt14__shared_countILN9__gnu_cxx12_Lock_policyE0EED2Ev
                0x08014e0a       0x30 ../build/obj/udp_color_server.o
                0x08014e0a                std::__shared_count<(__gnu_cxx::_Lock_policy)0>::~__shared_count()
                0x08014e0a                std::__shared_count<(__gnu_cxx::_Lock_policy)0>::~__shared_count()
 .text._ZNSt23_Sp_counted_ptr_inplaceIN10GrizzlyLib9ObjectPtrESaIS1_ELN9__gnu_cxx12_Lock_policyE0EE10_M_disposeEv
                0x08014e3a       0x16 ../build/obj/udp_color_server.o
                0x08014e3a                std::_Sp_counted_ptr_inplace<GrizzlyLib::ObjectPtr, std::allocator<GrizzlyLib::ObjectPtr>, (__gnu_cxx::_Lock_policy)0>::_M_dispose()
 .text._ZNSt10_HashtableImSt4pairIKmS0_ISsmEESaIS3_ENSt8__detail10_Select1stESt8equal_toImESt4hashImENS5_18_Mod_range_hashingENS5_20_Default_ranged_hashENS5_20_Prime_rehash_policyENS5_17_Hashtable_traitsILb0ELb0ELb1EEEE21_M_insert_unique_nodeEjjPNS5_10_Hash_nodeIS3_Lb0EEE
                0x08014e50       0xe4 ../build/obj/udp_color_server.o
                0x08014e50                std::_Hashtable<unsigned long, std::pair<unsigned long const, std::pair<std::string, unsigned long> >, std::allocator<std::pair<unsigned long const, std::pair<std::string, unsigned long> > >, std::__detail::_Select1st, std::equal_to<unsigned long>, std::hash<unsigned long>, std::__detail::_Mod_range_hashing, std::__detail::_Default_ranged_hash, std::__detail::_Prime_rehash_policy, std::__detail::_Hashtable_traits<false, false, true> >::_M_insert_unique_node(unsigned int, unsigned int, std::__detail::_Hash_node<std::pair<unsigned long const, std::pair<std::string, unsigned long> >, false>*)
 .text._ZNSt10_HashtableImSt4pairIKmSt10shared_ptrIN10GrizzlyLib9ObjectPtrEEESaIS6_ENSt8__detail10_Select1stESt8equal_toImESt4hashImENS8_18_Mod_range_hashingENS8_20_Default_ranged_hashENS8_20_Prime_rehash_policyENS8_17_Hashtable_traitsILb0ELb0ELb1EEEE21_M_insert_unique_nodeEjjPNS8_10_Hash_nodeIS6_Lb0EEE
                0x08014f34       0xe4 ../build/obj/udp_color_server.o
                0x08014f34                std::_Hashtable<unsigned long, std::pair<unsigned long const, std::shared_ptr<GrizzlyLib::ObjectPtr> >, std::allocator<std::pair<unsigned long const, std::shared_ptr<GrizzlyLib::ObjectPtr> > >, std::__detail::_Select1st, std::equal_to<unsigned long>, std::hash<unsigned long>, std::__detail::_Mod_range_hashing, std::__detail::_Default_ranged_hash, std::__detail::_Prime_rehash_policy, std::__detail::_Hashtable_traits<false, false, true> >::_M_insert_unique_node(unsigned int, unsigned int, std::__detail::_Hash_node<std::pair<unsigned long const, std::shared_ptr<GrizzlyLib::ObjectPtr> >, false>*)
 .text._ZNKSt14__shared_countILN9__gnu_cxx12_Lock_policyE0EE14_M_get_deleterERKSt9type_info
                0x08015018        0xe ../build/obj/udp_color_server.o
                0x08015018                std::__shared_count<(__gnu_cxx::_Lock_policy)0>::_M_get_deleter(std::type_info const&) const
 *fill*         0x08015026        0x2 
 .text._ZNSt23_Sp_counted_ptr_inplaceIN10GrizzlyLib9ObjectPtrESaIS1_ELN9__gnu_cxx12_Lock_policyE0EEC2IIRmRKSsRSt10shared_ptrIvESC_EEES2_DpOT_
                0x08015028       0x6c ../build/obj/udp_color_server.o
                0x08015028                std::_Sp_counted_ptr_inplace<GrizzlyLib::ObjectPtr, std::allocator<GrizzlyLib::ObjectPtr>, (__gnu_cxx::_Lock_policy)0>::_Sp_counted_ptr_inplace<unsigned long&, std::string const&, std::shared_ptr<void>&, std::shared_ptr<void>&>(std::allocator<GrizzlyLib::ObjectPtr>, unsigned long&, std::string const&, std::shared_ptr<void>&, std::shared_ptr<void>&)
                0x08015028                std::_Sp_counted_ptr_inplace<GrizzlyLib::ObjectPtr, std::allocator<GrizzlyLib::ObjectPtr>, (__gnu_cxx::_Lock_policy)0>::_Sp_counted_ptr_inplace<unsigned long&, std::string const&, std::shared_ptr<void>&, std::shared_ptr<void>&>(std::allocator<GrizzlyLib::ObjectPtr>, unsigned long&, std::string const&, std::shared_ptr<void>&, std::shared_ptr<void>&)
                0x08015028                std::_Sp_counted_ptr_inplace<GrizzlyLib::ObjectPtr, std::allocator<GrizzlyLib::ObjectPtr>, (__gnu_cxx::_Lock_policy)0>::_Sp_counted_ptr_inplace<unsigned long&, std::string const&, std::shared_ptr<void>&, std::shared_ptr<void>&>(std::allocator<GrizzlyLib::ObjectPtr>, unsigned long&, std::string const&, std::shared_ptr<void>&, std::shared_ptr<void>&)
                0x08015028                std::_Sp_counted_ptr_inplace<GrizzlyLib::ObjectPtr, std::allocator<GrizzlyLib::ObjectPtr>, (__gnu_cxx::_Lock_policy)0>::_Sp_counted_ptr_inplace<unsigned long&, std::string const&, std::shared_ptr<void>&, std::shared_ptr<void>&>(std::allocator<GrizzlyLib::ObjectPtr>, unsigned long&, std::string const&, std::shared_ptr<void>&, std::shared_ptr<void>&)
 .text._ZN10GrizzlyLib13BufferFactoryINS_10ARGBFormatEE14allocateBufferEPNS_13ObjectManagerESt10shared_ptrIvEPKvS8_
                0x08015094      0x160 ../build/obj/udp_color_server.o
                0x08015094                GrizzlyLib::BufferFactory<GrizzlyLib::ARGBFormat>::allocateBuffer(GrizzlyLib::ObjectManager*, std::shared_ptr<void>, void const*, void const*)
 .text.startup  0x080151f4       0xb8 ../build/obj/udp_color_server.o
 .text.startup  0x080152ac       0x7c ../build/obj/main.o
                0x080152ac                main
 .text.pow      0x08015328      0x2f8 c:/program files (x86)/gnu tools arm embedded/4.8 2013q4/bin/../lib/gcc/arm-none-eabi/4.8.3/../../../../arm-none-eabi/lib/armv7e-m\libm.a(lib_a-w_pow.o)
                0x08015328                pow
 .text.__ieee754_pow
                0x08015620      0xa78 c:/program files (x86)/gnu tools arm embedded/4.8 2013q4/bin/../lib/gcc/arm-none-eabi/4.8.3/../../../../arm-none-eabi/lib/armv7e-m\libm.a(lib_a-e_pow.o)
                0x08015620                __ieee754_pow
 .text.__ieee754_sqrt
                0x08016098      0x180 c:/program files (x86)/gnu tools arm embedded/4.8 2013q4/bin/../lib/gcc/arm-none-eabi/4.8.3/../../../../arm-none-eabi/lib/armv7e-m\libm.a(lib_a-e_sqrt.o)
                0x08016098                __ieee754_sqrt
 .text.fabs     0x08016218        0x8 c:/program files (x86)/gnu tools arm embedded/4.8 2013q4/bin/../lib/gcc/arm-none-eabi/4.8.3/../../../../arm-none-eabi/lib/armv7e-m\libm.a(lib_a-s_fabs.o)
                0x08016218                fabs
 .text.finite   0x08016220        0xc c:/program files (x86)/gnu tools arm embedded/4.8 2013q4/bin/../lib/gcc/arm-none-eabi/4.8.3/../../../../arm-none-eabi/lib/armv7e-m\libm.a(lib_a-s_finite.o)
                0x08016220                finite
 .text.__fpclassifyd
                0x0801622c       0x50 c:/program files (x86)/gnu tools arm embedded/4.8 2013q4/bin/../lib/gcc/arm-none-eabi/4.8.3/../../../../arm-none-eabi/lib/armv7e-m\libm.a(lib_a-s_fpclassify.o)
                0x0801622c                __fpclassifyd
 .text.matherr  0x0801627c        0x4 c:/program files (x86)/gnu tools arm embedded/4.8 2013q4/bin/../lib/gcc/arm-none-eabi/4.8.3/../../../../arm-none-eabi/lib/armv7e-m\libm.a(lib_a-s_matherr.o)
                0x0801627c                matherr
 .text.nan      0x08016280        0xc c:/program files (x86)/gnu tools arm embedded/4.8 2013q4/bin/../lib/gcc/arm-none-eabi/4.8.3/../../../../arm-none-eabi/lib/armv7e-m\libm.a(lib_a-s_nan.o)
                0x08016280                nan
 .text.rint     0x0801628c      0x118 c:/program files (x86)/gnu tools arm embedded/4.8 2013q4/bin/../lib/gcc/arm-none-eabi/4.8.3/../../../../arm-none-eabi/lib/armv7e-m\libm.a(lib_a-s_rint.o)
                0x0801628c                rint
 *fill*         0x080163a4        0x4 
 .text.scalbn   0x080163a8      0x118 c:/program files (x86)/gnu tools arm embedded/4.8 2013q4/bin/../lib/gcc/arm-none-eabi/4.8.3/../../../../arm-none-eabi/lib/armv7e-m\libm.a(lib_a-s_scalbn.o)
                0x080163a8                scalbn
 .text.copysign
                0x080164c0       0x14 c:/program files (x86)/gnu tools arm embedded/4.8 2013q4/bin/../lib/gcc/arm-none-eabi/4.8.3/../../../../arm-none-eabi/lib/armv7e-m\libm.a(lib_a-s_copysign.o)
                0x080164c0                copysign
 .text._ZNK10__cxxabiv119__pointer_type_info14__is_pointer_pEv
                0x080164d4        0x4 c:/program files (x86)/gnu tools arm embedded/4.8 2013q4/bin/../lib/gcc/arm-none-eabi/4.8.3/../../../../arm-none-eabi/lib/armv7e-m\libstdc++.a(pointer_type_info.o)
                0x080164d4                __cxxabiv1::__pointer_type_info::__is_pointer_p() const
 .text._ZN10__cxxabiv119__pointer_type_infoD2Ev
                0x080164d8       0x14 c:/program files (x86)/gnu tools arm embedded/4.8 2013q4/bin/../lib/gcc/arm-none-eabi/4.8.3/../../../../arm-none-eabi/lib/armv7e-m\libstdc++.a(pointer_type_info.o)
                0x080164d8                __cxxabiv1::__pointer_type_info::~__pointer_type_info()
                0x080164d8                __cxxabiv1::__pointer_type_info::~__pointer_type_info()
 .text._ZN10__cxxabiv119__pointer_type_infoD0Ev
                0x080164ec       0x1c c:/program files (x86)/gnu tools arm embedded/4.8 2013q4/bin/../lib/gcc/arm-none-eabi/4.8.3/../../../../arm-none-eabi/lib/armv7e-m\libstdc++.a(pointer_type_info.o)
                0x080164ec                __cxxabiv1::__pointer_type_info::~__pointer_type_info()
 .text._ZNK10__cxxabiv119__pointer_type_info15__pointer_catchEPKNS_17__pbase_type_infoEPPvj
                0x08016508       0x44 c:/program files (x86)/gnu tools arm embedded/4.8 2013q4/bin/../lib/gcc/arm-none-eabi/4.8.3/../../../../arm-none-eabi/lib/armv7e-m\libstdc++.a(pointer_type_info.o)
                0x08016508                __cxxabiv1::__pointer_type_info::__pointer_catch(__cxxabiv1::__pbase_type_info const*, void**, unsigned int) const
 .text._ZN10__cxxabiv123__fundamental_type_infoD2Ev
                0x0801654c       0x14 c:/program files (x86)/gnu tools arm embedded/4.8 2013q4/bin/../lib/gcc/arm-none-eabi/4.8.3/../../../../arm-none-eabi/lib/armv7e-m\libstdc++.a(fundamental_type_info.o)
                0x0801654c                __cxxabiv1::__fundamental_type_info::~__fundamental_type_info()
                0x0801654c                __cxxabiv1::__fundamental_type_info::~__fundamental_type_info()
 .text._ZN10__cxxabiv123__fundamental_type_infoD0Ev
                0x08016560       0x1c c:/program files (x86)/gnu tools arm embedded/4.8 2013q4/bin/../lib/gcc/arm-none-eabi/4.8.3/../../../../arm-none-eabi/lib/armv7e-m\libstdc++.a(fundamental_type_info.o)
                0x08016560                __cxxabiv1::__fundamental_type_info::~__fundamental_type_info()
 .text._ZN10__cxxabiv120__si_class_type_infoD2Ev
                0x0801657c       0x14 c:/program files (x86)/gnu tools arm embedded/4.8 2013q4/bin/../lib/gcc/arm-none-eabi/4.8.3/../../../../arm-none-eabi/lib/armv7e-m\libstdc++.a(si_class_type_info.o)
                0x0801657c                __cxxabiv1::__si_class_type_info::~__si_class_type_info()
                0x0801657c                __cxxabiv1::__si_class_type_info::~__si_class_type_info()
 .text._ZN10__cxxabiv120__si_class_type_infoD0Ev
                0x08016590       0x1c c:/program files (x86)/gnu tools arm embedded/4.8 2013q4/bin/../lib/gcc/arm-none-eabi/4.8.3/../../../../arm-none-eabi/lib/armv7e-m\libstdc++.a(si_class_type_info.o)
                0x08016590                __cxxabiv1::__si_class_type_info::~__si_class_type_info()
 .text._ZNK10__cxxabiv120__si_class_type_info20__do_find_public_srcEiPKvPKNS_17__class_type_infoES2_
                0x080165ac       0x34 c:/program files (x86)/gnu tools arm embedded/4.8 2013q4/bin/../lib/gcc/arm-none-eabi/4.8.3/../../../../arm-none-eabi/lib/armv7e-m\libstdc++.a(si_class_type_info.o)
                0x080165ac                __cxxabiv1::__si_class_type_info::__do_find_public_src(int, void const*, __cxxabiv1::__class_type_info const*, void const*) const
 .text._ZNK10__cxxabiv120__si_class_type_info12__do_dyncastEiNS_17__class_type_info10__sub_kindEPKS1_PKvS4_S6_RNS1_16__dyncast_resultE
                0x080165e0       0x98 c:/program files (x86)/gnu tools arm embedded/4.8 2013q4/bin/../lib/gcc/arm-none-eabi/4.8.3/../../../../arm-none-eabi/lib/armv7e-m\libstdc++.a(si_class_type_info.o)
                0x080165e0                __cxxabiv1::__si_class_type_info::__do_dyncast(int, __cxxabiv1::__class_type_info::__sub_kind, __cxxabiv1::__class_type_info const*, void const*, __cxxabiv1::__class_type_info const*, void const*, __cxxabiv1::__class_type_info::__dyncast_result&) const
 .text._ZNK10__cxxabiv120__si_class_type_info11__do_upcastEPKNS_17__class_type_infoEPKvRNS1_15__upcast_resultE
                0x08016678       0x20 c:/program files (x86)/gnu tools arm embedded/4.8 2013q4/bin/../lib/gcc/arm-none-eabi/4.8.3/../../../../arm-none-eabi/lib/armv7e-m\libstdc++.a(si_class_type_info.o)
                0x08016678                __cxxabiv1::__si_class_type_info::__do_upcast(__cxxabiv1::__class_type_info const*, void const*, __cxxabiv1::__class_type_info::__upcast_result&) const
 .text.__cxa_pure_virtual
                0x08016698       0x14 c:/program files (x86)/gnu tools arm embedded/4.8 2013q4/bin/../lib/gcc/arm-none-eabi/4.8.3/../../../../arm-none-eabi/lib/armv7e-m\libstdc++.a(pure.o)
                0x08016698                __cxa_pure_virtual
 .text.__cxa_deleted_virtual
                0x080166ac       0x14 c:/program files (x86)/gnu tools arm embedded/4.8 2013q4/bin/../lib/gcc/arm-none-eabi/4.8.3/../../../../arm-none-eabi/lib/armv7e-m\libstdc++.a(pure.o)
                0x080166ac                __cxa_deleted_virtual
 .text._ZNK10__cxxabiv117__pbase_type_info15__pointer_catchEPKS0_PPvj
                0x080166c0       0x10 c:/program files (x86)/gnu tools arm embedded/4.8 2013q4/bin/../lib/gcc/arm-none-eabi/4.8.3/../../../../arm-none-eabi/lib/armv7e-m\libstdc++.a(pbase_type_info.o)
                0x080166c0                __cxxabiv1::__pbase_type_info::__pointer_catch(__cxxabiv1::__pbase_type_info const*, void**, unsigned int) const
 .text._ZN10__cxxabiv117__pbase_type_infoD2Ev
                0x080166d0       0x14 c:/program files (x86)/gnu tools arm embedded/4.8 2013q4/bin/../lib/gcc/arm-none-eabi/4.8.3/../../../../arm-none-eabi/lib/armv7e-m\libstdc++.a(pbase_type_info.o)
                0x080166d0                __cxxabiv1::__pbase_type_info::~__pbase_type_info()
                0x080166d0                __cxxabiv1::__pbase_type_info::~__pbase_type_info()
 .text._ZN10__cxxabiv117__pbase_type_infoD0Ev
                0x080166e4       0x1c c:/program files (x86)/gnu tools arm embedded/4.8 2013q4/bin/../lib/gcc/arm-none-eabi/4.8.3/../../../../arm-none-eabi/lib/armv7e-m\libstdc++.a(pbase_type_info.o)
                0x080166e4                __cxxabiv1::__pbase_type_info::~__pbase_type_info()
 .text._ZNK10__cxxabiv117__pbase_type_info10__do_catchEPKSt9type_infoPPvj
                0x08016700       0x58 c:/program files (x86)/gnu tools arm embedded/4.8 2013q4/bin/../lib/gcc/arm-none-eabi/4.8.3/../../../../arm-none-eabi/lib/armv7e-m\libstdc++.a(pbase_type_info.o)
                0x08016700                __cxxabiv1::__pbase_type_info::__do_catch(std::type_info const*, void**, unsigned int) const
 .text._ZNSt9exceptionD2Ev
                0x08016758        0xc c:/program files (x86)/gnu tools arm embedded/4.8 2013q4/bin/../lib/gcc/arm-none-eabi/4.8.3/../../../../arm-none-eabi/lib/armv7e-m\libstdc++.a(eh_exception.o)
                0x08016758                std::exception::~exception()
                0x08016758                std::exception::~exception()
 .text._ZNSt13bad_exceptionD2Ev
                0x08016764        0xc c:/program files (x86)/gnu tools arm embedded/4.8 2013q4/bin/../lib/gcc/arm-none-eabi/4.8.3/../../../../arm-none-eabi/lib/armv7e-m\libstdc++.a(eh_exception.o)
                0x08016764                std::bad_exception::~bad_exception()
                0x08016764                std::bad_exception::~bad_exception()
 .text._ZN10__cxxabiv115__forced_unwindD2Ev
                0x08016770        0xc c:/program files (x86)/gnu tools arm embedded/4.8 2013q4/bin/../lib/gcc/arm-none-eabi/4.8.3/../../../../arm-none-eabi/lib/armv7e-m\libstdc++.a(eh_exception.o)
                0x08016770                __cxxabiv1::__forced_unwind::~__forced_unwind()
                0x08016770                __cxxabiv1::__forced_unwind::~__forced_unwind()
 .text._ZN10__cxxabiv119__foreign_exceptionD2Ev
                0x0801677c        0xc c:/program files (x86)/gnu tools arm embedded/4.8 2013q4/bin/../lib/gcc/arm-none-eabi/4.8.3/../../../../arm-none-eabi/lib/armv7e-m\libstdc++.a(eh_exception.o)
                0x0801677c                __cxxabiv1::__foreign_exception::~__foreign_exception()
                0x0801677c                __cxxabiv1::__foreign_exception::~__foreign_exception()
 .text._ZNKSt9exception4whatEv
                0x08016788        0x8 c:/program files (x86)/gnu tools arm embedded/4.8 2013q4/bin/../lib/gcc/arm-none-eabi/4.8.3/../../../../arm-none-eabi/lib/armv7e-m\libstdc++.a(eh_exception.o)
                0x08016788                std::exception::what() const
 .text._ZNKSt13bad_exception4whatEv
                0x08016790        0x8 c:/program files (x86)/gnu tools arm embedded/4.8 2013q4/bin/../lib/gcc/arm-none-eabi/4.8.3/../../../../arm-none-eabi/lib/armv7e-m\libstdc++.a(eh_exception.o)
                0x08016790                std::bad_exception::what() const
 .text._ZNSt9exceptionD0Ev
                0x08016798       0x14 c:/program files (x86)/gnu tools arm embedded/4.8 2013q4/bin/../lib/gcc/arm-none-eabi/4.8.3/../../../../arm-none-eabi/lib/armv7e-m\libstdc++.a(eh_exception.o)
                0x08016798                std::exception::~exception()
 .text._ZNSt13bad_exceptionD0Ev
                0x080167ac       0x14 c:/program files (x86)/gnu tools arm embedded/4.8 2013q4/bin/../lib/gcc/arm-none-eabi/4.8.3/../../../../arm-none-eabi/lib/armv7e-m\libstdc++.a(eh_exception.o)
                0x080167ac                std::bad_exception::~bad_exception()
 .text._ZN10__cxxabiv115__forced_unwindD0Ev
                0x080167c0       0x14 c:/program files (x86)/gnu tools arm embedded/4.8 2013q4/bin/../lib/gcc/arm-none-eabi/4.8.3/../../../../arm-none-eabi/lib/armv7e-m\libstdc++.a(eh_exception.o)
                0x080167c0                __cxxabiv1::__forced_unwind::~__forced_unwind()
 .text._ZN10__cxxabiv119__foreign_exceptionD0Ev
                0x080167d4       0x14 c:/program files (x86)/gnu tools arm embedded/4.8 2013q4/bin/../lib/gcc/arm-none-eabi/4.8.3/../../../../arm-none-eabi/lib/armv7e-m\libstdc++.a(eh_exception.o)
                0x080167d4                __cxxabiv1::__foreign_exception::~__foreign_exception()
 .text._ZdlPv   0x080167e8        0x8 c:/program files (x86)/gnu tools arm embedded/4.8 2013q4/bin/../lib/gcc/arm-none-eabi/4.8.3/../../../../arm-none-eabi/lib/armv7e-m\libstdc++.a(del_op.o)
                0x080167e8                operator delete(void*)
 .text._ZNK10__cxxabiv117__class_type_info11__do_upcastEPKS0_PPv
                0x080167f0       0x38 c:/program files (x86)/gnu tools arm embedded/4.8 2013q4/bin/../lib/gcc/arm-none-eabi/4.8.3/../../../../arm-none-eabi/lib/armv7e-m\libstdc++.a(class_type_info.o)
                0x080167f0                __cxxabiv1::__class_type_info::__do_upcast(__cxxabiv1::__class_type_info const*, void**) const
 .text._ZNK10__cxxabiv117__class_type_info20__do_find_public_srcEiPKvPKS0_S2_
                0x08016828        0xc c:/program files (x86)/gnu tools arm embedded/4.8 2013q4/bin/../lib/gcc/arm-none-eabi/4.8.3/../../../../arm-none-eabi/lib/armv7e-m\libstdc++.a(class_type_info.o)
                0x08016828                __cxxabiv1::__class_type_info::__do_find_public_src(int, void const*, __cxxabiv1::__class_type_info const*, void const*) const
 .text._ZN10__cxxabiv117__class_type_infoD2Ev
                0x08016834       0x14 c:/program files (x86)/gnu tools arm embedded/4.8 2013q4/bin/../lib/gcc/arm-none-eabi/4.8.3/../../../../arm-none-eabi/lib/armv7e-m\libstdc++.a(class_type_info.o)
                0x08016834                __cxxabiv1::__class_type_info::~__class_type_info()
                0x08016834                __cxxabiv1::__class_type_info::~__class_type_info()
 .text._ZN10__cxxabiv117__class_type_infoD0Ev
                0x08016848       0x1c c:/program files (x86)/gnu tools arm embedded/4.8 2013q4/bin/../lib/gcc/arm-none-eabi/4.8.3/../../../../arm-none-eabi/lib/armv7e-m\libstdc++.a(class_type_info.o)
                0x08016848                __cxxabiv1::__class_type_info::~__class_type_info()
 .text._ZNK10__cxxabiv117__class_type_info11__do_upcastEPKS0_PKvRNS0_15__upcast_resultE
                0x08016864       0x18 c:/program files (x86)/gnu tools arm embedded/4.8 2013q4/bin/../lib/gcc/arm-none-eabi/4.8.3/../../../../arm-none-eabi/lib/armv7e-m\libstdc++.a(class_type_info.o)
                0x08016864                __cxxabiv1::__class_type_info::__do_upcast(__cxxabiv1::__class_type_info const*, void const*, __cxxabiv1::__class_type_info::__upcast_result&) const
 .text._ZNK10__cxxabiv117__class_type_info10__do_catchEPKSt9type_infoPPvj
                0x0801687c       0x24 c:/program files (x86)/gnu tools arm embedded/4.8 2013q4/bin/../lib/gcc/arm-none-eabi/4.8.3/../../../../arm-none-eabi/lib/armv7e-m\libstdc++.a(class_type_info.o)
                0x0801687c                __cxxabiv1::__class_type_info::__do_catch(std::type_info const*, void**, unsigned int) const
 .text._ZNK10__cxxabiv117__class_type_info12__do_dyncastEiNS0_10__sub_kindEPKS0_PKvS3_S5_RNS0_16__dyncast_resultE
                0x080168a0       0x40 c:/program files (x86)/gnu tools arm embedded/4.8 2013q4/bin/../lib/gcc/arm-none-eabi/4.8.3/../../../../arm-none-eabi/lib/armv7e-m\libstdc++.a(class_type_info.o)
                0x080168a0                __cxxabiv1::__class_type_info::__do_dyncast(int, __cxxabiv1::__class_type_info::__sub_kind, __cxxabiv1::__class_type_info const*, void const*, __cxxabiv1::__class_type_info const*, void const*, __cxxabiv1::__class_type_info::__dyncast_result&) const
 .text.__aeabi_atexit
                0x080168e0        0xc c:/program files (x86)/gnu tools arm embedded/4.8 2013q4/bin/../lib/gcc/arm-none-eabi/4.8.3/../../../../arm-none-eabi/lib/armv7e-m\libstdc++.a(atexit_arm.o)
                0x080168e0                __aeabi_atexit
 .text._ZL23__gxx_exception_cleanup19_Unwind_Reason_CodeP21_Unwind_Control_Block
                0x080168ec       0x44 c:/program files (x86)/gnu tools arm embedded/4.8 2013q4/bin/../lib/gcc/arm-none-eabi/4.8.3/../../../../arm-none-eabi/lib/armv7e-m\libstdc++.a(eh_throw.o)
 .text.__cxa_throw
                0x08016930       0x84 c:/program files (x86)/gnu tools arm embedded/4.8 2013q4/bin/../lib/gcc/arm-none-eabi/4.8.3/../../../../arm-none-eabi/lib/armv7e-m\libstdc++.a(eh_throw.o)
                0x08016930                __cxa_throw
 .text.__cxa_rethrow
                0x080169b4       0x70 c:/program files (x86)/gnu tools arm embedded/4.8 2013q4/bin/../lib/gcc/arm-none-eabi/4.8.3/../../../../arm-none-eabi/lib/armv7e-m\libstdc++.a(eh_throw.o)
                0x080169b4                __cxa_rethrow
 .text._Znwj    0x08016a24       0x58 c:/program files (x86)/gnu tools arm embedded/4.8 2013q4/bin/../lib/gcc/arm-none-eabi/4.8.3/../../../../arm-none-eabi/lib/armv7e-m\libstdc++.a(new_op.o)
                0x08016a24                operator new(unsigned int)
 .text._ZL12read_sleb128PKhPl
                0x08016a7c       0x34 c:/program files (x86)/gnu tools arm embedded/4.8 2013q4/bin/../lib/gcc/arm-none-eabi/4.8.3/../../../../arm-none-eabi/lib/armv7e-m\libstdc++.a(eh_personality.o)
 .text._ZL28read_encoded_value_with_basehjPKhPj
                0x08016ab0       0xb0 c:/program files (x86)/gnu tools arm embedded/4.8 2013q4/bin/../lib/gcc/arm-none-eabi/4.8.3/../../../../arm-none-eabi/lib/armv7e-m\libstdc++.a(eh_personality.o)
 .text._ZL21base_of_encoded_valuehP15_Unwind_Context
                0x08016b60       0x4c c:/program files (x86)/gnu tools arm embedded/4.8 2013q4/bin/../lib/gcc/arm-none-eabi/4.8.3/../../../../arm-none-eabi/lib/armv7e-m\libstdc++.a(eh_personality.o)
 .text._ZL17parse_lsda_headerP15_Unwind_ContextPKhP16lsda_header_info
                0x08016bac       0x98 c:/program files (x86)/gnu tools arm embedded/4.8 2013q4/bin/../lib/gcc/arm-none-eabi/4.8.3/../../../../arm-none-eabi/lib/armv7e-m\libstdc++.a(eh_personality.o)
 .text.__gxx_personality_v0
                0x08016c44      0x408 c:/program files (x86)/gnu tools arm embedded/4.8 2013q4/bin/../lib/gcc/arm-none-eabi/4.8.3/../../../../arm-none-eabi/lib/armv7e-m\libstdc++.a(eh_personality.o)
                0x08016c44                __gxx_personality_v0
 .text.__cxa_allocate_exception
                0x0801704c       0x60 c:/program files (x86)/gnu tools arm embedded/4.8 2013q4/bin/../lib/gcc/arm-none-eabi/4.8.3/../../../../arm-none-eabi/lib/armv7e-m\libstdc++.a(eh_alloc.o)
                0x0801704c                __cxa_allocate_exception
 .text.__cxa_free_exception
                0x080170ac       0x34 c:/program files (x86)/gnu tools arm embedded/4.8 2013q4/bin/../lib/gcc/arm-none-eabi/4.8.3/../../../../arm-none-eabi/lib/armv7e-m\libstdc++.a(eh_alloc.o)
                0x080170ac                __cxa_free_exception
 .text.__cxa_allocate_dependent_exception
                0x080170e0       0x58 c:/program files (x86)/gnu tools arm embedded/4.8 2013q4/bin/../lib/gcc/arm-none-eabi/4.8.3/../../../../arm-none-eabi/lib/armv7e-m\libstdc++.a(eh_alloc.o)
                0x080170e0                __cxa_allocate_dependent_exception
 .text.__cxa_free_dependent_exception
                0x08017138       0x3c c:/program files (x86)/gnu tools arm embedded/4.8 2013q4/bin/../lib/gcc/arm-none-eabi/4.8.3/../../../../arm-none-eabi/lib/armv7e-m\libstdc++.a(eh_alloc.o)
                0x08017138                __cxa_free_dependent_exception
 .text._ZNK10__cxxabiv120__function_type_info15__is_function_pEv
                0x08017174        0x4 c:/program files (x86)/gnu tools arm embedded/4.8 2013q4/bin/../lib/gcc/arm-none-eabi/4.8.3/../../../../arm-none-eabi/lib/armv7e-m\libstdc++.a(function_type_info.o)
                0x08017174                __cxxabiv1::__function_type_info::__is_function_p() const
 .text._ZN10__cxxabiv120__function_type_infoD2Ev
                0x08017178       0x14 c:/program files (x86)/gnu tools arm embedded/4.8 2013q4/bin/../lib/gcc/arm-none-eabi/4.8.3/../../../../arm-none-eabi/lib/armv7e-m\libstdc++.a(function_type_info.o)
                0x08017178                __cxxabiv1::__function_type_info::~__function_type_info()
                0x08017178                __cxxabiv1::__function_type_info::~__function_type_info()
 .text._ZN10__cxxabiv120__function_type_infoD0Ev
                0x0801718c       0x1c c:/program files (x86)/gnu tools arm embedded/4.8 2013q4/bin/../lib/gcc/arm-none-eabi/4.8.3/../../../../arm-none-eabi/lib/armv7e-m\libstdc++.a(function_type_info.o)
                0x0801718c                __cxxabiv1::__function_type_info::~__function_type_info()
 .text._ZN10__cxxabiv111__terminateEPFvvE
                0x080171a8       0x28 c:/program files (x86)/gnu tools arm embedded/4.8 2013q4/bin/../lib/gcc/arm-none-eabi/4.8.3/../../../../arm-none-eabi/lib/armv7e-m\libstdc++.a(eh_terminate.o)
                0x080171a8                __cxxabiv1::__terminate(void (*)())
 .text._ZSt9terminatev
                0x080171d0       0x10 c:/program files (x86)/gnu tools arm embedded/4.8 2013q4/bin/../lib/gcc/arm-none-eabi/4.8.3/../../../../arm-none-eabi/lib/armv7e-m\libstdc++.a(eh_terminate.o)
                0x080171d0                std::terminate()
 .text._ZN10__cxxabiv112__unexpectedEPFvvE
                0x080171e0        0x8 c:/program files (x86)/gnu tools arm embedded/4.8 2013q4/bin/../lib/gcc/arm-none-eabi/4.8.3/../../../../arm-none-eabi/lib/armv7e-m\libstdc++.a(eh_terminate.o)
                0x080171e0                __cxxabiv1::__unexpected(void (*)())
 .text._ZSt10unexpectedv
                0x080171e8       0x10 c:/program files (x86)/gnu tools arm embedded/4.8 2013q4/bin/../lib/gcc/arm-none-eabi/4.8.3/../../../../arm-none-eabi/lib/armv7e-m\libstdc++.a(eh_terminate.o)
                0x080171e8                std::unexpected()
 .text._ZSt13set_terminatePFvvE
                0x080171f8       0x10 c:/program files (x86)/gnu tools arm embedded/4.8 2013q4/bin/../lib/gcc/arm-none-eabi/4.8.3/../../../../arm-none-eabi/lib/armv7e-m\libstdc++.a(eh_terminate.o)
                0x080171f8                std::set_terminate(void (*)())
 .text._ZSt14set_unexpectedPFvvE
                0x08017208       0x10 c:/program files (x86)/gnu tools arm embedded/4.8 2013q4/bin/../lib/gcc/arm-none-eabi/4.8.3/../../../../arm-none-eabi/lib/armv7e-m\libstdc++.a(eh_terminate.o)
                0x08017208                std::set_unexpected(void (*)())
 .text._ZNSt9type_infoD2Ev
                0x08017218        0xc c:/program files (x86)/gnu tools arm embedded/4.8 2013q4/bin/../lib/gcc/arm-none-eabi/4.8.3/../../../../arm-none-eabi/lib/armv7e-m\libstdc++.a(tinfo.o)
                0x08017218                std::type_info::~type_info()
                0x08017218                std::type_info::~type_info()
 .text._ZNKSt9type_info14__is_pointer_pEv
                0x08017224        0x4 c:/program files (x86)/gnu tools arm embedded/4.8 2013q4/bin/../lib/gcc/arm-none-eabi/4.8.3/../../../../arm-none-eabi/lib/armv7e-m\libstdc++.a(tinfo.o)
                0x08017224                std::type_info::__is_pointer_p() const
 .text._ZNKSt9type_info15__is_function_pEv
                0x08017228        0x4 c:/program files (x86)/gnu tools arm embedded/4.8 2013q4/bin/../lib/gcc/arm-none-eabi/4.8.3/../../../../arm-none-eabi/lib/armv7e-m\libstdc++.a(tinfo.o)
                0x08017228                std::type_info::__is_function_p() const
 .text._ZNKSt9type_info11__do_upcastEPKN10__cxxabiv117__class_type_infoEPPv
                0x0801722c        0x4 c:/program files (x86)/gnu tools arm embedded/4.8 2013q4/bin/../lib/gcc/arm-none-eabi/4.8.3/../../../../arm-none-eabi/lib/armv7e-m\libstdc++.a(tinfo.o)
                0x0801722c                std::type_info::__do_upcast(__cxxabiv1::__class_type_info const*, void**) const
 .text._ZNSt9type_infoD0Ev
                0x08017230       0x14 c:/program files (x86)/gnu tools arm embedded/4.8 2013q4/bin/../lib/gcc/arm-none-eabi/4.8.3/../../../../arm-none-eabi/lib/armv7e-m\libstdc++.a(tinfo.o)
                0x08017230                std::type_info::~type_info()
 .text._ZNKSt9type_infoeqERKS_
                0x08017244       0x28 c:/program files (x86)/gnu tools arm embedded/4.8 2013q4/bin/../lib/gcc/arm-none-eabi/4.8.3/../../../../arm-none-eabi/lib/armv7e-m\libstdc++.a(tinfo.o)
                0x08017244                std::type_info::operator==(std::type_info const&) const
 .text._ZNKSt9type_info10__do_catchEPKS_PPvj
                0x0801726c        0x4 c:/program files (x86)/gnu tools arm embedded/4.8 2013q4/bin/../lib/gcc/arm-none-eabi/4.8.3/../../../../arm-none-eabi/lib/armv7e-m\libstdc++.a(tinfo.o)
                0x0801726c                std::type_info::__do_catch(std::type_info const*, void**, unsigned int) const
 .text._ZNKSs4dataEv
                0x08017270        0x4 c:/program files (x86)/gnu tools arm embedded/4.8 2013q4/bin/../lib/gcc/arm-none-eabi/4.8.3/../../../../arm-none-eabi/lib/armv7e-m\libstdc++.a(string-inst.o)
                0x08017270                std::string::data() const
 .text._ZNKSs6lengthEv
                0x08017274        0x8 c:/program files (x86)/gnu tools arm embedded/4.8 2013q4/bin/../lib/gcc/arm-none-eabi/4.8.3/../../../../arm-none-eabi/lib/armv7e-m\libstdc++.a(string-inst.o)
                0x08017274                std::string::length() const
 .text._ZNKSs7_M_dataEv
                0x0801727c        0x4 c:/program files (x86)/gnu tools arm embedded/4.8 2013q4/bin/../lib/gcc/arm-none-eabi/4.8.3/../../../../arm-none-eabi/lib/armv7e-m\libstdc++.a(string-inst.o)
                0x0801727c                std::string::_M_data() const
 .text._ZNSs7_M_dataEPc
                0x08017280        0x8 c:/program files (x86)/gnu tools arm embedded/4.8 2013q4/bin/../lib/gcc/arm-none-eabi/4.8.3/../../../../arm-none-eabi/lib/armv7e-m\libstdc++.a(string-inst.o)
                0x08017280                std::string::_M_data(char*)
 .text._ZNKSs6_M_repEv
                0x08017288        0x8 c:/program files (x86)/gnu tools arm embedded/4.8 2013q4/bin/../lib/gcc/arm-none-eabi/4.8.3/../../../../arm-none-eabi/lib/armv7e-m\libstdc++.a(string-inst.o)
                0x08017288                std::string::_M_rep() const
 .text._ZNKSs9_M_ibeginEv
                0x08017290        0x4 c:/program files (x86)/gnu tools arm embedded/4.8 2013q4/bin/../lib/gcc/arm-none-eabi/4.8.3/../../../../arm-none-eabi/lib/armv7e-m\libstdc++.a(string-inst.o)
                0x08017290                std::string::_M_ibegin() const
 .text._ZNKSs7_M_iendEv
                0x08017294        0xc c:/program files (x86)/gnu tools arm embedded/4.8 2013q4/bin/../lib/gcc/arm-none-eabi/4.8.3/../../../../arm-none-eabi/lib/armv7e-m\libstdc++.a(string-inst.o)
                0x08017294                std::string::_M_iend() const
 .text._ZNKSs8_M_checkEjPKc
                0x080172a0       0x18 c:/program files (x86)/gnu tools arm embedded/4.8 2013q4/bin/../lib/gcc/arm-none-eabi/4.8.3/../../../../arm-none-eabi/lib/armv7e-m\libstdc++.a(string-inst.o)
                0x080172a0                std::string::_M_check(unsigned int, char const*) const
 .text._ZNKSs15_M_check_lengthEjjPKc
                0x080172b8       0x20 c:/program files (x86)/gnu tools arm embedded/4.8 2013q4/bin/../lib/gcc/arm-none-eabi/4.8.3/../../../../arm-none-eabi/lib/armv7e-m\libstdc++.a(string-inst.o)
                0x080172b8                std::string::_M_check_length(unsigned int, unsigned int, char const*) const
 .text._ZNKSs8_M_limitEjj
                0x080172d8       0x10 c:/program files (x86)/gnu tools arm embedded/4.8 2013q4/bin/../lib/gcc/arm-none-eabi/4.8.3/../../../../arm-none-eabi/lib/armv7e-m\libstdc++.a(string-inst.o)
                0x080172d8                std::string::_M_limit(unsigned int, unsigned int) const
 .text._ZNKSs11_M_disjunctEPKc
                0x080172e8       0x1c c:/program files (x86)/gnu tools arm embedded/4.8 2013q4/bin/../lib/gcc/arm-none-eabi/4.8.3/../../../../arm-none-eabi/lib/armv7e-m\libstdc++.a(string-inst.o)
                0x080172e8                std::string::_M_disjunct(char const*) const
 .text._ZNSs7_M_copyEPcPKcj
                0x08017304       0x18 c:/program files (x86)/gnu tools arm embedded/4.8 2013q4/bin/../lib/gcc/arm-none-eabi/4.8.3/../../../../arm-none-eabi/lib/armv7e-m\libstdc++.a(string-inst.o)
                0x08017304                std::string::_M_copy(char*, char const*, unsigned int)
 .text._ZNSs7_M_moveEPcPKcj
                0x0801731c       0x18 c:/program files (x86)/gnu tools arm embedded/4.8 2013q4/bin/../lib/gcc/arm-none-eabi/4.8.3/../../../../arm-none-eabi/lib/armv7e-m\libstdc++.a(string-inst.o)
                0x0801731c                std::string::_M_move(char*, char const*, unsigned int)
 .text._ZNSs9_M_assignEPcjc
                0x08017334       0x14 c:/program files (x86)/gnu tools arm embedded/4.8 2013q4/bin/../lib/gcc/arm-none-eabi/4.8.3/../../../../arm-none-eabi/lib/armv7e-m\libstdc++.a(string-inst.o)
                0x08017334                std::string::_M_assign(char*, unsigned int, char)
 .text._ZNSs13_S_copy_charsEPcN9__gnu_cxx17__normal_iteratorIS_SsEES2_
                0x08017348       0x1c c:/program files (x86)/gnu tools arm embedded/4.8 2013q4/bin/../lib/gcc/arm-none-eabi/4.8.3/../../../../arm-none-eabi/lib/armv7e-m\libstdc++.a(string-inst.o)
                0x08017348                std::string::_S_copy_chars(char*, __gnu_cxx::__normal_iterator<char*, std::string>, __gnu_cxx::__normal_iterator<char*, std::string>)
 .text._ZNSs13_S_copy_charsEPcN9__gnu_cxx17__normal_iteratorIPKcSsEES4_
                0x08017364       0x1c c:/program files (x86)/gnu tools arm embedded/4.8 2013q4/bin/../lib/gcc/arm-none-eabi/4.8.3/../../../../arm-none-eabi/lib/armv7e-m\libstdc++.a(string-inst.o)
                0x08017364                std::string::_S_copy_chars(char*, __gnu_cxx::__normal_iterator<char const*, std::string>, __gnu_cxx::__normal_iterator<char const*, std::string>)
 .text._ZNSs13_S_copy_charsEPcS_S_
                0x08017380       0x1c c:/program files (x86)/gnu tools arm embedded/4.8 2013q4/bin/../lib/gcc/arm-none-eabi/4.8.3/../../../../arm-none-eabi/lib/armv7e-m\libstdc++.a(string-inst.o)
                0x08017380                std::string::_S_copy_chars(char*, char*, char*)
 .text._ZNSs13_S_copy_charsEPcPKcS1_
                0x0801739c       0x1c c:/program files (x86)/gnu tools arm embedded/4.8 2013q4/bin/../lib/gcc/arm-none-eabi/4.8.3/../../../../arm-none-eabi/lib/armv7e-m\libstdc++.a(string-inst.o)
                0x0801739c                std::string::_S_copy_chars(char*, char const*, char const*)
 .text._ZNSs10_S_compareEjj
                0x080173b8        0x4 c:/program files (x86)/gnu tools arm embedded/4.8 2013q4/bin/../lib/gcc/arm-none-eabi/4.8.3/../../../../arm-none-eabi/lib/armv7e-m\libstdc++.a(string-inst.o)
                0x080173b8                std::string::_S_compare(unsigned int, unsigned int)
 .text._ZNSs12_S_empty_repEv
                0x080173bc        0x8 c:/program files (x86)/gnu tools arm embedded/4.8 2013q4/bin/../lib/gcc/arm-none-eabi/4.8.3/../../../../arm-none-eabi/lib/armv7e-m\libstdc++.a(string-inst.o)
                0x080173bc                std::string::_S_empty_rep()
 .text._ZNSsC2Ev
                0x080173c4        0xc c:/program files (x86)/gnu tools arm embedded/4.8 2013q4/bin/../lib/gcc/arm-none-eabi/4.8.3/../../../../arm-none-eabi/lib/armv7e-m\libstdc++.a(string-inst.o)
                0x080173c4                std::basic_string<char, std::char_traits<char>, std::allocator<char> >::basic_string()
                0x080173c4                std::basic_string<char, std::char_traits<char>, std::allocator<char> >::basic_string()
 .text._ZNSsC2EOSs
                0x080173d0       0x10 c:/program files (x86)/gnu tools arm embedded/4.8 2013q4/bin/../lib/gcc/arm-none-eabi/4.8.3/../../../../arm-none-eabi/lib/armv7e-m\libstdc++.a(string-inst.o)
                0x080173d0                std::basic_string<char, std::char_traits<char>, std::allocator<char> >::basic_string(std::string&&)
                0x080173d0                std::basic_string<char, std::char_traits<char>, std::allocator<char> >::basic_string(std::string&&)
 .text._ZNKSs5beginEv
                0x080173e0        0x4 c:/program files (x86)/gnu tools arm embedded/4.8 2013q4/bin/../lib/gcc/arm-none-eabi/4.8.3/../../../../arm-none-eabi/lib/armv7e-m\libstdc++.a(string-inst.o)
                0x080173e0                std::string::begin() const
 .text._ZNKSs3endEv
                0x080173e4        0xc c:/program files (x86)/gnu tools arm embedded/4.8 2013q4/bin/../lib/gcc/arm-none-eabi/4.8.3/../../../../arm-none-eabi/lib/armv7e-m\libstdc++.a(string-inst.o)
                0x080173e4                std::string::end() const
 .text._ZNKSs6rbeginEv
                0x080173f0        0xc c:/program files (x86)/gnu tools arm embedded/4.8 2013q4/bin/../lib/gcc/arm-none-eabi/4.8.3/../../../../arm-none-eabi/lib/armv7e-m\libstdc++.a(string-inst.o)
                0x080173f0                std::string::rbegin() const
 .text._ZNKSs4rendEv
                0x080173fc        0x8 c:/program files (x86)/gnu tools arm embedded/4.8 2013q4/bin/../lib/gcc/arm-none-eabi/4.8.3/../../../../arm-none-eabi/lib/armv7e-m\libstdc++.a(string-inst.o)
                0x080173fc                std::string::rend() const
 .text._ZNKSs6cbeginEv
                0x08017404        0x4 c:/program files (x86)/gnu tools arm embedded/4.8 2013q4/bin/../lib/gcc/arm-none-eabi/4.8.3/../../../../arm-none-eabi/lib/armv7e-m\libstdc++.a(string-inst.o)
                0x08017404                std::string::cbegin() const
 .text._ZNKSs4cendEv
                0x08017408        0xc c:/program files (x86)/gnu tools arm embedded/4.8 2013q4/bin/../lib/gcc/arm-none-eabi/4.8.3/../../../../arm-none-eabi/lib/armv7e-m\libstdc++.a(string-inst.o)
                0x08017408                std::string::cend() const
 .text._ZNKSs7crbeginEv
                0x08017414        0xc c:/program files (x86)/gnu tools arm embedded/4.8 2013q4/bin/../lib/gcc/arm-none-eabi/4.8.3/../../../../arm-none-eabi/lib/armv7e-m\libstdc++.a(string-inst.o)
                0x08017414                std::string::crbegin() const
 .text._ZNKSs5crendEv
                0x08017420        0x8 c:/program files (x86)/gnu tools arm embedded/4.8 2013q4/bin/../lib/gcc/arm-none-eabi/4.8.3/../../../../arm-none-eabi/lib/armv7e-m\libstdc++.a(string-inst.o)
                0x08017420                std::string::crend() const
 .text._ZNKSs4sizeEv
                0x08017428        0x8 c:/program files (x86)/gnu tools arm embedded/4.8 2013q4/bin/../lib/gcc/arm-none-eabi/4.8.3/../../../../arm-none-eabi/lib/armv7e-m\libstdc++.a(string-inst.o)
                0x08017428                std::string::size() const
 .text._ZNKSs8max_sizeEv
                0x08017430        0x8 c:/program files (x86)/gnu tools arm embedded/4.8 2013q4/bin/../lib/gcc/arm-none-eabi/4.8.3/../../../../arm-none-eabi/lib/armv7e-m\libstdc++.a(string-inst.o)
                0x08017430                std::string::max_size() const
 .text._ZNKSs8capacityEv
                0x08017438        0x8 c:/program files (x86)/gnu tools arm embedded/4.8 2013q4/bin/../lib/gcc/arm-none-eabi/4.8.3/../../../../arm-none-eabi/lib/armv7e-m\libstdc++.a(string-inst.o)
                0x08017438                std::string::capacity() const
 .text._ZNKSs5emptyEv
                0x08017440       0x10 c:/program files (x86)/gnu tools arm embedded/4.8 2013q4/bin/../lib/gcc/arm-none-eabi/4.8.3/../../../../arm-none-eabi/lib/armv7e-m\libstdc++.a(string-inst.o)
                0x08017440                std::string::empty() const
 .text._ZNKSsixEj
                0x08017450        0x8 c:/program files (x86)/gnu tools arm embedded/4.8 2013q4/bin/../lib/gcc/arm-none-eabi/4.8.3/../../../../arm-none-eabi/lib/armv7e-m\libstdc++.a(string-inst.o)
                0x08017450                std::string::operator[](unsigned int) const
 .text._ZNKSs2atEj
                0x08017458       0x1c c:/program files (x86)/gnu tools arm embedded/4.8 2013q4/bin/../lib/gcc/arm-none-eabi/4.8.3/../../../../arm-none-eabi/lib/armv7e-m\libstdc++.a(string-inst.o)
                0x08017458                std::string::at(unsigned int) const
 .text._ZNKSs5frontEv
                0x08017474        0x4 c:/program files (x86)/gnu tools arm embedded/4.8 2013q4/bin/../lib/gcc/arm-none-eabi/4.8.3/../../../../arm-none-eabi/lib/armv7e-m\libstdc++.a(string-inst.o)
                0x08017474                std::string::front() const
 .text._ZNKSs4backEv
                0x08017478        0xc c:/program files (x86)/gnu tools arm embedded/4.8 2013q4/bin/../lib/gcc/arm-none-eabi/4.8.3/../../../../arm-none-eabi/lib/armv7e-m\libstdc++.a(string-inst.o)
                0x08017478                std::string::back() const
 .text._ZNKSs4copyEPcjj
                0x08017484       0x40 c:/program files (x86)/gnu tools arm embedded/4.8 2013q4/bin/../lib/gcc/arm-none-eabi/4.8.3/../../../../arm-none-eabi/lib/armv7e-m\libstdc++.a(string-inst.o)
                0x08017484                std::string::copy(char*, unsigned int, unsigned int) const
 .text._ZNSs4swapERSs
                0x080174c4       0x30 c:/program files (x86)/gnu tools arm embedded/4.8 2013q4/bin/../lib/gcc/arm-none-eabi/4.8.3/../../../../arm-none-eabi/lib/armv7e-m\libstdc++.a(string-inst.o)
                0x080174c4                std::string::swap(std::string&)
 .text._ZNSsaSEOSs
                0x080174f4        0xc c:/program files (x86)/gnu tools arm embedded/4.8 2013q4/bin/../lib/gcc/arm-none-eabi/4.8.3/../../../../arm-none-eabi/lib/armv7e-m\libstdc++.a(string-inst.o)
                0x080174f4                std::string::operator=(std::string&&)
 .text._ZNSs6assignEOSs
                0x08017500        0xc c:/program files (x86)/gnu tools arm embedded/4.8 2013q4/bin/../lib/gcc/arm-none-eabi/4.8.3/../../../../arm-none-eabi/lib/armv7e-m\libstdc++.a(string-inst.o)
                0x08017500                std::string::assign(std::string&&)
 .text._ZNKSs5c_strEv
                0x0801750c        0x4 c:/program files (x86)/gnu tools arm embedded/4.8 2013q4/bin/../lib/gcc/arm-none-eabi/4.8.3/../../../../arm-none-eabi/lib/armv7e-m\libstdc++.a(string-inst.o)
                0x0801750c                std::string::c_str() const
 .text._ZNKSs13get_allocatorEv
                0x08017510        0x4 c:/program files (x86)/gnu tools arm embedded/4.8 2013q4/bin/../lib/gcc/arm-none-eabi/4.8.3/../../../../arm-none-eabi/lib/armv7e-m\libstdc++.a(string-inst.o)
                0x08017510                std::string::get_allocator() const
 .text._ZNKSs4findEPKcjj
                0x08017514       0x68 c:/program files (x86)/gnu tools arm embedded/4.8 2013q4/bin/../lib/gcc/arm-none-eabi/4.8.3/../../../../arm-none-eabi/lib/armv7e-m\libstdc++.a(string-inst.o)
                0x08017514                std::string::find(char const*, unsigned int, unsigned int) const
 .text._ZNKSs4findERKSsj
                0x0801757c       0x10 c:/program files (x86)/gnu tools arm embedded/4.8 2013q4/bin/../lib/gcc/arm-none-eabi/4.8.3/../../../../arm-none-eabi/lib/armv7e-m\libstdc++.a(string-inst.o)
                0x0801757c                std::string::find(std::string const&, unsigned int) const
 .text._ZNKSs4findEPKcj
                0x0801758c       0x1c c:/program files (x86)/gnu tools arm embedded/4.8 2013q4/bin/../lib/gcc/arm-none-eabi/4.8.3/../../../../arm-none-eabi/lib/armv7e-m\libstdc++.a(string-inst.o)
                0x0801758c                std::string::find(char const*, unsigned int) const
 .text._ZNKSs4findEcj
                0x080175a8       0x24 c:/program files (x86)/gnu tools arm embedded/4.8 2013q4/bin/../lib/gcc/arm-none-eabi/4.8.3/../../../../arm-none-eabi/lib/armv7e-m\libstdc++.a(string-inst.o)
                0x080175a8                std::string::find(char, unsigned int) const
 .text._ZNKSs5rfindEPKcjj
                0x080175cc       0x3c c:/program files (x86)/gnu tools arm embedded/4.8 2013q4/bin/../lib/gcc/arm-none-eabi/4.8.3/../../../../arm-none-eabi/lib/armv7e-m\libstdc++.a(string-inst.o)
                0x080175cc                std::string::rfind(char const*, unsigned int, unsigned int) const
 .text._ZNKSs5rfindERKSsj
                0x08017608       0x10 c:/program files (x86)/gnu tools arm embedded/4.8 2013q4/bin/../lib/gcc/arm-none-eabi/4.8.3/../../../../arm-none-eabi/lib/armv7e-m\libstdc++.a(string-inst.o)
                0x08017608                std::string::rfind(std::string const&, unsigned int) const
 .text._ZNKSs5rfindEPKcj
                0x08017618       0x1c c:/program files (x86)/gnu tools arm embedded/4.8 2013q4/bin/../lib/gcc/arm-none-eabi/4.8.3/../../../../arm-none-eabi/lib/armv7e-m\libstdc++.a(string-inst.o)
                0x08017618                std::string::rfind(char const*, unsigned int) const
 .text._ZNKSs5rfindEcj
                0x08017634       0x34 c:/program files (x86)/gnu tools arm embedded/4.8 2013q4/bin/../lib/gcc/arm-none-eabi/4.8.3/../../../../arm-none-eabi/lib/armv7e-m\libstdc++.a(string-inst.o)
                0x08017634                std::string::rfind(char, unsigned int) const
 .text._ZNKSs13find_first_ofEPKcjj
                0x08017668       0x38 c:/program files (x86)/gnu tools arm embedded/4.8 2013q4/bin/../lib/gcc/arm-none-eabi/4.8.3/../../../../arm-none-eabi/lib/armv7e-m\libstdc++.a(string-inst.o)
                0x08017668                std::string::find_first_of(char const*, unsigned int, unsigned int) const
 .text._ZNKSs13find_first_ofERKSsj
                0x080176a0       0x10 c:/program files (x86)/gnu tools arm embedded/4.8 2013q4/bin/../lib/gcc/arm-none-eabi/4.8.3/../../../../arm-none-eabi/lib/armv7e-m\libstdc++.a(string-inst.o)
                0x080176a0                std::string::find_first_of(std::string const&, unsigned int) const
 .text._ZNKSs13find_first_ofEPKcj
                0x080176b0       0x1c c:/program files (x86)/gnu tools arm embedded/4.8 2013q4/bin/../lib/gcc/arm-none-eabi/4.8.3/../../../../arm-none-eabi/lib/armv7e-m\libstdc++.a(string-inst.o)
                0x080176b0                std::string::find_first_of(char const*, unsigned int) const
 .text._ZNKSs13find_first_ofEcj
                0x080176cc        0x8 c:/program files (x86)/gnu tools arm embedded/4.8 2013q4/bin/../lib/gcc/arm-none-eabi/4.8.3/../../../../arm-none-eabi/lib/armv7e-m\libstdc++.a(string-inst.o)
                0x080176cc                std::string::find_first_of(char, unsigned int) const
 .text._ZNKSs12find_last_ofEPKcjj
                0x080176d4       0x3c c:/program files (x86)/gnu tools arm embedded/4.8 2013q4/bin/../lib/gcc/arm-none-eabi/4.8.3/../../../../arm-none-eabi/lib/armv7e-m\libstdc++.a(string-inst.o)
                0x080176d4                std::string::find_last_of(char const*, unsigned int, unsigned int) const
 .text._ZNKSs12find_last_ofERKSsj
                0x08017710       0x10 c:/program files (x86)/gnu tools arm embedded/4.8 2013q4/bin/../lib/gcc/arm-none-eabi/4.8.3/../../../../arm-none-eabi/lib/armv7e-m\libstdc++.a(string-inst.o)
                0x08017710                std::string::find_last_of(std::string const&, unsigned int) const
 .text._ZNKSs12find_last_ofEPKcj
                0x08017720       0x1c c:/program files (x86)/gnu tools arm embedded/4.8 2013q4/bin/../lib/gcc/arm-none-eabi/4.8.3/../../../../arm-none-eabi/lib/armv7e-m\libstdc++.a(string-inst.o)
                0x08017720                std::string::find_last_of(char const*, unsigned int) const
 .text._ZNKSs12find_last_ofEcj
                0x0801773c        0x8 c:/program files (x86)/gnu tools arm embedded/4.8 2013q4/bin/../lib/gcc/arm-none-eabi/4.8.3/../../../../arm-none-eabi/lib/armv7e-m\libstdc++.a(string-inst.o)
                0x0801773c                std::string::find_last_of(char, unsigned int) const
 .text._ZNKSs17find_first_not_ofEPKcjj
                0x08017744       0x38 c:/program files (x86)/gnu tools arm embedded/4.8 2013q4/bin/../lib/gcc/arm-none-eabi/4.8.3/../../../../arm-none-eabi/lib/armv7e-m\libstdc++.a(string-inst.o)
                0x08017744                std::string::find_first_not_of(char const*, unsigned int, unsigned int) const
 .text._ZNKSs17find_first_not_ofERKSsj
                0x0801777c       0x10 c:/program files (x86)/gnu tools arm embedded/4.8 2013q4/bin/../lib/gcc/arm-none-eabi/4.8.3/../../../../arm-none-eabi/lib/armv7e-m\libstdc++.a(string-inst.o)
                0x0801777c                std::string::find_first_not_of(std::string const&, unsigned int) const
 .text._ZNKSs17find_first_not_ofEPKcj
                0x0801778c       0x1c c:/program files (x86)/gnu tools arm embedded/4.8 2013q4/bin/../lib/gcc/arm-none-eabi/4.8.3/../../../../arm-none-eabi/lib/armv7e-m\libstdc++.a(string-inst.o)
                0x0801778c                std::string::find_first_not_of(char const*, unsigned int) const
 .text._ZNKSs17find_first_not_ofEcj
                0x080177a8       0x38 c:/program files (x86)/gnu tools arm embedded/4.8 2013q4/bin/../lib/gcc/arm-none-eabi/4.8.3/../../../../arm-none-eabi/lib/armv7e-m\libstdc++.a(string-inst.o)
                0x080177a8                std::string::find_first_not_of(char, unsigned int) const
 .text._ZNKSs16find_last_not_ofEPKcjj
                0x080177e0       0x40 c:/program files (x86)/gnu tools arm embedded/4.8 2013q4/bin/../lib/gcc/arm-none-eabi/4.8.3/../../../../arm-none-eabi/lib/armv7e-m\libstdc++.a(string-inst.o)
                0x080177e0                std::string::find_last_not_of(char const*, unsigned int, unsigned int) const
 .text._ZNKSs16find_last_not_ofERKSsj
                0x08017820       0x10 c:/program files (x86)/gnu tools arm embedded/4.8 2013q4/bin/../lib/gcc/arm-none-eabi/4.8.3/../../../../arm-none-eabi/lib/armv7e-m\libstdc++.a(string-inst.o)
                0x08017820                std::string::find_last_not_of(std::string const&, unsigned int) const
 .text._ZNKSs16find_last_not_ofEPKcj
                0x08017830       0x1c c:/program files (x86)/gnu tools arm embedded/4.8 2013q4/bin/../lib/gcc/arm-none-eabi/4.8.3/../../../../arm-none-eabi/lib/armv7e-m\libstdc++.a(string-inst.o)
                0x08017830                std::string::find_last_not_of(char const*, unsigned int) const
 .text._ZNKSs16find_last_not_ofEcj
                0x0801784c       0x34 c:/program files (x86)/gnu tools arm embedded/4.8 2013q4/bin/../lib/gcc/arm-none-eabi/4.8.3/../../../../arm-none-eabi/lib/armv7e-m\libstdc++.a(string-inst.o)
                0x0801784c                std::string::find_last_not_of(char, unsigned int) const
 .text._ZNKSs7compareERKSs
                0x08017880       0x20 c:/program files (x86)/gnu tools arm embedded/4.8 2013q4/bin/../lib/gcc/arm-none-eabi/4.8.3/../../../../arm-none-eabi/lib/armv7e-m\libstdc++.a(string-inst.o)
                0x08017880                std::string::compare(std::string const&) const
 .text._ZNKSs7compareEjjRKSs
                0x080178a0       0x3c c:/program files (x86)/gnu tools arm embedded/4.8 2013q4/bin/../lib/gcc/arm-none-eabi/4.8.3/../../../../arm-none-eabi/lib/armv7e-m\libstdc++.a(string-inst.o)
                0x080178a0                std::string::compare(unsigned int, unsigned int, std::string const&) const
 .text._ZNKSs7compareEjjRKSsjj
                0x080178dc       0x4c c:/program files (x86)/gnu tools arm embedded/4.8 2013q4/bin/../lib/gcc/arm-none-eabi/4.8.3/../../../../arm-none-eabi/lib/armv7e-m\libstdc++.a(string-inst.o)
                0x080178dc                std::string::compare(unsigned int, unsigned int, std::string const&, unsigned int, unsigned int) const
 .text._ZNKSs7compareEPKc
                0x08017928       0x28 c:/program files (x86)/gnu tools arm embedded/4.8 2013q4/bin/../lib/gcc/arm-none-eabi/4.8.3/../../../../arm-none-eabi/lib/armv7e-m\libstdc++.a(string-inst.o)
                0x08017928                std::string::compare(char const*) const
 .text._ZNKSs7compareEjjPKc
                0x08017950       0x48 c:/program files (x86)/gnu tools arm embedded/4.8 2013q4/bin/../lib/gcc/arm-none-eabi/4.8.3/../../../../arm-none-eabi/lib/armv7e-m\libstdc++.a(string-inst.o)
                0x08017950                std::string::compare(unsigned int, unsigned int, char const*) const
 .text._ZNKSs7compareEjjPKcj
                0x08017998       0x38 c:/program files (x86)/gnu tools arm embedded/4.8 2013q4/bin/../lib/gcc/arm-none-eabi/4.8.3/../../../../arm-none-eabi/lib/armv7e-m\libstdc++.a(string-inst.o)
                0x08017998                std::string::compare(unsigned int, unsigned int, char const*, unsigned int) const
 .text._ZNSs12_Alloc_hiderC2EPcRKSaIcE
                0x080179d0        0x4 c:/program files (x86)/gnu tools arm embedded/4.8 2013q4/bin/../lib/gcc/arm-none-eabi/4.8.3/../../../../arm-none-eabi/lib/armv7e-m\libstdc++.a(string-inst.o)
                0x080179d0                std::string::_Alloc_hider::_Alloc_hider(char*, std::allocator<char> const&)
                0x080179d0                std::string::_Alloc_hider::_Alloc_hider(char*, std::allocator<char> const&)
 .text._ZNSs4_Rep12_S_empty_repEv
                0x080179d4        0x8 c:/program files (x86)/gnu tools arm embedded/4.8 2013q4/bin/../lib/gcc/arm-none-eabi/4.8.3/../../../../arm-none-eabi/lib/armv7e-m\libstdc++.a(string-inst.o)
                0x080179d4                std::string::_Rep::_S_empty_rep()
 .text._ZNKSs4_Rep12_M_is_leakedEv
                0x080179dc        0x8 c:/program files (x86)/gnu tools arm embedded/4.8 2013q4/bin/../lib/gcc/arm-none-eabi/4.8.3/../../../../arm-none-eabi/lib/armv7e-m\libstdc++.a(string-inst.o)
                0x080179dc                std::string::_Rep::_M_is_leaked() const
 .text._ZNKSs4_Rep12_M_is_sharedEv
                0x080179e4        0xc c:/program files (x86)/gnu tools arm embedded/4.8 2013q4/bin/../lib/gcc/arm-none-eabi/4.8.3/../../../../arm-none-eabi/lib/armv7e-m\libstdc++.a(string-inst.o)
                0x080179e4                std::string::_Rep::_M_is_shared() const
 .text._ZNSs4_Rep13_M_set_leakedEv
                0x080179f0        0x8 c:/program files (x86)/gnu tools arm embedded/4.8 2013q4/bin/../lib/gcc/arm-none-eabi/4.8.3/../../../../arm-none-eabi/lib/armv7e-m\libstdc++.a(string-inst.o)
                0x080179f0                std::string::_Rep::_M_set_leaked()
 .text._ZNSs4_Rep15_M_set_sharableEv
                0x080179f8        0x8 c:/program files (x86)/gnu tools arm embedded/4.8 2013q4/bin/../lib/gcc/arm-none-eabi/4.8.3/../../../../arm-none-eabi/lib/armv7e-m\libstdc++.a(string-inst.o)
                0x080179f8                std::string::_Rep::_M_set_sharable()
 .text._ZNSs4_Rep26_M_set_length_and_sharableEj
                0x08017a00       0x18 c:/program files (x86)/gnu tools arm embedded/4.8 2013q4/bin/../lib/gcc/arm-none-eabi/4.8.3/../../../../arm-none-eabi/lib/armv7e-m\libstdc++.a(string-inst.o)
                0x08017a00                std::string::_Rep::_M_set_length_and_sharable(unsigned int)
 .text._ZNSs4_Rep10_M_refdataEv
                0x08017a18        0x4 c:/program files (x86)/gnu tools arm embedded/4.8 2013q4/bin/../lib/gcc/arm-none-eabi/4.8.3/../../../../arm-none-eabi/lib/armv7e-m\libstdc++.a(string-inst.o)
                0x08017a18                std::string::_Rep::_M_refdata()
 .text._ZNSs4_Rep9_S_createEjjRKSaIcE
                0x08017a1c       0x58 c:/program files (x86)/gnu tools arm embedded/4.8 2013q4/bin/../lib/gcc/arm-none-eabi/4.8.3/../../../../arm-none-eabi/lib/armv7e-m\libstdc++.a(string-inst.o)
                0x08017a1c                std::string::_Rep::_S_create(unsigned int, unsigned int, std::allocator<char> const&)
 .text._ZNSs12_S_constructEjcRKSaIcE
                0x08017a74       0x48 c:/program files (x86)/gnu tools arm embedded/4.8 2013q4/bin/../lib/gcc/arm-none-eabi/4.8.3/../../../../arm-none-eabi/lib/armv7e-m\libstdc++.a(string-inst.o)
                0x08017a74                std::string::_S_construct(unsigned int, char, std::allocator<char> const&)
 .text._ZNSsC2ERKSaIcE
                0x08017abc       0x14 c:/program files (x86)/gnu tools arm embedded/4.8 2013q4/bin/../lib/gcc/arm-none-eabi/4.8.3/../../../../arm-none-eabi/lib/armv7e-m\libstdc++.a(string-inst.o)
                0x08017abc                std::basic_string<char, std::char_traits<char>, std::allocator<char> >::basic_string(std::allocator<char> const&)
                0x08017abc                std::basic_string<char, std::char_traits<char>, std::allocator<char> >::basic_string(std::allocator<char> const&)
 .text._ZNSsC2EjcRKSaIcE
                0x08017ad0       0x14 c:/program files (x86)/gnu tools arm embedded/4.8 2013q4/bin/../lib/gcc/arm-none-eabi/4.8.3/../../../../arm-none-eabi/lib/armv7e-m\libstdc++.a(string-inst.o)
                0x08017ad0                std::basic_string<char, std::char_traits<char>, std::allocator<char> >::basic_string(unsigned int, char, std::allocator<char> const&)
                0x08017ad0                std::basic_string<char, std::char_traits<char>, std::allocator<char> >::basic_string(unsigned int, char, std::allocator<char> const&)
 .text._ZNSs18_S_construct_aux_2EjcRKSaIcE
                0x08017ae4        0x8 c:/program files (x86)/gnu tools arm embedded/4.8 2013q4/bin/../lib/gcc/arm-none-eabi/4.8.3/../../../../arm-none-eabi/lib/armv7e-m\libstdc++.a(string-inst.o)
                0x08017ae4                std::string::_S_construct_aux_2(unsigned int, char, std::allocator<char> const&)
 .text._ZNSs4_Rep10_M_destroyERKSaIcE
                0x08017aec        0x4 c:/program files (x86)/gnu tools arm embedded/4.8 2013q4/bin/../lib/gcc/arm-none-eabi/4.8.3/../../../../arm-none-eabi/lib/armv7e-m\libstdc++.a(string-inst.o)
                0x08017aec                std::string::_Rep::_M_destroy(std::allocator<char> const&)
 .text.unlikely._ZNSs4_Rep10_M_disposeERKSaIcE.part.11
                0x08017af0       0x14 c:/program files (x86)/gnu tools arm embedded/4.8 2013q4/bin/../lib/gcc/arm-none-eabi/4.8.3/../../../../arm-none-eabi/lib/armv7e-m\libstdc++.a(string-inst.o)
 .text._ZNSs4_Rep10_M_disposeERKSaIcE
                0x08017b04       0x10 c:/program files (x86)/gnu tools arm embedded/4.8 2013q4/bin/../lib/gcc/arm-none-eabi/4.8.3/../../../../arm-none-eabi/lib/armv7e-m\libstdc++.a(string-inst.o)
                0x08017b04                std::string::_Rep::_M_dispose(std::allocator<char> const&)
 .text._ZNSsD2Ev
                0x08017b14       0x24 c:/program files (x86)/gnu tools arm embedded/4.8 2013q4/bin/../lib/gcc/arm-none-eabi/4.8.3/../../../../arm-none-eabi/lib/armv7e-m\libstdc++.a(string-inst.o)
                0x08017b14                std::basic_string<char, std::char_traits<char>, std::allocator<char> >::~basic_string()
                0x08017b14                std::basic_string<char, std::char_traits<char>, std::allocator<char> >::~basic_string()
 .text._ZNSs9_M_mutateEjjj
                0x08017b38       0xf4 c:/program files (x86)/gnu tools arm embedded/4.8 2013q4/bin/../lib/gcc/arm-none-eabi/4.8.3/../../../../arm-none-eabi/lib/armv7e-m\libstdc++.a(string-inst.o)
                0x08017b38                std::string::_M_mutate(unsigned int, unsigned int, unsigned int)
 .text._ZNSs12_M_leak_hardEv
                0x08017c2c       0x30 c:/program files (x86)/gnu tools arm embedded/4.8 2013q4/bin/../lib/gcc/arm-none-eabi/4.8.3/../../../../arm-none-eabi/lib/armv7e-m\libstdc++.a(string-inst.o)
                0x08017c2c                std::string::_M_leak_hard()
 .text._ZNSs7_M_leakEv
                0x08017c5c       0x14 c:/program files (x86)/gnu tools arm embedded/4.8 2013q4/bin/../lib/gcc/arm-none-eabi/4.8.3/../../../../arm-none-eabi/lib/armv7e-m\libstdc++.a(string-inst.o)
                0x08017c5c                std::string::_M_leak()
 .text._ZNSs5beginEv
                0x08017c70       0x18 c:/program files (x86)/gnu tools arm embedded/4.8 2013q4/bin/../lib/gcc/arm-none-eabi/4.8.3/../../../../arm-none-eabi/lib/armv7e-m\libstdc++.a(string-inst.o)
                0x08017c70                std::string::begin()
 .text._ZNSs4rendEv
                0x08017c88       0x20 c:/program files (x86)/gnu tools arm embedded/4.8 2013q4/bin/../lib/gcc/arm-none-eabi/4.8.3/../../../../arm-none-eabi/lib/armv7e-m\libstdc++.a(string-inst.o)
                0x08017c88                std::string::rend()
 .text._ZNSs3endEv
                0x08017ca8       0x1c c:/program files (x86)/gnu tools arm embedded/4.8 2013q4/bin/../lib/gcc/arm-none-eabi/4.8.3/../../../../arm-none-eabi/lib/armv7e-m\libstdc++.a(string-inst.o)
                0x08017ca8                std::string::end()
 .text._ZNSsixEj
                0x08017cc4       0x1c c:/program files (x86)/gnu tools arm embedded/4.8 2013q4/bin/../lib/gcc/arm-none-eabi/4.8.3/../../../../arm-none-eabi/lib/armv7e-m\libstdc++.a(string-inst.o)
                0x08017cc4                std::string::operator[](unsigned int)
 .text._ZNSs5frontEv
                0x08017ce0       0x18 c:/program files (x86)/gnu tools arm embedded/4.8 2013q4/bin/../lib/gcc/arm-none-eabi/4.8.3/../../../../arm-none-eabi/lib/armv7e-m\libstdc++.a(string-inst.o)
                0x08017ce0                std::string::front()
 .text._ZNSs4backEv
                0x08017cf8       0x20 c:/program files (x86)/gnu tools arm embedded/4.8 2013q4/bin/../lib/gcc/arm-none-eabi/4.8.3/../../../../arm-none-eabi/lib/armv7e-m\libstdc++.a(string-inst.o)
                0x08017cf8                std::string::back()
 .text._ZNSs2atEj
                0x08017d18       0x2c c:/program files (x86)/gnu tools arm embedded/4.8 2013q4/bin/../lib/gcc/arm-none-eabi/4.8.3/../../../../arm-none-eabi/lib/armv7e-m\libstdc++.a(string-inst.o)
                0x08017d18                std::string::at(unsigned int)
 .text._ZNSs6rbeginEv
                0x08017d44       0x24 c:/program files (x86)/gnu tools arm embedded/4.8 2013q4/bin/../lib/gcc/arm-none-eabi/4.8.3/../../../../arm-none-eabi/lib/armv7e-m\libstdc++.a(string-inst.o)
                0x08017d44                std::string::rbegin()
 .text._ZNSs5clearEv
                0x08017d68       0x14 c:/program files (x86)/gnu tools arm embedded/4.8 2013q4/bin/../lib/gcc/arm-none-eabi/4.8.3/../../../../arm-none-eabi/lib/armv7e-m\libstdc++.a(string-inst.o)
                0x08017d68                std::string::clear()
 .text._ZNSs5eraseEjj
                0x08017d7c       0x2c c:/program files (x86)/gnu tools arm embedded/4.8 2013q4/bin/../lib/gcc/arm-none-eabi/4.8.3/../../../../arm-none-eabi/lib/armv7e-m\libstdc++.a(string-inst.o)
                0x08017d7c                std::string::erase(unsigned int, unsigned int)
 .text._ZNSs5eraseEN9__gnu_cxx17__normal_iteratorIPcSsEE
                0x08017da8       0x20 c:/program files (x86)/gnu tools arm embedded/4.8 2013q4/bin/../lib/gcc/arm-none-eabi/4.8.3/../../../../arm-none-eabi/lib/armv7e-m\libstdc++.a(string-inst.o)
                0x08017da8                std::string::erase(__gnu_cxx::__normal_iterator<char*, std::string>)
 .text._ZNSs5eraseEN9__gnu_cxx17__normal_iteratorIPcSsEES2_
                0x08017dc8       0x28 c:/program files (x86)/gnu tools arm embedded/4.8 2013q4/bin/../lib/gcc/arm-none-eabi/4.8.3/../../../../arm-none-eabi/lib/armv7e-m\libstdc++.a(string-inst.o)
                0x08017dc8                std::string::erase(__gnu_cxx::__normal_iterator<char*, std::string>, __gnu_cxx::__normal_iterator<char*, std::string>)
 .text._ZNSs14_M_replace_auxEjjjc
                0x08017df0       0x54 c:/program files (x86)/gnu tools arm embedded/4.8 2013q4/bin/../lib/gcc/arm-none-eabi/4.8.3/../../../../arm-none-eabi/lib/armv7e-m\libstdc++.a(string-inst.o)
                0x08017df0                std::string::_M_replace_aux(unsigned int, unsigned int, unsigned int, char)
 .text._ZNSs6assignEjc
                0x08017e44       0x1c c:/program files (x86)/gnu tools arm embedded/4.8 2013q4/bin/../lib/gcc/arm-none-eabi/4.8.3/../../../../arm-none-eabi/lib/armv7e-m\libstdc++.a(string-inst.o)
                0x08017e44                std::string::assign(unsigned int, char)
 .text._ZNSsaSEc
                0x08017e60       0x1c c:/program files (x86)/gnu tools arm embedded/4.8 2013q4/bin/../lib/gcc/arm-none-eabi/4.8.3/../../../../arm-none-eabi/lib/armv7e-m\libstdc++.a(string-inst.o)
                0x08017e60                std::string::operator=(char)
 .text._ZNSs6insertEjjc
                0x08017e7c       0x28 c:/program files (x86)/gnu tools arm embedded/4.8 2013q4/bin/../lib/gcc/arm-none-eabi/4.8.3/../../../../arm-none-eabi/lib/armv7e-m\libstdc++.a(string-inst.o)
                0x08017e7c                std::string::insert(unsigned int, unsigned int, char)
 .text._ZNSs6insertEN9__gnu_cxx17__normal_iteratorIPcSsEEc
                0x08017ea4       0x28 c:/program files (x86)/gnu tools arm embedded/4.8 2013q4/bin/../lib/gcc/arm-none-eabi/4.8.3/../../../../arm-none-eabi/lib/armv7e-m\libstdc++.a(string-inst.o)
                0x08017ea4                std::string::insert(__gnu_cxx::__normal_iterator<char*, std::string>, char)
 .text._ZNSs7replaceEjjjc
                0x08017ecc       0x30 c:/program files (x86)/gnu tools arm embedded/4.8 2013q4/bin/../lib/gcc/arm-none-eabi/4.8.3/../../../../arm-none-eabi/lib/armv7e-m\libstdc++.a(string-inst.o)
                0x08017ecc                std::string::replace(unsigned int, unsigned int, unsigned int, char)
 .text._ZNSs7replaceEN9__gnu_cxx17__normal_iteratorIPcSsEES2_jc
                0x08017efc       0x18 c:/program files (x86)/gnu tools arm embedded/4.8 2013q4/bin/../lib/gcc/arm-none-eabi/4.8.3/../../../../arm-none-eabi/lib/armv7e-m\libstdc++.a(string-inst.o)
                0x08017efc                std::string::replace(__gnu_cxx::__normal_iterator<char*, std::string>, __gnu_cxx::__normal_iterator<char*, std::string>, unsigned int, char)
 .text._ZNSs6insertEN9__gnu_cxx17__normal_iteratorIPcSsEEjc
                0x08017f14       0x18 c:/program files (x86)/gnu tools arm embedded/4.8 2013q4/bin/../lib/gcc/arm-none-eabi/4.8.3/../../../../arm-none-eabi/lib/armv7e-m\libstdc++.a(string-inst.o)
                0x08017f14                std::string::insert(__gnu_cxx::__normal_iterator<char*, std::string>, unsigned int, char)
 .text._ZNSs15_M_replace_safeEjjPKcj
                0x08017f2c       0x30 c:/program files (x86)/gnu tools arm embedded/4.8 2013q4/bin/../lib/gcc/arm-none-eabi/4.8.3/../../../../arm-none-eabi/lib/armv7e-m\libstdc++.a(string-inst.o)
                0x08017f2c                std::string::_M_replace_safe(unsigned int, unsigned int, char const*, unsigned int)
 .text._ZNSs6assignEPKcj
                0x08017f5c       0x90 c:/program files (x86)/gnu tools arm embedded/4.8 2013q4/bin/../lib/gcc/arm-none-eabi/4.8.3/../../../../arm-none-eabi/lib/armv7e-m\libstdc++.a(string-inst.o)
                0x08017f5c                std::string::assign(char const*, unsigned int)
 .text._ZNSsaSESt16initializer_listIcE
                0x08017fec       0x1c c:/program files (x86)/gnu tools arm embedded/4.8 2013q4/bin/../lib/gcc/arm-none-eabi/4.8.3/../../../../arm-none-eabi/lib/armv7e-m\libstdc++.a(string-inst.o)
                0x08017fec                std::string::operator=(std::initializer_list<char>)
 .text._ZNSs6assignERKSsjj
                0x08018008       0x28 c:/program files (x86)/gnu tools arm embedded/4.8 2013q4/bin/../lib/gcc/arm-none-eabi/4.8.3/../../../../arm-none-eabi/lib/armv7e-m\libstdc++.a(string-inst.o)
                0x08018008                std::string::assign(std::string const&, unsigned int, unsigned int)
 .text._ZNSs6assignEPKc
                0x08018030       0x18 c:/program files (x86)/gnu tools arm embedded/4.8 2013q4/bin/../lib/gcc/arm-none-eabi/4.8.3/../../../../arm-none-eabi/lib/armv7e-m\libstdc++.a(string-inst.o)
                0x08018030                std::string::assign(char const*)
 .text._ZNSs6assignESt16initializer_listIcE
                0x08018048       0x18 c:/program files (x86)/gnu tools arm embedded/4.8 2013q4/bin/../lib/gcc/arm-none-eabi/4.8.3/../../../../arm-none-eabi/lib/armv7e-m\libstdc++.a(string-inst.o)
                0x08018048                std::string::assign(std::initializer_list<char>)
 .text._ZNSsaSEPKc
                0x08018060       0x18 c:/program files (x86)/gnu tools arm embedded/4.8 2013q4/bin/../lib/gcc/arm-none-eabi/4.8.3/../../../../arm-none-eabi/lib/armv7e-m\libstdc++.a(string-inst.o)
                0x08018060                std::string::operator=(char const*)
 .text._ZNSs6insertEjPKcj
                0x08018078       0xec c:/program files (x86)/gnu tools arm embedded/4.8 2013q4/bin/../lib/gcc/arm-none-eabi/4.8.3/../../../../arm-none-eabi/lib/armv7e-m\libstdc++.a(string-inst.o)
                0x08018078                std::string::insert(unsigned int, char const*, unsigned int)
 .text._ZNSs6insertEN9__gnu_cxx17__normal_iteratorIPcSsEESt16initializer_listIcE
                0x08018164       0x1c c:/program files (x86)/gnu tools arm embedded/4.8 2013q4/bin/../lib/gcc/arm-none-eabi/4.8.3/../../../../arm-none-eabi/lib/armv7e-m\libstdc++.a(string-inst.o)
                0x08018164                std::string::insert(__gnu_cxx::__normal_iterator<char*, std::string>, std::initializer_list<char>)
 .text._ZNSs6insertEjRKSsjj
                0x08018180       0x2c c:/program files (x86)/gnu tools arm embedded/4.8 2013q4/bin/../lib/gcc/arm-none-eabi/4.8.3/../../../../arm-none-eabi/lib/armv7e-m\libstdc++.a(string-inst.o)
                0x08018180                std::string::insert(unsigned int, std::string const&, unsigned int, unsigned int)
 .text._ZNSs6insertEjPKc
                0x080181ac       0x1c c:/program files (x86)/gnu tools arm embedded/4.8 2013q4/bin/../lib/gcc/arm-none-eabi/4.8.3/../../../../arm-none-eabi/lib/armv7e-m\libstdc++.a(string-inst.o)
                0x080181ac                std::string::insert(unsigned int, char const*)
 .text._ZNSs6insertEjRKSs
                0x080181c8       0x10 c:/program files (x86)/gnu tools arm embedded/4.8 2013q4/bin/../lib/gcc/arm-none-eabi/4.8.3/../../../../arm-none-eabi/lib/armv7e-m\libstdc++.a(string-inst.o)
                0x080181c8                std::string::insert(unsigned int, std::string const&)
 .text._ZNSs8pop_backEv
                0x080181d8       0x24 c:/program files (x86)/gnu tools arm embedded/4.8 2013q4/bin/../lib/gcc/arm-none-eabi/4.8.3/../../../../arm-none-eabi/lib/armv7e-m\libstdc++.a(string-inst.o)
                0x080181d8                std::string::pop_back()
 .text._ZNSs4_Rep10_M_refcopyEv
                0x080181fc       0x18 c:/program files (x86)/gnu tools arm embedded/4.8 2013q4/bin/../lib/gcc/arm-none-eabi/4.8.3/../../../../arm-none-eabi/lib/armv7e-m\libstdc++.a(string-inst.o)
                0x080181fc                std::string::_Rep::_M_refcopy()
 .text._ZNSs4_Rep8_M_cloneERKSaIcEj
                0x08018214       0x50 c:/program files (x86)/gnu tools arm embedded/4.8 2013q4/bin/../lib/gcc/arm-none-eabi/4.8.3/../../../../arm-none-eabi/lib/armv7e-m\libstdc++.a(string-inst.o)
                0x08018214                std::string::_Rep::_M_clone(std::allocator<char> const&, unsigned int)
 .text._ZNSs7reserveEj
                0x08018264       0x54 c:/program files (x86)/gnu tools arm embedded/4.8 2013q4/bin/../lib/gcc/arm-none-eabi/4.8.3/../../../../arm-none-eabi/lib/armv7e-m\libstdc++.a(string-inst.o)
                0x08018264                std::string::reserve(unsigned int)
 .text._ZNSs13shrink_to_fitEv
                0x080182b8       0x28 c:/program files (x86)/gnu tools arm embedded/4.8 2013q4/bin/../lib/gcc/arm-none-eabi/4.8.3/../../../../arm-none-eabi/lib/armv7e-m\libstdc++.a(string-inst.o)
                0x080182b8                std::string::shrink_to_fit()
 .text._ZNSs6appendERKSs
                0x080182e0       0x74 c:/program files (x86)/gnu tools arm embedded/4.8 2013q4/bin/../lib/gcc/arm-none-eabi/4.8.3/../../../../arm-none-eabi/lib/armv7e-m\libstdc++.a(string-inst.o)
                0x080182e0                std::string::append(std::string const&)
 .text._ZNSspLERKSs
                0x08018354        0x8 c:/program files (x86)/gnu tools arm embedded/4.8 2013q4/bin/../lib/gcc/arm-none-eabi/4.8.3/../../../../arm-none-eabi/lib/armv7e-m\libstdc++.a(string-inst.o)
                0x08018354                std::string::operator+=(std::string const&)
 .text._ZNSs6appendERKSsjj
                0x0801835c       0x90 c:/program files (x86)/gnu tools arm embedded/4.8 2013q4/bin/../lib/gcc/arm-none-eabi/4.8.3/../../../../arm-none-eabi/lib/armv7e-m\libstdc++.a(string-inst.o)
                0x0801835c                std::string::append(std::string const&, unsigned int, unsigned int)
 .text._ZNSs6appendEPKcj
                0x080183ec       0xa0 c:/program files (x86)/gnu tools arm embedded/4.8 2013q4/bin/../lib/gcc/arm-none-eabi/4.8.3/../../../../arm-none-eabi/lib/armv7e-m\libstdc++.a(string-inst.o)
                0x080183ec                std::string::append(char const*, unsigned int)
 .text._ZNSspLESt16initializer_listIcE
                0x0801848c       0x18 c:/program files (x86)/gnu tools arm embedded/4.8 2013q4/bin/../lib/gcc/arm-none-eabi/4.8.3/../../../../arm-none-eabi/lib/armv7e-m\libstdc++.a(string-inst.o)
                0x0801848c                std::string::operator+=(std::initializer_list<char>)
 .text._ZNSs6appendEPKc
                0x080184a4       0x18 c:/program files (x86)/gnu tools arm embedded/4.8 2013q4/bin/../lib/gcc/arm-none-eabi/4.8.3/../../../../arm-none-eabi/lib/armv7e-m\libstdc++.a(string-inst.o)
                0x080184a4                std::string::append(char const*)
 .text._ZNSs6appendESt16initializer_listIcE
                0x080184bc       0x18 c:/program files (x86)/gnu tools arm embedded/4.8 2013q4/bin/../lib/gcc/arm-none-eabi/4.8.3/../../../../arm-none-eabi/lib/armv7e-m\libstdc++.a(string-inst.o)
                0x080184bc                std::string::append(std::initializer_list<char>)
 .text._ZNSspLEPKc
                0x080184d4       0x18 c:/program files (x86)/gnu tools arm embedded/4.8 2013q4/bin/../lib/gcc/arm-none-eabi/4.8.3/../../../../arm-none-eabi/lib/armv7e-m\libstdc++.a(string-inst.o)
                0x080184d4                std::string::operator+=(char const*)
 .text._ZNSs6appendEjc
                0x080184ec       0x80 c:/program files (x86)/gnu tools arm embedded/4.8 2013q4/bin/../lib/gcc/arm-none-eabi/4.8.3/../../../../arm-none-eabi/lib/armv7e-m\libstdc++.a(string-inst.o)
                0x080184ec                std::string::append(unsigned int, char)
 .text._ZNSs6resizeEjc
                0x0801856c       0x38 c:/program files (x86)/gnu tools arm embedded/4.8 2013q4/bin/../lib/gcc/arm-none-eabi/4.8.3/../../../../arm-none-eabi/lib/armv7e-m\libstdc++.a(string-inst.o)
                0x0801856c                std::string::resize(unsigned int, char)
 .text._ZNSs6resizeEj
                0x080185a4        0xc c:/program files (x86)/gnu tools arm embedded/4.8 2013q4/bin/../lib/gcc/arm-none-eabi/4.8.3/../../../../arm-none-eabi/lib/armv7e-m\libstdc++.a(string-inst.o)
                0x080185a4                std::string::resize(unsigned int)
 .text._ZNSs9push_backEc
                0x080185b0       0x4c c:/program files (x86)/gnu tools arm embedded/4.8 2013q4/bin/../lib/gcc/arm-none-eabi/4.8.3/../../../../arm-none-eabi/lib/armv7e-m\libstdc++.a(string-inst.o)
                0x080185b0                std::string::push_back(char)
 .text._ZNSspLEc
                0x080185fc       0x4c c:/program files (x86)/gnu tools arm embedded/4.8 2013q4/bin/../lib/gcc/arm-none-eabi/4.8.3/../../../../arm-none-eabi/lib/armv7e-m\libstdc++.a(string-inst.o)
                0x080185fc                std::string::operator+=(char)
 .text._ZNSs4_Rep7_M_grabERKSaIcES2_
                0x08018648       0x24 c:/program files (x86)/gnu tools arm embedded/4.8 2013q4/bin/../lib/gcc/arm-none-eabi/4.8.3/../../../../arm-none-eabi/lib/armv7e-m\libstdc++.a(string-inst.o)
                0x08018648                std::string::_Rep::_M_grab(std::allocator<char> const&, std::allocator<char> const&)
 .text._ZNSsC2ERKSs
                0x0801866c       0x40 c:/program files (x86)/gnu tools arm embedded/4.8 2013q4/bin/../lib/gcc/arm-none-eabi/4.8.3/../../../../arm-none-eabi/lib/armv7e-m\libstdc++.a(string-inst.o)
                0x0801866c                std::basic_string<char, std::char_traits<char>, std::allocator<char> >::basic_string(std::string const&)
                0x0801866c                std::basic_string<char, std::char_traits<char>, std::allocator<char> >::basic_string(std::string const&)
 .text._ZNSs6assignERKSs
                0x080186ac       0x58 c:/program files (x86)/gnu tools arm embedded/4.8 2013q4/bin/../lib/gcc/arm-none-eabi/4.8.3/../../../../arm-none-eabi/lib/armv7e-m\libstdc++.a(string-inst.o)
                0x080186ac                std::string::assign(std::string const&)
 .text._ZNSsaSERKSs
                0x08018704        0x8 c:/program files (x86)/gnu tools arm embedded/4.8 2013q4/bin/../lib/gcc/arm-none-eabi/4.8.3/../../../../arm-none-eabi/lib/armv7e-m\libstdc++.a(string-inst.o)
                0x08018704                std::string::operator=(std::string const&)
 .text._ZStplIcSt11char_traitsIcESaIcEESbIT_T0_T1_EPKS3_RKS6_
                0x0801870c       0x58 c:/program files (x86)/gnu tools arm embedded/4.8 2013q4/bin/../lib/gcc/arm-none-eabi/4.8.3/../../../../arm-none-eabi/lib/armv7e-m\libstdc++.a(string-inst.o)
                0x0801870c                std::basic_string<char, std::char_traits<char>, std::allocator<char> > std::operator+<char, std::char_traits<char>, std::allocator<char> >(char const*, std::basic_string<char, std::char_traits<char>, std::allocator<char> > const&)
 .text._ZStplIcSt11char_traitsIcESaIcEESbIT_T0_T1_ES3_RKS6_
                0x08018764       0x50 c:/program files (x86)/gnu tools arm embedded/4.8 2013q4/bin/../lib/gcc/arm-none-eabi/4.8.3/../../../../arm-none-eabi/lib/armv7e-m\libstdc++.a(string-inst.o)
                0x08018764                std::basic_string<char, std::char_traits<char>, std::allocator<char> > std::operator+<char, std::char_traits<char>, std::allocator<char> >(char, std::basic_string<char, std::char_traits<char>, std::allocator<char> > const&)
 .text._ZStplIcSt11char_traitsIcESaIcEESbIT_T0_T1_ERKS6_S8_
                0x080187b4       0x34 c:/program files (x86)/gnu tools arm embedded/4.8 2013q4/bin/../lib/gcc/arm-none-eabi/4.8.3/../../../../arm-none-eabi/lib/armv7e-m\libstdc++.a(string-inst.o)
                0x080187b4                std::basic_string<char, std::char_traits<char>, std::allocator<char> > std::operator+<char, std::char_traits<char>, std::allocator<char> >(std::basic_string<char, std::char_traits<char>, std::allocator<char> > const&, std::basic_string<char, std::char_traits<char>, std::allocator<char> > const&)
 .text._ZNSs12_S_constructIN9__gnu_cxx17__normal_iteratorIPcSsEEEES2_T_S4_RKSaIcESt20forward_iterator_tag
                0x080187e8       0x50 c:/program files (x86)/gnu tools arm embedded/4.8 2013q4/bin/../lib/gcc/arm-none-eabi/4.8.3/../../../../arm-none-eabi/lib/armv7e-m\libstdc++.a(string-inst.o)
                0x080187e8                char* std::string::_S_construct<__gnu_cxx::__normal_iterator<char*, std::string> >(__gnu_cxx::__normal_iterator<char*, std::string>, __gnu_cxx::__normal_iterator<char*, std::string>, std::allocator<char> const&, std::forward_iterator_tag)
 .text._ZNSsC2IN9__gnu_cxx17__normal_iteratorIPcSsEEEET_S4_RKSaIcE
                0x08018838       0x18 c:/program files (x86)/gnu tools arm embedded/4.8 2013q4/bin/../lib/gcc/arm-none-eabi/4.8.3/../../../../arm-none-eabi/lib/armv7e-m\libstdc++.a(string-inst.o)
                0x08018838                std::basic_string<char, std::char_traits<char>, std::allocator<char> >::basic_string<__gnu_cxx::__normal_iterator<char*, std::string> >(__gnu_cxx::__normal_iterator<char*, std::string>, __gnu_cxx::__normal_iterator<char*, std::string>, std::allocator<char> const&)
                0x08018838                std::basic_string<char, std::char_traits<char>, std::allocator<char> >::basic_string<__gnu_cxx::__normal_iterator<char*, std::string> >(__gnu_cxx::__normal_iterator<char*, std::string>, __gnu_cxx::__normal_iterator<char*, std::string>, std::allocator<char> const&)
 .text._ZNSs12_S_constructIPcEES0_T_S1_RKSaIcESt20forward_iterator_tag
                0x08018850       0x70 c:/program files (x86)/gnu tools arm embedded/4.8 2013q4/bin/../lib/gcc/arm-none-eabi/4.8.3/../../../../arm-none-eabi/lib/armv7e-m\libstdc++.a(string-inst.o)
                0x08018850                char* std::string::_S_construct<char*>(char*, char*, std::allocator<char> const&, std::forward_iterator_tag)
 .text._ZNSsC2ERKSsjj
                0x080188c0       0x3c c:/program files (x86)/gnu tools arm embedded/4.8 2013q4/bin/../lib/gcc/arm-none-eabi/4.8.3/../../../../arm-none-eabi/lib/armv7e-m\libstdc++.a(string-inst.o)
                0x080188c0                std::basic_string<char, std::char_traits<char>, std::allocator<char> >::basic_string(std::string const&, unsigned int, unsigned int)
                0x080188c0                std::basic_string<char, std::char_traits<char>, std::allocator<char> >::basic_string(std::string const&, unsigned int, unsigned int)
 .text._ZNKSs6substrEjj
                0x080188fc       0x20 c:/program files (x86)/gnu tools arm embedded/4.8 2013q4/bin/../lib/gcc/arm-none-eabi/4.8.3/../../../../arm-none-eabi/lib/armv7e-m\libstdc++.a(string-inst.o)
                0x080188fc                std::string::substr(unsigned int, unsigned int) const
 .text._ZNSsC2ERKSsjjRKSaIcE
                0x0801891c       0x38 c:/program files (x86)/gnu tools arm embedded/4.8 2013q4/bin/../lib/gcc/arm-none-eabi/4.8.3/../../../../arm-none-eabi/lib/armv7e-m\libstdc++.a(string-inst.o)
                0x0801891c                std::basic_string<char, std::char_traits<char>, std::allocator<char> >::basic_string(std::string const&, unsigned int, unsigned int, std::allocator<char> const&)
                0x0801891c                std::basic_string<char, std::char_traits<char>, std::allocator<char> >::basic_string(std::string const&, unsigned int, unsigned int, std::allocator<char> const&)
 .text._ZNSsC2IPcEET_S1_RKSaIcE
                0x08018954       0x18 c:/program files (x86)/gnu tools arm embedded/4.8 2013q4/bin/../lib/gcc/arm-none-eabi/4.8.3/../../../../arm-none-eabi/lib/armv7e-m\libstdc++.a(string-inst.o)
                0x08018954                std::basic_string<char, std::char_traits<char>, std::allocator<char> >::basic_string<char*>(char*, char*, std::allocator<char> const&)
                0x08018954                std::basic_string<char, std::char_traits<char>, std::allocator<char> >::basic_string<char*>(char*, char*, std::allocator<char> const&)
 .text._ZNSs12_S_constructIPKcEEPcT_S3_RKSaIcESt20forward_iterator_tag
                0x0801896c       0x70 c:/program files (x86)/gnu tools arm embedded/4.8 2013q4/bin/../lib/gcc/arm-none-eabi/4.8.3/../../../../arm-none-eabi/lib/armv7e-m\libstdc++.a(string-inst.o)
                0x0801896c                char* std::string::_S_construct<char const*>(char const*, char const*, std::allocator<char> const&, std::forward_iterator_tag)
 .text._ZNSsC2EPKcjRKSaIcE
                0x080189dc       0x18 c:/program files (x86)/gnu tools arm embedded/4.8 2013q4/bin/../lib/gcc/arm-none-eabi/4.8.3/../../../../arm-none-eabi/lib/armv7e-m\libstdc++.a(string-inst.o)
                0x080189dc                std::basic_string<char, std::char_traits<char>, std::allocator<char> >::basic_string(char const*, unsigned int, std::allocator<char> const&)
                0x080189dc                std::basic_string<char, std::char_traits<char>, std::allocator<char> >::basic_string(char const*, unsigned int, std::allocator<char> const&)
 .text._ZNSs7replaceEjjPKcj
                0x080189f4      0x104 c:/program files (x86)/gnu tools arm embedded/4.8 2013q4/bin/../lib/gcc/arm-none-eabi/4.8.3/../../../../arm-none-eabi/lib/armv7e-m\libstdc++.a(string-inst.o)
                0x080189f4                std::string::replace(unsigned int, unsigned int, char const*, unsigned int)
 .text._ZNSs7replaceEjjRKSs
                0x08018af8       0x14 c:/program files (x86)/gnu tools arm embedded/4.8 2013q4/bin/../lib/gcc/arm-none-eabi/4.8.3/../../../../arm-none-eabi/lib/armv7e-m\libstdc++.a(string-inst.o)
                0x08018af8                std::string::replace(unsigned int, unsigned int, std::string const&)
 .text._ZNSs7replaceEjjRKSsjj
                0x08018b0c       0x30 c:/program files (x86)/gnu tools arm embedded/4.8 2013q4/bin/../lib/gcc/arm-none-eabi/4.8.3/../../../../arm-none-eabi/lib/armv7e-m\libstdc++.a(string-inst.o)
                0x08018b0c                std::string::replace(unsigned int, unsigned int, std::string const&, unsigned int, unsigned int)
 .text._ZNSs7replaceEjjPKc
                0x08018b3c       0x24 c:/program files (x86)/gnu tools arm embedded/4.8 2013q4/bin/../lib/gcc/arm-none-eabi/4.8.3/../../../../arm-none-eabi/lib/armv7e-m\libstdc++.a(string-inst.o)
                0x08018b3c                std::string::replace(unsigned int, unsigned int, char const*)
 .text._ZNSs7replaceEN9__gnu_cxx17__normal_iteratorIPcSsEES2_PKcj
                0x08018b60       0x18 c:/program files (x86)/gnu tools arm embedded/4.8 2013q4/bin/../lib/gcc/arm-none-eabi/4.8.3/../../../../arm-none-eabi/lib/armv7e-m\libstdc++.a(string-inst.o)
                0x08018b60                std::string::replace(__gnu_cxx::__normal_iterator<char*, std::string>, __gnu_cxx::__normal_iterator<char*, std::string>, char const*, unsigned int)
 .text._ZNSs7replaceEN9__gnu_cxx17__normal_iteratorIPcSsEES2_RKSs
                0x08018b78       0x1c c:/program files (x86)/gnu tools arm embedded/4.8 2013q4/bin/../lib/gcc/arm-none-eabi/4.8.3/../../../../arm-none-eabi/lib/armv7e-m\libstdc++.a(string-inst.o)
                0x08018b78                std::string::replace(__gnu_cxx::__normal_iterator<char*, std::string>, __gnu_cxx::__normal_iterator<char*, std::string>, std::string const&)
 .text._ZNSs7replaceEN9__gnu_cxx17__normal_iteratorIPcSsEES2_PKc
                0x08018b94       0x28 c:/program files (x86)/gnu tools arm embedded/4.8 2013q4/bin/../lib/gcc/arm-none-eabi/4.8.3/../../../../arm-none-eabi/lib/armv7e-m\libstdc++.a(string-inst.o)
                0x08018b94                std::string::replace(__gnu_cxx::__normal_iterator<char*, std::string>, __gnu_cxx::__normal_iterator<char*, std::string>, char const*)
 .text._ZNSs7replaceEN9__gnu_cxx17__normal_iteratorIPcSsEES2_S1_S1_
                0x08018bbc       0x18 c:/program files (x86)/gnu tools arm embedded/4.8 2013q4/bin/../lib/gcc/arm-none-eabi/4.8.3/../../../../arm-none-eabi/lib/armv7e-m\libstdc++.a(string-inst.o)
                0x08018bbc                std::string::replace(__gnu_cxx::__normal_iterator<char*, std::string>, __gnu_cxx::__normal_iterator<char*, std::string>, char*, char*)
 .text._ZNSs7replaceEN9__gnu_cxx17__normal_iteratorIPcSsEES2_PKcS4_
                0x08018bd4       0x18 c:/program files (x86)/gnu tools arm embedded/4.8 2013q4/bin/../lib/gcc/arm-none-eabi/4.8.3/../../../../arm-none-eabi/lib/armv7e-m\libstdc++.a(string-inst.o)
                0x08018bd4                std::string::replace(__gnu_cxx::__normal_iterator<char*, std::string>, __gnu_cxx::__normal_iterator<char*, std::string>, char const*, char const*)
 .text._ZNSs7replaceEN9__gnu_cxx17__normal_iteratorIPcSsEES2_St16initializer_listIcE
                0x08018bec       0x20 c:/program files (x86)/gnu tools arm embedded/4.8 2013q4/bin/../lib/gcc/arm-none-eabi/4.8.3/../../../../arm-none-eabi/lib/armv7e-m\libstdc++.a(string-inst.o)
                0x08018bec                std::string::replace(__gnu_cxx::__normal_iterator<char*, std::string>, __gnu_cxx::__normal_iterator<char*, std::string>, std::initializer_list<char>)
 .text._ZNSs7replaceEN9__gnu_cxx17__normal_iteratorIPcSsEES2_S2_S2_
                0x08018c0c       0x18 c:/program files (x86)/gnu tools arm embedded/4.8 2013q4/bin/../lib/gcc/arm-none-eabi/4.8.3/../../../../arm-none-eabi/lib/armv7e-m\libstdc++.a(string-inst.o)
                0x08018c0c                std::string::replace(__gnu_cxx::__normal_iterator<char*, std::string>, __gnu_cxx::__normal_iterator<char*, std::string>, __gnu_cxx::__normal_iterator<char*, std::string>, __gnu_cxx::__normal_iterator<char*, std::string>)
 .text._ZNSs7replaceEN9__gnu_cxx17__normal_iteratorIPcSsEES2_NS0_IPKcSsEES5_
                0x08018c24       0x18 c:/program files (x86)/gnu tools arm embedded/4.8 2013q4/bin/../lib/gcc/arm-none-eabi/4.8.3/../../../../arm-none-eabi/lib/armv7e-m\libstdc++.a(string-inst.o)
                0x08018c24                std::string::replace(__gnu_cxx::__normal_iterator<char*, std::string>, __gnu_cxx::__normal_iterator<char*, std::string>, __gnu_cxx::__normal_iterator<char const*, std::string>, __gnu_cxx::__normal_iterator<char const*, std::string>)
 .text._ZNSsC2EPKcRKSaIcE
                0x08018c3c       0x2c c:/program files (x86)/gnu tools arm embedded/4.8 2013q4/bin/../lib/gcc/arm-none-eabi/4.8.3/../../../../arm-none-eabi/lib/armv7e-m\libstdc++.a(string-inst.o)
                0x08018c3c                std::basic_string<char, std::char_traits<char>, std::allocator<char> >::basic_string(char const*, std::allocator<char> const&)
                0x08018c3c                std::basic_string<char, std::char_traits<char>, std::allocator<char> >::basic_string(char const*, std::allocator<char> const&)
 .text._ZNSsC2ESt16initializer_listIcERKSaIcE
                0x08018c68       0x28 c:/program files (x86)/gnu tools arm embedded/4.8 2013q4/bin/../lib/gcc/arm-none-eabi/4.8.3/../../../../arm-none-eabi/lib/armv7e-m\libstdc++.a(string-inst.o)
                0x08018c68                std::basic_string<char, std::char_traits<char>, std::allocator<char> >::basic_string(std::initializer_list<char>, std::allocator<char> const&)
                0x08018c68                std::basic_string<char, std::char_traits<char>, std::allocator<char> >::basic_string(std::initializer_list<char>, std::allocator<char> const&)
 .text._ZNSsC2IPKcEET_S2_RKSaIcE
                0x08018c90       0x18 c:/program files (x86)/gnu tools arm embedded/4.8 2013q4/bin/../lib/gcc/arm-none-eabi/4.8.3/../../../../arm-none-eabi/lib/armv7e-m\libstdc++.a(string-inst.o)
                0x08018c90                std::basic_string<char, std::char_traits<char>, std::allocator<char> >::basic_string<char const*>(char const*, char const*, std::allocator<char> const&)
                0x08018c90                std::basic_string<char, std::char_traits<char>, std::allocator<char> >::basic_string<char const*>(char const*, char const*, std::allocator<char> const&)
 .text._ZN9__gnu_cxxeqIPcSsEEbRKNS_17__normal_iteratorIT_T0_EES7_
                0x08018ca8        0xc c:/program files (x86)/gnu tools arm embedded/4.8 2013q4/bin/../lib/gcc/arm-none-eabi/4.8.3/../../../../arm-none-eabi/lib/armv7e-m\libstdc++.a(string-inst.o)
                0x08018ca8                bool __gnu_cxx::operator==<char*, std::string>(__gnu_cxx::__normal_iterator<char*, std::string> const&, __gnu_cxx::__normal_iterator<char*, std::string> const&)
 .text._ZN9__gnu_cxxeqIPKcSsEEbRKNS_17__normal_iteratorIT_T0_EES8_
                0x08018cb4        0xc c:/program files (x86)/gnu tools arm embedded/4.8 2013q4/bin/../lib/gcc/arm-none-eabi/4.8.3/../../../../arm-none-eabi/lib/armv7e-m\libstdc++.a(string-inst.o)
                0x08018cb4                bool __gnu_cxx::operator==<char const*, std::string>(__gnu_cxx::__normal_iterator<char const*, std::string> const&, __gnu_cxx::__normal_iterator<char const*, std::string> const&)
 .text._ZNKSt8__detail20_Prime_rehash_policy11_M_next_bktEj
                0x08018cc0       0x84 c:/program files (x86)/gnu tools arm embedded/4.8 2013q4/bin/../lib/gcc/arm-none-eabi/4.8.3/../../../../arm-none-eabi/lib/armv7e-m\libstdc++.a(hashtable_c++0x.o)
                0x08018cc0                std::__detail::_Prime_rehash_policy::_M_next_bkt(unsigned int) const
 .text._ZNKSt8__detail20_Prime_rehash_policy14_M_need_rehashEjjj
                0x08018d44       0xbc c:/program files (x86)/gnu tools arm embedded/4.8 2013q4/bin/../lib/gcc/arm-none-eabi/4.8.3/../../../../arm-none-eabi/lib/armv7e-m\libstdc++.a(hashtable_c++0x.o)
                0x08018d44                std::__detail::_Prime_rehash_policy::_M_need_rehash(unsigned int, unsigned int, unsigned int) const
 .text._ZSt21__throw_bad_exceptionv
                0x08018e00       0x20 c:/program files (x86)/gnu tools arm embedded/4.8 2013q4/bin/../lib/gcc/arm-none-eabi/4.8.3/../../../../arm-none-eabi/lib/armv7e-m\libstdc++.a(functexcept.o)
                0x08018e00                std::__throw_bad_exception()
 .text._ZSt17__throw_bad_allocv
                0x08018e20       0x20 c:/program files (x86)/gnu tools arm embedded/4.8 2013q4/bin/../lib/gcc/arm-none-eabi/4.8.3/../../../../arm-none-eabi/lib/armv7e-m\libstdc++.a(functexcept.o)
                0x08018e20                std::__throw_bad_alloc()
 .text._ZSt16__throw_bad_castv
                0x08018e40       0x20 c:/program files (x86)/gnu tools arm embedded/4.8 2013q4/bin/../lib/gcc/arm-none-eabi/4.8.3/../../../../arm-none-eabi/lib/armv7e-m\libstdc++.a(functexcept.o)
                0x08018e40                std::__throw_bad_cast()
 .text._ZSt18__throw_bad_typeidv
                0x08018e60       0x20 c:/program files (x86)/gnu tools arm embedded/4.8 2013q4/bin/../lib/gcc/arm-none-eabi/4.8.3/../../../../arm-none-eabi/lib/armv7e-m\libstdc++.a(functexcept.o)
                0x08018e60                std::__throw_bad_typeid()
 .text._ZSt19__throw_logic_errorPKc
                0x08018e80       0x54 c:/program files (x86)/gnu tools arm embedded/4.8 2013q4/bin/../lib/gcc/arm-none-eabi/4.8.3/../../../../arm-none-eabi/lib/armv7e-m\libstdc++.a(functexcept.o)
                0x08018e80                std::__throw_logic_error(char const*)
 .text._ZSt20__throw_domain_errorPKc
                0x08018ed4       0x54 c:/program files (x86)/gnu tools arm embedded/4.8 2013q4/bin/../lib/gcc/arm-none-eabi/4.8.3/../../../../arm-none-eabi/lib/armv7e-m\libstdc++.a(functexcept.o)
                0x08018ed4                std::__throw_domain_error(char const*)
 .text._ZSt24__throw_invalid_argumentPKc
                0x08018f28       0x54 c:/program files (x86)/gnu tools arm embedded/4.8 2013q4/bin/../lib/gcc/arm-none-eabi/4.8.3/../../../../arm-none-eabi/lib/armv7e-m\libstdc++.a(functexcept.o)
                0x08018f28                std::__throw_invalid_argument(char const*)
 .text._ZSt20__throw_length_errorPKc
                0x08018f7c       0x54 c:/program files (x86)/gnu tools arm embedded/4.8 2013q4/bin/../lib/gcc/arm-none-eabi/4.8.3/../../../../arm-none-eabi/lib/armv7e-m\libstdc++.a(functexcept.o)
                0x08018f7c                std::__throw_length_error(char const*)
 .text._ZSt20__throw_out_of_rangePKc
                0x08018fd0       0x54 c:/program files (x86)/gnu tools arm embedded/4.8 2013q4/bin/../lib/gcc/arm-none-eabi/4.8.3/../../../../arm-none-eabi/lib/armv7e-m\libstdc++.a(functexcept.o)
                0x08018fd0                std::__throw_out_of_range(char const*)
 .text._ZSt21__throw_runtime_errorPKc
                0x08019024       0x54 c:/program files (x86)/gnu tools arm embedded/4.8 2013q4/bin/../lib/gcc/arm-none-eabi/4.8.3/../../../../arm-none-eabi/lib/armv7e-m\libstdc++.a(functexcept.o)
                0x08019024                std::__throw_runtime_error(char const*)
 .text._ZSt19__throw_range_errorPKc
                0x08019078       0x54 c:/program files (x86)/gnu tools arm embedded/4.8 2013q4/bin/../lib/gcc/arm-none-eabi/4.8.3/../../../../arm-none-eabi/lib/armv7e-m\libstdc++.a(functexcept.o)
                0x08019078                std::__throw_range_error(char const*)
 .text._ZSt22__throw_overflow_errorPKc
                0x080190cc       0x54 c:/program files (x86)/gnu tools arm embedded/4.8 2013q4/bin/../lib/gcc/arm-none-eabi/4.8.3/../../../../arm-none-eabi/lib/armv7e-m\libstdc++.a(functexcept.o)
                0x080190cc                std::__throw_overflow_error(char const*)
 .text._ZSt23__throw_underflow_errorPKc
                0x08019120       0x54 c:/program files (x86)/gnu tools arm embedded/4.8 2013q4/bin/../lib/gcc/arm-none-eabi/4.8.3/../../../../arm-none-eabi/lib/armv7e-m\libstdc++.a(functexcept.o)
                0x08019120                std::__throw_underflow_error(char const*)
 .text._ZSt19__throw_ios_failurePKc
                0x08019174       0x48 c:/program files (x86)/gnu tools arm embedded/4.8 2013q4/bin/../lib/gcc/arm-none-eabi/4.8.3/../../../../arm-none-eabi/lib/armv7e-m\libstdc++.a(functexcept.o)
                0x08019174                std::__throw_ios_failure(char const*)
 .text._ZSt20__throw_system_errori
                0x080191bc       0x68 c:/program files (x86)/gnu tools arm embedded/4.8 2013q4/bin/../lib/gcc/arm-none-eabi/4.8.3/../../../../arm-none-eabi/lib/armv7e-m\libstdc++.a(functexcept.o)
                0x080191bc                std::__throw_system_error(int)
 .text._ZSt20__throw_future_errori
                0x08019224       0x68 c:/program files (x86)/gnu tools arm embedded/4.8 2013q4/bin/../lib/gcc/arm-none-eabi/4.8.3/../../../../arm-none-eabi/lib/armv7e-m\libstdc++.a(functexcept.o)
                0x08019224                std::__throw_future_error(int)
 .text._ZSt25__throw_bad_function_callv
                0x0801928c       0x20 c:/program files (x86)/gnu tools arm embedded/4.8 2013q4/bin/../lib/gcc/arm-none-eabi/4.8.3/../../../../arm-none-eabi/lib/armv7e-m\libstdc++.a(functexcept.o)
                0x0801928c                std::__throw_bad_function_call()
 .text._ZSt19__throw_regex_errorNSt15regex_constants10error_typeE
                0x080192ac       0x30 c:/program files (x86)/gnu tools arm embedded/4.8 2013q4/bin/../lib/gcc/arm-none-eabi/4.8.3/../../../../arm-none-eabi/lib/armv7e-m\libstdc++.a(functexcept.o)
                0x080192ac                std::__throw_regex_error(std::regex_constants::error_type)
 .text._ZNKSt17bad_function_call4whatEv
                0x080192dc        0x8 c:/program files (x86)/gnu tools arm embedded/4.8 2013q4/bin/../lib/gcc/arm-none-eabi/4.8.3/../../../../arm-none-eabi/lib/armv7e-m\libstdc++.a(functional.o)
                0x080192dc                std::bad_function_call::what() const
 .text._ZNSt17bad_function_callD2Ev
                0x080192e4       0x14 c:/program files (x86)/gnu tools arm embedded/4.8 2013q4/bin/../lib/gcc/arm-none-eabi/4.8.3/../../../../arm-none-eabi/lib/armv7e-m\libstdc++.a(functional.o)
                0x080192e4                std::bad_function_call::~bad_function_call()
                0x080192e4                std::bad_function_call::~bad_function_call()
 .text._ZNSt17bad_function_callD0Ev
                0x080192f8       0x1c c:/program files (x86)/gnu tools arm embedded/4.8 2013q4/bin/../lib/gcc/arm-none-eabi/4.8.3/../../../../arm-none-eabi/lib/armv7e-m\libstdc++.a(functional.o)
                0x080192f8                std::bad_function_call::~bad_function_call()
 .text._ZN10__cxxabiv1L24__is_gxx_exception_classEPc
                0x08019314       0x3c c:/program files (x86)/gnu tools arm embedded/4.8 2013q4/bin/../lib/gcc/arm-none-eabi/4.8.3/../../../../arm-none-eabi/lib/armv7e-m\libstdc++.a(eh_call.o)
 .text.__cxa_call_terminate
                0x08019350       0x20 c:/program files (x86)/gnu tools arm embedded/4.8 2013q4/bin/../lib/gcc/arm-none-eabi/4.8.3/../../../../arm-none-eabi/lib/armv7e-m\libstdc++.a(eh_call.o)
                0x08019350                __cxa_call_terminate
 .text.__cxa_call_unexpected
                0x08019370       0xd4 c:/program files (x86)/gnu tools arm embedded/4.8 2013q4/bin/../lib/gcc/arm-none-eabi/4.8.3/../../../../arm-none-eabi/lib/armv7e-m\libstdc++.a(eh_call.o)
                0x08019370                __cxa_call_unexpected
 .text.__cxa_end_cleanup
                0x08019444        0xc c:/program files (x86)/gnu tools arm embedded/4.8 2013q4/bin/../lib/gcc/arm-none-eabi/4.8.3/../../../../arm-none-eabi/lib/armv7e-m\libstdc++.a(eh_arm.o)
                0x08019444                __cxa_end_cleanup
 .text.__cxa_type_match
                0x08019450       0xac c:/program files (x86)/gnu tools arm embedded/4.8 2013q4/bin/../lib/gcc/arm-none-eabi/4.8.3/../../../../arm-none-eabi/lib/armv7e-m\libstdc++.a(eh_arm.o)
                0x08019450                __cxa_type_match
 .text.__cxa_begin_cleanup
                0x080194fc       0x64 c:/program files (x86)/gnu tools arm embedded/4.8 2013q4/bin/../lib/gcc/arm-none-eabi/4.8.3/../../../../arm-none-eabi/lib/armv7e-m\libstdc++.a(eh_arm.o)
                0x080194fc                __cxa_begin_cleanup
 .text.__gnu_end_cleanup
                0x08019560       0x70 c:/program files (x86)/gnu tools arm embedded/4.8 2013q4/bin/../lib/gcc/arm-none-eabi/4.8.3/../../../../arm-none-eabi/lib/armv7e-m\libstdc++.a(eh_arm.o)
                0x08019560                __gnu_end_cleanup
 .text._ZSt15set_new_handlerPFvvE
                0x080195d0       0x10 c:/program files (x86)/gnu tools arm embedded/4.8 2013q4/bin/../lib/gcc/arm-none-eabi/4.8.3/../../../../arm-none-eabi/lib/armv7e-m\libstdc++.a(new_handler.o)
                0x080195d0                std::set_new_handler(void (*)())
 .text._ZNKSt9bad_alloc4whatEv
                0x080195e0        0x8 c:/program files (x86)/gnu tools arm embedded/4.8 2013q4/bin/../lib/gcc/arm-none-eabi/4.8.3/../../../../arm-none-eabi/lib/armv7e-m\libstdc++.a(bad_alloc.o)
                0x080195e0                std::bad_alloc::what() const
 .text._ZNSt9bad_allocD2Ev
                0x080195e8       0x14 c:/program files (x86)/gnu tools arm embedded/4.8 2013q4/bin/../lib/gcc/arm-none-eabi/4.8.3/../../../../arm-none-eabi/lib/armv7e-m\libstdc++.a(bad_alloc.o)
                0x080195e8                std::bad_alloc::~bad_alloc()
                0x080195e8                std::bad_alloc::~bad_alloc()
 .text._ZNSt9bad_allocD0Ev
                0x080195fc       0x1c c:/program files (x86)/gnu tools arm embedded/4.8 2013q4/bin/../lib/gcc/arm-none-eabi/4.8.3/../../../../arm-none-eabi/lib/armv7e-m\libstdc++.a(bad_alloc.o)
                0x080195fc                std::bad_alloc::~bad_alloc()
 .text.__cxa_bad_cast
                0x08019618       0x20 c:/program files (x86)/gnu tools arm embedded/4.8 2013q4/bin/../lib/gcc/arm-none-eabi/4.8.3/../../../../arm-none-eabi/lib/armv7e-m\libstdc++.a(eh_aux_runtime.o)
                0x08019618                __cxa_bad_cast
 .text.__cxa_bad_typeid
                0x08019638       0x20 c:/program files (x86)/gnu tools arm embedded/4.8 2013q4/bin/../lib/gcc/arm-none-eabi/4.8.3/../../../../arm-none-eabi/lib/armv7e-m\libstdc++.a(eh_aux_runtime.o)
                0x08019638                __cxa_bad_typeid
 .text.__cxa_get_globals_fast
                0x08019658        0x8 c:/program files (x86)/gnu tools arm embedded/4.8 2013q4/bin/../lib/gcc/arm-none-eabi/4.8.3/../../../../arm-none-eabi/lib/armv7e-m\libstdc++.a(eh_globals.o)
                0x08019658                __cxa_get_globals_fast
 .text.__cxa_get_globals
                0x08019660        0x8 c:/program files (x86)/gnu tools arm embedded/4.8 2013q4/bin/../lib/gcc/arm-none-eabi/4.8.3/../../../../arm-none-eabi/lib/armv7e-m\libstdc++.a(eh_globals.o)
                0x08019660                __cxa_get_globals
 .text._ZNKSt8bad_cast4whatEv
                0x08019668        0x8 c:/program files (x86)/gnu tools arm embedded/4.8 2013q4/bin/../lib/gcc/arm-none-eabi/4.8.3/../../../../arm-none-eabi/lib/armv7e-m\libstdc++.a(bad_cast.o)
                0x08019668                std::bad_cast::what() const
 .text._ZNSt8bad_castD2Ev
                0x08019670       0x14 c:/program files (x86)/gnu tools arm embedded/4.8 2013q4/bin/../lib/gcc/arm-none-eabi/4.8.3/../../../../arm-none-eabi/lib/armv7e-m\libstdc++.a(bad_cast.o)
                0x08019670                std::bad_cast::~bad_cast()
                0x08019670                std::bad_cast::~bad_cast()
 .text._ZNSt8bad_castD0Ev
                0x08019684       0x1c c:/program files (x86)/gnu tools arm embedded/4.8 2013q4/bin/../lib/gcc/arm-none-eabi/4.8.3/../../../../arm-none-eabi/lib/armv7e-m\libstdc++.a(bad_cast.o)
                0x08019684                std::bad_cast::~bad_cast()
 .text.__cxa_get_exception_ptr
                0x080196a0        0x4 c:/program files (x86)/gnu tools arm embedded/4.8 2013q4/bin/../lib/gcc/arm-none-eabi/4.8.3/../../../../arm-none-eabi/lib/armv7e-m\libstdc++.a(eh_catch.o)
                0x080196a0                __cxa_get_exception_ptr
 .text.__cxa_begin_catch
                0x080196a4       0x8c c:/program files (x86)/gnu tools arm embedded/4.8 2013q4/bin/../lib/gcc/arm-none-eabi/4.8.3/../../../../arm-none-eabi/lib/armv7e-m\libstdc++.a(eh_catch.o)
                0x080196a4                __cxa_begin_catch
 .text.__cxa_end_catch
                0x08019730       0x8c c:/program files (x86)/gnu tools arm embedded/4.8 2013q4/bin/../lib/gcc/arm-none-eabi/4.8.3/../../../../arm-none-eabi/lib/armv7e-m\libstdc++.a(eh_catch.o)
                0x08019730                __cxa_end_catch
 .text._ZSt18uncaught_exceptionv
                0x080197bc       0x10 c:/program files (x86)/gnu tools arm embedded/4.8 2013q4/bin/../lib/gcc/arm-none-eabi/4.8.3/../../../../arm-none-eabi/lib/armv7e-m\libstdc++.a(eh_catch.o)
                0x080197bc                std::uncaught_exception()
 .text._ZN9__gnu_cxx27__verbose_terminate_handlerEv
                0x080197cc      0x114 c:/program files (x86)/gnu tools arm embedded/4.8 2013q4/bin/../lib/gcc/arm-none-eabi/4.8.3/../../../../arm-none-eabi/lib/armv7e-m\libstdc++.a(vterminate.o)
                0x080197cc                __gnu_cxx::__verbose_terminate_handler()
 .text.__cxa_current_exception_type
                0x080198e0       0x1c c:/program files (x86)/gnu tools arm embedded/4.8 2013q4/bin/../lib/gcc/arm-none-eabi/4.8.3/../../../../arm-none-eabi/lib/armv7e-m\libstdc++.a(eh_type.o)
                0x080198e0                __cxa_current_exception_type
 .text._ZNKSt10bad_typeid4whatEv
                0x080198fc        0x8 c:/program files (x86)/gnu tools arm embedded/4.8 2013q4/bin/../lib/gcc/arm-none-eabi/4.8.3/../../../../arm-none-eabi/lib/armv7e-m\libstdc++.a(bad_typeid.o)
                0x080198fc                std::bad_typeid::what() const
 .text._ZNSt10bad_typeidD2Ev
                0x08019904       0x14 c:/program files (x86)/gnu tools arm embedded/4.8 2013q4/bin/../lib/gcc/arm-none-eabi/4.8.3/../../../../arm-none-eabi/lib/armv7e-m\libstdc++.a(bad_typeid.o)
                0x08019904                std::bad_typeid::~bad_typeid()
                0x08019904                std::bad_typeid::~bad_typeid()
 .text._ZNSt10bad_typeidD0Ev
                0x08019918       0x1c c:/program files (x86)/gnu tools arm embedded/4.8 2013q4/bin/../lib/gcc/arm-none-eabi/4.8.3/../../../../arm-none-eabi/lib/armv7e-m\libstdc++.a(bad_typeid.o)
                0x08019918                std::bad_typeid::~bad_typeid()
 .text._ZNKSt8ios_base7failure4whatEv
                0x08019934        0x4 c:/program files (x86)/gnu tools arm embedded/4.8 2013q4/bin/../lib/gcc/arm-none-eabi/4.8.3/../../../../arm-none-eabi/lib/armv7e-m\libstdc++.a(ios_failure.o)
                0x08019934                std::ios_base::failure::what() const
 .text._ZNSt8ios_base7failureD2Ev
                0x08019938       0x40 c:/program files (x86)/gnu tools arm embedded/4.8 2013q4/bin/../lib/gcc/arm-none-eabi/4.8.3/../../../../arm-none-eabi/lib/armv7e-m\libstdc++.a(ios_failure.o)
                0x08019938                std::ios_base::failure::~failure()
                0x08019938                std::ios_base::failure::~failure()
 .text._ZNSt8ios_base7failureD0Ev
                0x08019978       0x14 c:/program files (x86)/gnu tools arm embedded/4.8 2013q4/bin/../lib/gcc/arm-none-eabi/4.8.3/../../../../arm-none-eabi/lib/armv7e-m\libstdc++.a(ios_failure.o)
                0x08019978                std::ios_base::failure::~failure()
 .text._ZNSt8ios_base7failureC2ERKSs
                0x0801998c       0x30 c:/program files (x86)/gnu tools arm embedded/4.8 2013q4/bin/../lib/gcc/arm-none-eabi/4.8.3/../../../../arm-none-eabi/lib/armv7e-m\libstdc++.a(ios_failure.o)
                0x0801998c                std::ios_base::failure::failure(std::string const&)
                0x0801998c                std::ios_base::failure::failure(std::string const&)
 .text._ZNKSt11logic_error4whatEv
                0x080199bc        0x4 c:/program files (x86)/gnu tools arm embedded/4.8 2013q4/bin/../lib/gcc/arm-none-eabi/4.8.3/../../../../arm-none-eabi/lib/armv7e-m\libstdc++.a(stdexcept.o)
                0x080199bc                std::logic_error::what() const
 .text._ZNKSt13runtime_error4whatEv
                0x080199c0        0x4 c:/program files (x86)/gnu tools arm embedded/4.8 2013q4/bin/../lib/gcc/arm-none-eabi/4.8.3/../../../../arm-none-eabi/lib/armv7e-m\libstdc++.a(stdexcept.o)
                0x080199c0                std::runtime_error::what() const
 .text._ZNSt11logic_errorD2Ev
                0x080199c4       0x40 c:/program files (x86)/gnu tools arm embedded/4.8 2013q4/bin/../lib/gcc/arm-none-eabi/4.8.3/../../../../arm-none-eabi/lib/armv7e-m\libstdc++.a(stdexcept.o)
                0x080199c4                std::logic_error::~logic_error()
                0x080199c4                std::logic_error::~logic_error()
 .text._ZNSt11logic_errorD0Ev
                0x08019a04       0x14 c:/program files (x86)/gnu tools arm embedded/4.8 2013q4/bin/../lib/gcc/arm-none-eabi/4.8.3/../../../../arm-none-eabi/lib/armv7e-m\libstdc++.a(stdexcept.o)
                0x08019a04                std::logic_error::~logic_error()
 .text._ZNSt12domain_errorD2Ev
                0x08019a18       0x14 c:/program files (x86)/gnu tools arm embedded/4.8 2013q4/bin/../lib/gcc/arm-none-eabi/4.8.3/../../../../arm-none-eabi/lib/armv7e-m\libstdc++.a(stdexcept.o)
                0x08019a18                std::domain_error::~domain_error()
                0x08019a18                std::domain_error::~domain_error()
 .text._ZNSt12domain_errorD0Ev
                0x08019a2c       0x1c c:/program files (x86)/gnu tools arm embedded/4.8 2013q4/bin/../lib/gcc/arm-none-eabi/4.8.3/../../../../arm-none-eabi/lib/armv7e-m\libstdc++.a(stdexcept.o)
                0x08019a2c                std::domain_error::~domain_error()
 .text._ZNSt16invalid_argumentD2Ev
                0x08019a48       0x14 c:/program files (x86)/gnu tools arm embedded/4.8 2013q4/bin/../lib/gcc/arm-none-eabi/4.8.3/../../../../arm-none-eabi/lib/armv7e-m\libstdc++.a(stdexcept.o)
                0x08019a48                std::invalid_argument::~invalid_argument()
                0x08019a48                std::invalid_argument::~invalid_argument()
 .text._ZNSt16invalid_argumentD0Ev
                0x08019a5c       0x1c c:/program files (x86)/gnu tools arm embedded/4.8 2013q4/bin/../lib/gcc/arm-none-eabi/4.8.3/../../../../arm-none-eabi/lib/armv7e-m\libstdc++.a(stdexcept.o)
                0x08019a5c                std::invalid_argument::~invalid_argument()
 .text._ZNSt12length_errorD2Ev
                0x08019a78       0x14 c:/program files (x86)/gnu tools arm embedded/4.8 2013q4/bin/../lib/gcc/arm-none-eabi/4.8.3/../../../../arm-none-eabi/lib/armv7e-m\libstdc++.a(stdexcept.o)
                0x08019a78                std::length_error::~length_error()
                0x08019a78                std::length_error::~length_error()
 .text._ZNSt12length_errorD0Ev
                0x08019a8c       0x1c c:/program files (x86)/gnu tools arm embedded/4.8 2013q4/bin/../lib/gcc/arm-none-eabi/4.8.3/../../../../arm-none-eabi/lib/armv7e-m\libstdc++.a(stdexcept.o)
                0x08019a8c                std::length_error::~length_error()
 .text._ZNSt12out_of_rangeD2Ev
                0x08019aa8       0x14 c:/program files (x86)/gnu tools arm embedded/4.8 2013q4/bin/../lib/gcc/arm-none-eabi/4.8.3/../../../../arm-none-eabi/lib/armv7e-m\libstdc++.a(stdexcept.o)
                0x08019aa8                std::out_of_range::~out_of_range()
                0x08019aa8                std::out_of_range::~out_of_range()
 .text._ZNSt12out_of_rangeD0Ev
                0x08019abc       0x1c c:/program files (x86)/gnu tools arm embedded/4.8 2013q4/bin/../lib/gcc/arm-none-eabi/4.8.3/../../../../arm-none-eabi/lib/armv7e-m\libstdc++.a(stdexcept.o)
                0x08019abc                std::out_of_range::~out_of_range()
 .text._ZNSt13runtime_errorD2Ev
                0x08019ad8       0x40 c:/program files (x86)/gnu tools arm embedded/4.8 2013q4/bin/../lib/gcc/arm-none-eabi/4.8.3/../../../../arm-none-eabi/lib/armv7e-m\libstdc++.a(stdexcept.o)
                0x08019ad8                std::runtime_error::~runtime_error()
                0x08019ad8                std::runtime_error::~runtime_error()
 .text._ZNSt13runtime_errorD0Ev
                0x08019b18       0x14 c:/program files (x86)/gnu tools arm embedded/4.8 2013q4/bin/../lib/gcc/arm-none-eabi/4.8.3/../../../../arm-none-eabi/lib/armv7e-m\libstdc++.a(stdexcept.o)
                0x08019b18                std::runtime_error::~runtime_error()
 .text._ZNSt11range_errorD2Ev
                0x08019b2c       0x14 c:/program files (x86)/gnu tools arm embedded/4.8 2013q4/bin/../lib/gcc/arm-none-eabi/4.8.3/../../../../arm-none-eabi/lib/armv7e-m\libstdc++.a(stdexcept.o)
                0x08019b2c                std::range_error::~range_error()
                0x08019b2c                std::range_error::~range_error()
 .text._ZNSt11range_errorD0Ev
                0x08019b40       0x1c c:/program files (x86)/gnu tools arm embedded/4.8 2013q4/bin/../lib/gcc/arm-none-eabi/4.8.3/../../../../arm-none-eabi/lib/armv7e-m\libstdc++.a(stdexcept.o)
                0x08019b40                std::range_error::~range_error()
 .text._ZNSt14overflow_errorD2Ev
                0x08019b5c       0x14 c:/program files (x86)/gnu tools arm embedded/4.8 2013q4/bin/../lib/gcc/arm-none-eabi/4.8.3/../../../../arm-none-eabi/lib/armv7e-m\libstdc++.a(stdexcept.o)
                0x08019b5c                std::overflow_error::~overflow_error()
                0x08019b5c                std::overflow_error::~overflow_error()
 .text._ZNSt14overflow_errorD0Ev
                0x08019b70       0x1c c:/program files (x86)/gnu tools arm embedded/4.8 2013q4/bin/../lib/gcc/arm-none-eabi/4.8.3/../../../../arm-none-eabi/lib/armv7e-m\libstdc++.a(stdexcept.o)
                0x08019b70                std::overflow_error::~overflow_error()
 .text._ZNSt15underflow_errorD2Ev
                0x08019b8c       0x14 c:/program files (x86)/gnu tools arm embedded/4.8 2013q4/bin/../lib/gcc/arm-none-eabi/4.8.3/../../../../arm-none-eabi/lib/armv7e-m\libstdc++.a(stdexcept.o)
                0x08019b8c                std::underflow_error::~underflow_error()
                0x08019b8c                std::underflow_error::~underflow_error()
 .text._ZNSt15underflow_errorD0Ev
                0x08019ba0       0x1c c:/program files (x86)/gnu tools arm embedded/4.8 2013q4/bin/../lib/gcc/arm-none-eabi/4.8.3/../../../../arm-none-eabi/lib/armv7e-m\libstdc++.a(stdexcept.o)
                0x08019ba0                std::underflow_error::~underflow_error()
 .text._ZNSt11logic_errorC2ERKSs
                0x08019bbc       0x20 c:/program files (x86)/gnu tools arm embedded/4.8 2013q4/bin/../lib/gcc/arm-none-eabi/4.8.3/../../../../arm-none-eabi/lib/armv7e-m\libstdc++.a(stdexcept.o)
                0x08019bbc                std::logic_error::logic_error(std::string const&)
                0x08019bbc                std::logic_error::logic_error(std::string const&)
 .text._ZNSt12domain_errorC2ERKSs
                0x08019bdc       0x14 c:/program files (x86)/gnu tools arm embedded/4.8 2013q4/bin/../lib/gcc/arm-none-eabi/4.8.3/../../../../arm-none-eabi/lib/armv7e-m\libstdc++.a(stdexcept.o)
                0x08019bdc                std::domain_error::domain_error(std::string const&)
                0x08019bdc                std::domain_error::domain_error(std::string const&)
 .text._ZNSt16invalid_argumentC2ERKSs
                0x08019bf0       0x14 c:/program files (x86)/gnu tools arm embedded/4.8 2013q4/bin/../lib/gcc/arm-none-eabi/4.8.3/../../../../arm-none-eabi/lib/armv7e-m\libstdc++.a(stdexcept.o)
                0x08019bf0                std::invalid_argument::invalid_argument(std::string const&)
                0x08019bf0                std::invalid_argument::invalid_argument(std::string const&)
 .text._ZNSt12length_errorC2ERKSs
                0x08019c04       0x14 c:/program files (x86)/gnu tools arm embedded/4.8 2013q4/bin/../lib/gcc/arm-none-eabi/4.8.3/../../../../arm-none-eabi/lib/armv7e-m\libstdc++.a(stdexcept.o)
                0x08019c04                std::length_error::length_error(std::string const&)
                0x08019c04                std::length_error::length_error(std::string const&)
 .text._ZNSt12out_of_rangeC2ERKSs
                0x08019c18       0x14 c:/program files (x86)/gnu tools arm embedded/4.8 2013q4/bin/../lib/gcc/arm-none-eabi/4.8.3/../../../../arm-none-eabi/lib/armv7e-m\libstdc++.a(stdexcept.o)
                0x08019c18                std::out_of_range::out_of_range(std::string const&)
                0x08019c18                std::out_of_range::out_of_range(std::string const&)
 .text._ZNSt13runtime_errorC2ERKSs
                0x08019c2c       0x20 c:/program files (x86)/gnu tools arm embedded/4.8 2013q4/bin/../lib/gcc/arm-none-eabi/4.8.3/../../../../arm-none-eabi/lib/armv7e-m\libstdc++.a(stdexcept.o)
                0x08019c2c                std::runtime_error::runtime_error(std::string const&)
                0x08019c2c                std::runtime_error::runtime_error(std::string const&)
 .text._ZNSt11range_errorC2ERKSs
                0x08019c4c       0x14 c:/program files (x86)/gnu tools arm embedded/4.8 2013q4/bin/../lib/gcc/arm-none-eabi/4.8.3/../../../../arm-none-eabi/lib/armv7e-m\libstdc++.a(stdexcept.o)
                0x08019c4c                std::range_error::range_error(std::string const&)
                0x08019c4c                std::range_error::range_error(std::string const&)
 .text._ZNSt14overflow_errorC2ERKSs
                0x08019c60       0x14 c:/program files (x86)/gnu tools arm embedded/4.8 2013q4/bin/../lib/gcc/arm-none-eabi/4.8.3/../../../../arm-none-eabi/lib/armv7e-m\libstdc++.a(stdexcept.o)
                0x08019c60                std::overflow_error::overflow_error(std::string const&)
                0x08019c60                std::overflow_error::overflow_error(std::string const&)
 .text._ZNSt15underflow_errorC2ERKSs
                0x08019c74       0x14 c:/program files (x86)/gnu tools arm embedded/4.8 2013q4/bin/../lib/gcc/arm-none-eabi/4.8.3/../../../../arm-none-eabi/lib/armv7e-m\libstdc++.a(stdexcept.o)
                0x08019c74                std::underflow_error::underflow_error(std::string const&)
                0x08019c74                std::underflow_error::underflow_error(std::string const&)
 .text._ZNK12_GLOBAL__N_122generic_error_category4nameEv
                0x08019c88        0x8 c:/program files (x86)/gnu tools arm embedded/4.8 2013q4/bin/../lib/gcc/arm-none-eabi/4.8.3/../../../../arm-none-eabi/lib/armv7e-m\libstdc++.a(system_error.o)
 .text._ZNK12_GLOBAL__N_121system_error_category4nameEv
                0x08019c90        0x8 c:/program files (x86)/gnu tools arm embedded/4.8 2013q4/bin/../lib/gcc/arm-none-eabi/4.8.3/../../../../arm-none-eabi/lib/armv7e-m\libstdc++.a(system_error.o)
 .text._ZNSt14error_categoryD2Ev
                0x08019c98        0xc c:/program files (x86)/gnu tools arm embedded/4.8 2013q4/bin/../lib/gcc/arm-none-eabi/4.8.3/../../../../arm-none-eabi/lib/armv7e-m\libstdc++.a(system_error.o)
                0x08019c98                std::error_category::~error_category()
                0x08019c98                std::error_category::~error_category()
 .text._ZNKSt14error_category23default_error_conditionEi
                0x08019ca4        0x8 c:/program files (x86)/gnu tools arm embedded/4.8 2013q4/bin/../lib/gcc/arm-none-eabi/4.8.3/../../../../arm-none-eabi/lib/armv7e-m\libstdc++.a(system_error.o)
                0x08019ca4                std::error_category::default_error_condition(int) const
 .text._ZNKSt14error_category10equivalentEiRKSt15error_condition
                0x08019cac       0x30 c:/program files (x86)/gnu tools arm embedded/4.8 2013q4/bin/../lib/gcc/arm-none-eabi/4.8.3/../../../../arm-none-eabi/lib/armv7e-m\libstdc++.a(system_error.o)
                0x08019cac                std::error_category::equivalent(int, std::error_condition const&) const
 .text._ZNKSt14error_category10equivalentERKSt10error_codei
                0x08019cdc       0x14 c:/program files (x86)/gnu tools arm embedded/4.8 2013q4/bin/../lib/gcc/arm-none-eabi/4.8.3/../../../../arm-none-eabi/lib/armv7e-m\libstdc++.a(system_error.o)
                0x08019cdc                std::error_category::equivalent(std::error_code const&, int) const
 .text._ZN12_GLOBAL__N_121system_error_categoryD2Ev
                0x08019cf0        0xc c:/program files (x86)/gnu tools arm embedded/4.8 2013q4/bin/../lib/gcc/arm-none-eabi/4.8.3/../../../../arm-none-eabi/lib/armv7e-m\libstdc++.a(system_error.o)
 .text._ZN12_GLOBAL__N_122generic_error_categoryD2Ev
                0x08019cfc        0xc c:/program files (x86)/gnu tools arm embedded/4.8 2013q4/bin/../lib/gcc/arm-none-eabi/4.8.3/../../../../arm-none-eabi/lib/armv7e-m\libstdc++.a(system_error.o)
 .text._ZNSt14error_categoryD0Ev
                0x08019d08       0x14 c:/program files (x86)/gnu tools arm embedded/4.8 2013q4/bin/../lib/gcc/arm-none-eabi/4.8.3/../../../../arm-none-eabi/lib/armv7e-m\libstdc++.a(system_error.o)
                0x08019d08                std::error_category::~error_category()
 .text._ZN12_GLOBAL__N_121system_error_categoryD0Ev
                0x08019d1c       0x14 c:/program files (x86)/gnu tools arm embedded/4.8 2013q4/bin/../lib/gcc/arm-none-eabi/4.8.3/../../../../arm-none-eabi/lib/armv7e-m\libstdc++.a(system_error.o)
 .text._ZN12_GLOBAL__N_122generic_error_categoryD0Ev
                0x08019d30       0x14 c:/program files (x86)/gnu tools arm embedded/4.8 2013q4/bin/../lib/gcc/arm-none-eabi/4.8.3/../../../../arm-none-eabi/lib/armv7e-m\libstdc++.a(system_error.o)
 .text._ZNSt12system_errorD2Ev
                0x08019d44       0x14 c:/program files (x86)/gnu tools arm embedded/4.8 2013q4/bin/../lib/gcc/arm-none-eabi/4.8.3/../../../../arm-none-eabi/lib/armv7e-m\libstdc++.a(system_error.o)
                0x08019d44                std::system_error::~system_error()
                0x08019d44                std::system_error::~system_error()
 .text._ZNSt12system_errorD0Ev
                0x08019d58       0x1c c:/program files (x86)/gnu tools arm embedded/4.8 2013q4/bin/../lib/gcc/arm-none-eabi/4.8.3/../../../../arm-none-eabi/lib/armv7e-m\libstdc++.a(system_error.o)
                0x08019d58                std::system_error::~system_error()
 .text._ZNK12_GLOBAL__N_121system_error_category7messageEi
                0x08019d74       0x1c c:/program files (x86)/gnu tools arm embedded/4.8 2013q4/bin/../lib/gcc/arm-none-eabi/4.8.3/../../../../arm-none-eabi/lib/armv7e-m\libstdc++.a(system_error.o)
 .text._ZNK12_GLOBAL__N_122generic_error_category7messageEi
                0x08019d90       0x1c c:/program files (x86)/gnu tools arm embedded/4.8 2013q4/bin/../lib/gcc/arm-none-eabi/4.8.3/../../../../arm-none-eabi/lib/armv7e-m\libstdc++.a(system_error.o)
 .text._ZNSt14error_categoryC2Ev
                0x08019dac        0xc c:/program files (x86)/gnu tools arm embedded/4.8 2013q4/bin/../lib/gcc/arm-none-eabi/4.8.3/../../../../arm-none-eabi/lib/armv7e-m\libstdc++.a(system_error.o)
                0x08019dac                std::error_category::error_category()
                0x08019dac                std::error_category::error_category()
 .text._ZSt15system_categoryv
                0x08019db8        0x8 c:/program files (x86)/gnu tools arm embedded/4.8 2013q4/bin/../lib/gcc/arm-none-eabi/4.8.3/../../../../arm-none-eabi/lib/armv7e-m\libstdc++.a(system_error.o)
                0x08019db8                std::system_category()
 .text._ZSt16generic_categoryv
                0x08019dc0        0x8 c:/program files (x86)/gnu tools arm embedded/4.8 2013q4/bin/../lib/gcc/arm-none-eabi/4.8.3/../../../../arm-none-eabi/lib/armv7e-m\libstdc++.a(system_error.o)
                0x08019dc0                std::generic_category()
 .text._ZNKSt10error_code23default_error_conditionEv
                0x08019dc8       0x14 c:/program files (x86)/gnu tools arm embedded/4.8 2013q4/bin/../lib/gcc/arm-none-eabi/4.8.3/../../../../arm-none-eabi/lib/armv7e-m\libstdc++.a(system_error.o)
                0x08019dc8                std::error_code::default_error_condition() const
 .text.startup._GLOBAL__sub_I__ZNSt14error_categoryC2Ev
                0x08019ddc       0x40 c:/program files (x86)/gnu tools arm embedded/4.8 2013q4/bin/../lib/gcc/arm-none-eabi/4.8.3/../../../../arm-none-eabi/lib/armv7e-m\libstdc++.a(system_error.o)
 .text._ZNK12_GLOBAL__N_121future_error_category4nameEv
                0x08019e1c        0x8 c:/program files (x86)/gnu tools arm embedded/4.8 2013q4/bin/../lib/gcc/arm-none-eabi/4.8.3/../../../../arm-none-eabi/lib/armv7e-m\libstdc++.a(future.o)
 .text._ZN12_GLOBAL__N_121future_error_categoryD2Ev
                0x08019e24       0x14 c:/program files (x86)/gnu tools arm embedded/4.8 2013q4/bin/../lib/gcc/arm-none-eabi/4.8.3/../../../../arm-none-eabi/lib/armv7e-m\libstdc++.a(future.o)
 .text._ZN12_GLOBAL__N_121future_error_categoryD0Ev
                0x08019e38       0x1c c:/program files (x86)/gnu tools arm embedded/4.8 2013q4/bin/../lib/gcc/arm-none-eabi/4.8.3/../../../../arm-none-eabi/lib/armv7e-m\libstdc++.a(future.o)
 .text._ZNSt12future_errorD2Ev
                0x08019e54       0x14 c:/program files (x86)/gnu tools arm embedded/4.8 2013q4/bin/../lib/gcc/arm-none-eabi/4.8.3/../../../../arm-none-eabi/lib/armv7e-m\libstdc++.a(future.o)
                0x08019e54                std::future_error::~future_error()
                0x08019e54                std::future_error::~future_error()
 .text._ZNSt12future_errorD0Ev
                0x08019e68       0x1c c:/program files (x86)/gnu tools arm embedded/4.8 2013q4/bin/../lib/gcc/arm-none-eabi/4.8.3/../../../../arm-none-eabi/lib/armv7e-m\libstdc++.a(future.o)
                0x08019e68                std::future_error::~future_error()
 .text._ZNKSt12future_error4whatEv
                0x08019e84       0x40 c:/program files (x86)/gnu tools arm embedded/4.8 2013q4/bin/../lib/gcc/arm-none-eabi/4.8.3/../../../../arm-none-eabi/lib/armv7e-m\libstdc++.a(future.o)
                0x08019e84                std::future_error::what() const
 .text._ZNK12_GLOBAL__N_121future_error_category7messageEi
                0x08019ec4       0x84 c:/program files (x86)/gnu tools arm embedded/4.8 2013q4/bin/../lib/gcc/arm-none-eabi/4.8.3/../../../../arm-none-eabi/lib/armv7e-m\libstdc++.a(future.o)
 .text._ZSt15future_categoryv
                0x08019f48       0x50 c:/program files (x86)/gnu tools arm embedded/4.8 2013q4/bin/../lib/gcc/arm-none-eabi/4.8.3/../../../../arm-none-eabi/lib/armv7e-m\libstdc++.a(future.o)
                0x08019f48                std::future_category()
 .text._ZNSt11regex_errorD2Ev
                0x08019f98       0x14 c:/program files (x86)/gnu tools arm embedded/4.8 2013q4/bin/../lib/gcc/arm-none-eabi/4.8.3/../../../../arm-none-eabi/lib/armv7e-m\libstdc++.a(regex.o)
                0x08019f98                std::regex_error::~regex_error()
                0x08019f98                std::regex_error::~regex_error()
 .text._ZNSt11regex_errorD0Ev
                0x08019fac       0x1c c:/program files (x86)/gnu tools arm embedded/4.8 2013q4/bin/../lib/gcc/arm-none-eabi/4.8.3/../../../../arm-none-eabi/lib/armv7e-m\libstdc++.a(regex.o)
                0x08019fac                std::regex_error::~regex_error()
 .text._ZNSt11regex_errorC2ENSt15regex_constants10error_typeE
                0x08019fc8       0x64 c:/program files (x86)/gnu tools arm embedded/4.8 2013q4/bin/../lib/gcc/arm-none-eabi/4.8.3/../../../../arm-none-eabi/lib/armv7e-m\libstdc++.a(regex.o)
                0x08019fc8                std::regex_error::regex_error(std::regex_constants::error_type)
                0x08019fc8                std::regex_error::regex_error(std::regex_constants::error_type)
 .text.__cxa_guard_acquire
                0x0801a02c       0x38 c:/program files (x86)/gnu tools arm embedded/4.8 2013q4/bin/../lib/gcc/arm-none-eabi/4.8.3/../../../../arm-none-eabi/lib/armv7e-m\libstdc++.a(guard.o)
                0x0801a02c                __cxa_guard_acquire
 .text.__cxa_guard_abort
                0x0801a064        0x8 c:/program files (x86)/gnu tools arm embedded/4.8 2013q4/bin/../lib/gcc/arm-none-eabi/4.8.3/../../../../arm-none-eabi/lib/armv7e-m\libstdc++.a(guard.o)
                0x0801a064                __cxa_guard_abort
 .text.__cxa_guard_release
                0x0801a06c        0x8 c:/program files (x86)/gnu tools arm embedded/4.8 2013q4/bin/../lib/gcc/arm-none-eabi/4.8.3/../../../../arm-none-eabi/lib/armv7e-m\libstdc++.a(guard.o)
                0x0801a06c                __cxa_guard_release
 .text._ZN9__gnu_cxx20recursive_init_errorD2Ev
                0x0801a074       0x14 c:/program files (x86)/gnu tools arm embedded/4.8 2013q4/bin/../lib/gcc/arm-none-eabi/4.8.3/../../../../arm-none-eabi/lib/armv7e-m\libstdc++.a(guard_error.o)
                0x0801a074                __gnu_cxx::recursive_init_error::~recursive_init_error()
                0x0801a074                __gnu_cxx::recursive_init_error::~recursive_init_error()
 .text._ZN9__gnu_cxx20recursive_init_errorD0Ev
                0x0801a088       0x1c c:/program files (x86)/gnu tools arm embedded/4.8 2013q4/bin/../lib/gcc/arm-none-eabi/4.8.3/../../../../arm-none-eabi/lib/armv7e-m\libstdc++.a(guard_error.o)
                0x0801a088                __gnu_cxx::recursive_init_error::~recursive_init_error()
 .text.abort    0x0801a0a4       0x10 c:/program files (x86)/gnu tools arm embedded/4.8 2013q4/bin/../lib/gcc/arm-none-eabi/4.8.3/../../../../arm-none-eabi/lib/armv7e-m\libc.a(lib_a-abort.o)
                0x0801a0a4                abort
 .text.__assert_func
                0x0801a0b4       0x3c c:/program files (x86)/gnu tools arm embedded/4.8 2013q4/bin/../lib/gcc/arm-none-eabi/4.8.3/../../../../arm-none-eabi/lib/armv7e-m\libc.a(lib_a-assert.o)
                0x0801a0b4                __assert_func
 .text.__assert
                0x0801a0f0        0xc c:/program files (x86)/gnu tools arm embedded/4.8 2013q4/bin/../lib/gcc/arm-none-eabi/4.8.3/../../../../arm-none-eabi/lib/armv7e-m\libc.a(lib_a-assert.o)
                0x0801a0f0                __assert
 .text.__cxa_atexit
                0x0801a0fc       0x14 c:/program files (x86)/gnu tools arm embedded/4.8 2013q4/bin/../lib/gcc/arm-none-eabi/4.8.3/../../../../arm-none-eabi/lib/armv7e-m\libc.a(lib_a-cxa_atexit.o)
                0x0801a0fc                __cxa_atexit
 .text.__errno  0x0801a110        0xc c:/program files (x86)/gnu tools arm embedded/4.8 2013q4/bin/../lib/gcc/arm-none-eabi/4.8.3/../../../../arm-none-eabi/lib/armv7e-m\libc.a(lib_a-errno.o)
                0x0801a110                __errno
 .text.exit     0x0801a11c       0x20 c:/program files (x86)/gnu tools arm embedded/4.8 2013q4/bin/../lib/gcc/arm-none-eabi/4.8.3/../../../../arm-none-eabi/lib/armv7e-m\libc.a(lib_a-exit.o)
                0x0801a11c                exit
 .text._fiprintf_r
                0x0801a13c       0x1c c:/program files (x86)/gnu tools arm embedded/4.8 2013q4/bin/../lib/gcc/arm-none-eabi/4.8.3/../../../../arm-none-eabi/lib/armv7e-m\libc.a(lib_a-fiprintf.o)
                0x0801a13c                _fiprintf_r
 .text.fiprintf
                0x0801a158       0x28 c:/program files (x86)/gnu tools arm embedded/4.8 2013q4/bin/../lib/gcc/arm-none-eabi/4.8.3/../../../../arm-none-eabi/lib/armv7e-m\libc.a(lib_a-fiprintf.o)
                0x0801a158                fiprintf
 .text._fputc_r
                0x0801a180       0x24 c:/program files (x86)/gnu tools arm embedded/4.8 2013q4/bin/../lib/gcc/arm-none-eabi/4.8.3/../../../../arm-none-eabi/lib/armv7e-m\libc.a(lib_a-fputc.o)
                0x0801a180                _fputc_r
 .text.fputc    0x0801a1a4       0x28 c:/program files (x86)/gnu tools arm embedded/4.8 2013q4/bin/../lib/gcc/arm-none-eabi/4.8.3/../../../../arm-none-eabi/lib/armv7e-m\libc.a(lib_a-fputc.o)
                0x0801a1a4                fputc
 .text._fputs_r
                0x0801a1cc       0x4c c:/program files (x86)/gnu tools arm embedded/4.8 2013q4/bin/../lib/gcc/arm-none-eabi/4.8.3/../../../../arm-none-eabi/lib/armv7e-m\libc.a(lib_a-fputs.o)
                0x0801a1cc                _fputs_r
 .text.fputs    0x0801a218       0x10 c:/program files (x86)/gnu tools arm embedded/4.8 2013q4/bin/../lib/gcc/arm-none-eabi/4.8.3/../../../../arm-none-eabi/lib/armv7e-m\libc.a(lib_a-fputs.o)
                0x0801a218                fputs
 .text.__sfvwrite_r
                0x0801a228      0x314 c:/program files (x86)/gnu tools arm embedded/4.8 2013q4/bin/../lib/gcc/arm-none-eabi/4.8.3/../../../../arm-none-eabi/lib/armv7e-m\libc.a(lib_a-fvwrite.o)
                0x0801a228                __sfvwrite_r
 .text._fwrite_r
                0x0801a53c       0x64 c:/program files (x86)/gnu tools arm embedded/4.8 2013q4/bin/../lib/gcc/arm-none-eabi/4.8.3/../../../../arm-none-eabi/lib/armv7e-m\libc.a(lib_a-fwrite.o)
                0x0801a53c                _fwrite_r
 .text.fwrite   0x0801a5a0       0x20 c:/program files (x86)/gnu tools arm embedded/4.8 2013q4/bin/../lib/gcc/arm-none-eabi/4.8.3/../../../../arm-none-eabi/lib/armv7e-m\libc.a(lib_a-fwrite.o)
                0x0801a5a0                fwrite
 .text.__libc_init_array
                0x0801a5c0       0x50 c:/program files (x86)/gnu tools arm embedded/4.8 2013q4/bin/../lib/gcc/arm-none-eabi/4.8.3/../../../../arm-none-eabi/lib/armv7e-m\libc.a(lib_a-init.o)
                0x0801a5c0                __libc_init_array
 .text._malloc_r
                0x0801a610      0x538 c:/program files (x86)/gnu tools arm embedded/4.8 2013q4/bin/../lib/gcc/arm-none-eabi/4.8.3/../../../../arm-none-eabi/lib/armv7e-m\libc.a(lib_a-mallocr.o)
                0x0801a610                _malloc_r
 .text.memchr   0x0801ab48       0x90 c:/program files (x86)/gnu tools arm embedded/4.8 2013q4/bin/../lib/gcc/arm-none-eabi/4.8.3/../../../../arm-none-eabi/lib/armv7e-m\libc.a(lib_a-memchr-stub.o)
                0x0801ab48                memchr
 .text.memcmp   0x0801abd8       0x68 c:/program files (x86)/gnu tools arm embedded/4.8 2013q4/bin/../lib/gcc/arm-none-eabi/4.8.3/../../../../arm-none-eabi/lib/armv7e-m\libc.a(lib_a-memcmp.o)
                0x0801abd8                memcmp
 .text.memmove  0x0801ac40       0xc0 c:/program files (x86)/gnu tools arm embedded/4.8 2013q4/bin/../lib/gcc/arm-none-eabi/4.8.3/../../../../arm-none-eabi/lib/armv7e-m\libc.a(lib_a-memmove.o)
                0x0801ac40                memmove
 .text.memset   0x0801ad00       0x94 c:/program files (x86)/gnu tools arm embedded/4.8 2013q4/bin/../lib/gcc/arm-none-eabi/4.8.3/../../../../arm-none-eabi/lib/armv7e-m\libc.a(lib_a-memset.o)
                0x0801ad00                memset
 .text.__malloc_lock
                0x0801ad94        0x4 c:/program files (x86)/gnu tools arm embedded/4.8 2013q4/bin/../lib/gcc/arm-none-eabi/4.8.3/../../../../arm-none-eabi/lib/armv7e-m\libc.a(lib_a-mlock.o)
                0x0801ad94                __malloc_lock
 .text.__malloc_unlock
                0x0801ad98        0x4 c:/program files (x86)/gnu tools arm embedded/4.8 2013q4/bin/../lib/gcc/arm-none-eabi/4.8.3/../../../../arm-none-eabi/lib/armv7e-m\libc.a(lib_a-mlock.o)
                0x0801ad98                __malloc_unlock
 .text._printf_r
                0x0801ad9c       0x20 c:/program files (x86)/gnu tools arm embedded/4.8 2013q4/bin/../lib/gcc/arm-none-eabi/4.8.3/../../../../arm-none-eabi/lib/armv7e-m\libc.a(lib_a-printf.o)
                0x0801ad9c                _printf_r
 .text.printf   0x0801adbc       0x28 c:/program files (x86)/gnu tools arm embedded/4.8 2013q4/bin/../lib/gcc/arm-none-eabi/4.8.3/../../../../arm-none-eabi/lib/armv7e-m\libc.a(lib_a-printf.o)
                0x0801adbc                printf
 .text._putc_r  0x0801ade4       0x58 c:/program files (x86)/gnu tools arm embedded/4.8 2013q4/bin/../lib/gcc/arm-none-eabi/4.8.3/../../../../arm-none-eabi/lib/armv7e-m\libc.a(lib_a-putc.o)
                0x0801ade4                _putc_r
 .text.putc     0x0801ae3c       0x60 c:/program files (x86)/gnu tools arm embedded/4.8 2013q4/bin/../lib/gcc/arm-none-eabi/4.8.3/../../../../arm-none-eabi/lib/armv7e-m\libc.a(lib_a-putc.o)
                0x0801ae3c                putc
 .text._puts_r  0x0801ae9c       0x5c c:/program files (x86)/gnu tools arm embedded/4.8 2013q4/bin/../lib/gcc/arm-none-eabi/4.8.3/../../../../arm-none-eabi/lib/armv7e-m\libc.a(lib_a-puts.o)
                0x0801ae9c                _puts_r
 .text.puts     0x0801aef8       0x10 c:/program files (x86)/gnu tools arm embedded/4.8 2013q4/bin/../lib/gcc/arm-none-eabi/4.8.3/../../../../arm-none-eabi/lib/armv7e-m\libc.a(lib_a-puts.o)
                0x0801aef8                puts
 .text.realloc  0x0801af08       0x10 c:/program files (x86)/gnu tools arm embedded/4.8 2013q4/bin/../lib/gcc/arm-none-eabi/4.8.3/../../../../arm-none-eabi/lib/armv7e-m\libc.a(lib_a-realloc.o)
                0x0801af08                realloc
 .text._realloc_r
                0x0801af18      0x3cc c:/program files (x86)/gnu tools arm embedded/4.8 2013q4/bin/../lib/gcc/arm-none-eabi/4.8.3/../../../../arm-none-eabi/lib/armv7e-m\libc.a(lib_a-reallocr.o)
                0x0801af18                _realloc_r
 .text.cleanup_glue
                0x0801b2e4       0x1c c:/program files (x86)/gnu tools arm embedded/4.8 2013q4/bin/../lib/gcc/arm-none-eabi/4.8.3/../../../../arm-none-eabi/lib/armv7e-m\libc.a(lib_a-reent.o)
                0x0801b2e4                cleanup_glue
 .text._reclaim_reent
                0x0801b300       0x90 c:/program files (x86)/gnu tools arm embedded/4.8 2013q4/bin/../lib/gcc/arm-none-eabi/4.8.3/../../../../arm-none-eabi/lib/armv7e-m\libc.a(lib_a-reent.o)
                0x0801b300                _reclaim_reent
 .text._sbrk_r  0x0801b390       0x24 c:/program files (x86)/gnu tools arm embedded/4.8 2013q4/bin/../lib/gcc/arm-none-eabi/4.8.3/../../../../arm-none-eabi/lib/armv7e-m\libc.a(lib_a-sbrkr.o)
                0x0801b390                _sbrk_r
 .text._init_signal_r
                0x0801b3b4       0x38 c:/program files (x86)/gnu tools arm embedded/4.8 2013q4/bin/../lib/gcc/arm-none-eabi/4.8.3/../../../../arm-none-eabi/lib/armv7e-m\libc.a(lib_a-signal.o)
                0x0801b3b4                _init_signal_r
 .text._signal_r
                0x0801b3ec       0x44 c:/program files (x86)/gnu tools arm embedded/4.8 2013q4/bin/../lib/gcc/arm-none-eabi/4.8.3/../../../../arm-none-eabi/lib/armv7e-m\libc.a(lib_a-signal.o)
                0x0801b3ec                _signal_r
 .text._raise_r
                0x0801b430       0x58 c:/program files (x86)/gnu tools arm embedded/4.8 2013q4/bin/../lib/gcc/arm-none-eabi/4.8.3/../../../../arm-none-eabi/lib/armv7e-m\libc.a(lib_a-signal.o)
                0x0801b430                _raise_r
 .text.__sigtramp_r
                0x0801b488       0x58 c:/program files (x86)/gnu tools arm embedded/4.8 2013q4/bin/../lib/gcc/arm-none-eabi/4.8.3/../../../../arm-none-eabi/lib/armv7e-m\libc.a(lib_a-signal.o)
                0x0801b488                __sigtramp_r
 .text.raise    0x0801b4e0       0x10 c:/program files (x86)/gnu tools arm embedded/4.8 2013q4/bin/../lib/gcc/arm-none-eabi/4.8.3/../../../../arm-none-eabi/lib/armv7e-m\libc.a(lib_a-signal.o)
                0x0801b4e0                raise
 .text.signal   0x0801b4f0       0x10 c:/program files (x86)/gnu tools arm embedded/4.8 2013q4/bin/../lib/gcc/arm-none-eabi/4.8.3/../../../../arm-none-eabi/lib/armv7e-m\libc.a(lib_a-signal.o)
                0x0801b4f0                signal
 .text._init_signal
                0x0801b500        0xc c:/program files (x86)/gnu tools arm embedded/4.8 2013q4/bin/../lib/gcc/arm-none-eabi/4.8.3/../../../../arm-none-eabi/lib/armv7e-m\libc.a(lib_a-signal.o)
                0x0801b500                _init_signal
 .text.__sigtramp
                0x0801b50c       0x10 c:/program files (x86)/gnu tools arm embedded/4.8 2013q4/bin/../lib/gcc/arm-none-eabi/4.8.3/../../../../arm-none-eabi/lib/armv7e-m\libc.a(lib_a-signal.o)
                0x0801b50c                __sigtramp
 .text._kill_r  0x0801b51c       0x28 c:/program files (x86)/gnu tools arm embedded/4.8 2013q4/bin/../lib/gcc/arm-none-eabi/4.8.3/../../../../arm-none-eabi/lib/armv7e-m\libc.a(lib_a-signalr.o)
                0x0801b51c                _kill_r
 .text._getpid_r
                0x0801b544        0x4 c:/program files (x86)/gnu tools arm embedded/4.8 2013q4/bin/../lib/gcc/arm-none-eabi/4.8.3/../../../../arm-none-eabi/lib/armv7e-m\libc.a(lib_a-signalr.o)
                0x0801b544                _getpid_r
 .text._sprintf_r
                0x0801b548       0x44 c:/program files (x86)/gnu tools arm embedded/4.8 2013q4/bin/../lib/gcc/arm-none-eabi/4.8.3/../../../../arm-none-eabi/lib/armv7e-m\libc.a(lib_a-sprintf.o)
                0x0801b548                _sprintf_r
 .text.sprintf  0x0801b58c       0x4c c:/program files (x86)/gnu tools arm embedded/4.8 2013q4/bin/../lib/gcc/arm-none-eabi/4.8.3/../../../../arm-none-eabi/lib/armv7e-m\libc.a(lib_a-sprintf.o)
                0x0801b58c                sprintf
 .text._strerror_r
                0x0801b5d8      0x39c c:/program files (x86)/gnu tools arm embedded/4.8 2013q4/bin/../lib/gcc/arm-none-eabi/4.8.3/../../../../arm-none-eabi/lib/armv7e-m\libc.a(lib_a-strerror.o)
                0x0801b5d8                _strerror_r
 .text.strerror
                0x0801b974       0x14 c:/program files (x86)/gnu tools arm embedded/4.8 2013q4/bin/../lib/gcc/arm-none-eabi/4.8.3/../../../../arm-none-eabi/lib/armv7e-m\libc.a(lib_a-strerror.o)
                0x0801b974                strerror
 .text.strlen   0x0801b988       0x60 c:/program files (x86)/gnu tools arm embedded/4.8 2013q4/bin/../lib/gcc/arm-none-eabi/4.8.3/../../../../arm-none-eabi/lib/armv7e-m\libc.a(lib_a-strlen.o)
                0x0801b988                strlen
 .text.strncmp  0x0801b9e8       0xb4 c:/program files (x86)/gnu tools arm embedded/4.8 2013q4/bin/../lib/gcc/arm-none-eabi/4.8.3/../../../../arm-none-eabi/lib/armv7e-m\libc.a(lib_a-strncmp.o)
                0x0801b9e8                strncmp
 .text._svfprintf_r
                0x0801ba9c     0x14f8 c:/program files (x86)/gnu tools arm embedded/4.8 2013q4/bin/../lib/gcc/arm-none-eabi/4.8.3/../../../../arm-none-eabi/lib/armv7e-m\libc.a(lib_a-svfprintf.o)
                0x0801ba9c                _svfprintf_r
 .text.write    0x0801cf94       0x18 c:/program files (x86)/gnu tools arm embedded/4.8 2013q4/bin/../lib/gcc/arm-none-eabi/4.8.3/../../../../arm-none-eabi/lib/armv7e-m\libc.a(lib_a-syswrite.o)
                0x0801cf94                write
 .text._user_strerror
                0x0801cfac        0x4 c:/program files (x86)/gnu tools arm embedded/4.8 2013q4/bin/../lib/gcc/arm-none-eabi/4.8.3/../../../../arm-none-eabi/lib/armv7e-m\libc.a(lib_a-u_strerr.o)
                0x0801cfac                _user_strerror
 .text.__sprint_r.part.0
                0x0801cfb0       0x78 c:/program files (x86)/gnu tools arm embedded/4.8 2013q4/bin/../lib/gcc/arm-none-eabi/4.8.3/../../../../arm-none-eabi/lib/armv7e-m\libc.a(lib_a-vfiprintf.o)
 .text.__sprint_r
                0x0801d028       0x18 c:/program files (x86)/gnu tools arm embedded/4.8 2013q4/bin/../lib/gcc/arm-none-eabi/4.8.3/../../../../arm-none-eabi/lib/armv7e-m\libc.a(lib_a-vfiprintf.o)
                0x0801d028                __sprint_r
 .text._vfiprintf_r
                0x0801d040      0xc54 c:/program files (x86)/gnu tools arm embedded/4.8 2013q4/bin/../lib/gcc/arm-none-eabi/4.8.3/../../../../arm-none-eabi/lib/armv7e-m\libc.a(lib_a-vfiprintf.o)
                0x0801d040                _vfiprintf_r
 .text.vfiprintf
                0x0801dc94       0x18 c:/program files (x86)/gnu tools arm embedded/4.8 2013q4/bin/../lib/gcc/arm-none-eabi/4.8.3/../../../../arm-none-eabi/lib/armv7e-m\libc.a(lib_a-vfiprintf.o)
                0x0801dc94                vfiprintf
 .text.__sbprintf
                0x0801dcac       0x78 c:/program files (x86)/gnu tools arm embedded/4.8 2013q4/bin/../lib/gcc/arm-none-eabi/4.8.3/../../../../arm-none-eabi/lib/armv7e-m\libc.a(lib_a-vfiprintf.o)
 .text._vfprintf_r
                0x0801dd24     0x1544 c:/program files (x86)/gnu tools arm embedded/4.8 2013q4/bin/../lib/gcc/arm-none-eabi/4.8.3/../../../../arm-none-eabi/lib/armv7e-m\libc.a(lib_a-vfprintf.o)
                0x0801dd24                _vfprintf_r
 .text.vfprintf
                0x0801f268       0x18 c:/program files (x86)/gnu tools arm embedded/4.8 2013q4/bin/../lib/gcc/arm-none-eabi/4.8.3/../../../../arm-none-eabi/lib/armv7e-m\libc.a(lib_a-vfprintf.o)
                0x0801f268                vfprintf
 .text.__sbprintf
                0x0801f280       0x78 c:/program files (x86)/gnu tools arm embedded/4.8 2013q4/bin/../lib/gcc/arm-none-eabi/4.8.3/../../../../arm-none-eabi/lib/armv7e-m\libc.a(lib_a-vfprintf.o)
 .text.__swbuf_r
                0x0801f2f8       0xa8 c:/program files (x86)/gnu tools arm embedded/4.8 2013q4/bin/../lib/gcc/arm-none-eabi/4.8.3/../../../../arm-none-eabi/lib/armv7e-m\libc.a(lib_a-wbuf.o)
                0x0801f2f8                __swbuf_r
 .text.__swbuf  0x0801f3a0       0x10 c:/program files (x86)/gnu tools arm embedded/4.8 2013q4/bin/../lib/gcc/arm-none-eabi/4.8.3/../../../../arm-none-eabi/lib/armv7e-m\libc.a(lib_a-wbuf.o)
                0x0801f3a0                __swbuf
 .text._write_r
                0x0801f3b0       0x28 c:/program files (x86)/gnu tools arm embedded/4.8 2013q4/bin/../lib/gcc/arm-none-eabi/4.8.3/../../../../arm-none-eabi/lib/armv7e-m\libc.a(lib_a-writer.o)
                0x0801f3b0                _write_r
 .text.__swsetup_r
                0x0801f3d8       0xc4 c:/program files (x86)/gnu tools arm embedded/4.8 2013q4/bin/../lib/gcc/arm-none-eabi/4.8.3/../../../../arm-none-eabi/lib/armv7e-m\libc.a(lib_a-wsetup.o)
                0x0801f3d8                __swsetup_r
 .text.__register_exitproc
                0x0801f49c       0xa8 c:/program files (x86)/gnu tools arm embedded/4.8 2013q4/bin/../lib/gcc/arm-none-eabi/4.8.3/../../../../arm-none-eabi/lib/armv7e-m\libc.a(lib_a-__atexit.o)
                0x0801f49c                __register_exitproc
 .text.startup.register_fini
                0x0801f544       0x14 c:/program files (x86)/gnu tools arm embedded/4.8 2013q4/bin/../lib/gcc/arm-none-eabi/4.8.3/../../../../arm-none-eabi/lib/armv7e-m\libc.a(lib_a-__call_atexit.o)
 .text.__call_exitprocs
                0x0801f558       0xf0 c:/program files (x86)/gnu tools arm embedded/4.8 2013q4/bin/../lib/gcc/arm-none-eabi/4.8.3/../../../../arm-none-eabi/lib/armv7e-m\libc.a(lib_a-__call_atexit.o)
                0x0801f558                __call_exitprocs
 .text.atexit   0x0801f648        0xc c:/program files (x86)/gnu tools arm embedded/4.8 2013q4/bin/../lib/gcc/arm-none-eabi/4.8.3/../../../../arm-none-eabi/lib/armv7e-m\libc.a(lib_a-atexit.o)
                0x0801f648                atexit
 .text.quorem   0x0801f654      0x130 c:/program files (x86)/gnu tools arm embedded/4.8 2013q4/bin/../lib/gcc/arm-none-eabi/4.8.3/../../../../arm-none-eabi/lib/armv7e-m\libc.a(lib_a-dtoa.o)
 *fill*         0x0801f784        0x4 
 .text._dtoa_r  0x0801f788      0xe38 c:/program files (x86)/gnu tools arm embedded/4.8 2013q4/bin/../lib/gcc/arm-none-eabi/4.8.3/../../../../arm-none-eabi/lib/armv7e-m\libc.a(lib_a-dtoa.o)
                0x0801f788                _dtoa_r
 .text.__sflush_r
                0x080205c0      0x154 c:/program files (x86)/gnu tools arm embedded/4.8 2013q4/bin/../lib/gcc/arm-none-eabi/4.8.3/../../../../arm-none-eabi/lib/armv7e-m\libc.a(lib_a-fflush.o)
                0x080205c0                __sflush_r
 .text._fflush_r
                0x08020714       0x2c c:/program files (x86)/gnu tools arm embedded/4.8 2013q4/bin/../lib/gcc/arm-none-eabi/4.8.3/../../../../arm-none-eabi/lib/armv7e-m\libc.a(lib_a-fflush.o)
                0x08020714                _fflush_r
 .text.fflush   0x08020740       0x24 c:/program files (x86)/gnu tools arm embedded/4.8 2013q4/bin/../lib/gcc/arm-none-eabi/4.8.3/../../../../arm-none-eabi/lib/armv7e-m\libc.a(lib_a-fflush.o)
                0x08020740                fflush
 .text.__fp_lock
                0x08020764        0x4 c:/program files (x86)/gnu tools arm embedded/4.8 2013q4/bin/../lib/gcc/arm-none-eabi/4.8.3/../../../../arm-none-eabi/lib/armv7e-m\libc.a(lib_a-findfp.o)
 .text.__fp_unlock
                0x08020768        0x4 c:/program files (x86)/gnu tools arm embedded/4.8 2013q4/bin/../lib/gcc/arm-none-eabi/4.8.3/../../../../arm-none-eabi/lib/armv7e-m\libc.a(lib_a-findfp.o)
 .text._cleanup_r
                0x0802076c        0xc c:/program files (x86)/gnu tools arm embedded/4.8 2013q4/bin/../lib/gcc/arm-none-eabi/4.8.3/../../../../arm-none-eabi/lib/armv7e-m\libc.a(lib_a-findfp.o)
                0x0802076c                _cleanup_r
 .text.__sfmoreglue
                0x08020778       0x30 c:/program files (x86)/gnu tools arm embedded/4.8 2013q4/bin/../lib/gcc/arm-none-eabi/4.8.3/../../../../arm-none-eabi/lib/armv7e-m\libc.a(lib_a-findfp.o)
                0x08020778                __sfmoreglue
 .text._cleanup
                0x080207a8       0x14 c:/program files (x86)/gnu tools arm embedded/4.8 2013q4/bin/../lib/gcc/arm-none-eabi/4.8.3/../../../../arm-none-eabi/lib/armv7e-m\libc.a(lib_a-findfp.o)
                0x080207a8                _cleanup
 .text.__sinit  0x080207bc       0xf4 c:/program files (x86)/gnu tools arm embedded/4.8 2013q4/bin/../lib/gcc/arm-none-eabi/4.8.3/../../../../arm-none-eabi/lib/armv7e-m\libc.a(lib_a-findfp.o)
                0x080207bc                __sinit
 .text.__sfp    0x080208b0       0x8c c:/program files (x86)/gnu tools arm embedded/4.8 2013q4/bin/../lib/gcc/arm-none-eabi/4.8.3/../../../../arm-none-eabi/lib/armv7e-m\libc.a(lib_a-findfp.o)
                0x080208b0                __sfp
 .text.__sfp_lock_acquire
                0x0802093c        0x4 c:/program files (x86)/gnu tools arm embedded/4.8 2013q4/bin/../lib/gcc/arm-none-eabi/4.8.3/../../../../arm-none-eabi/lib/armv7e-m\libc.a(lib_a-findfp.o)
                0x0802093c                __sfp_lock_acquire
 .text.__sfp_lock_release
                0x08020940        0x4 c:/program files (x86)/gnu tools arm embedded/4.8 2013q4/bin/../lib/gcc/arm-none-eabi/4.8.3/../../../../arm-none-eabi/lib/armv7e-m\libc.a(lib_a-findfp.o)
                0x08020940                __sfp_lock_release
 .text.__sinit_lock_acquire
                0x08020944        0x4 c:/program files (x86)/gnu tools arm embedded/4.8 2013q4/bin/../lib/gcc/arm-none-eabi/4.8.3/../../../../arm-none-eabi/lib/armv7e-m\libc.a(lib_a-findfp.o)
                0x08020944                __sinit_lock_acquire
 .text.__sinit_lock_release
                0x08020948        0x4 c:/program files (x86)/gnu tools arm embedded/4.8 2013q4/bin/../lib/gcc/arm-none-eabi/4.8.3/../../../../arm-none-eabi/lib/armv7e-m\libc.a(lib_a-findfp.o)
                0x08020948                __sinit_lock_release
 .text.__fp_lock_all
                0x0802094c       0x14 c:/program files (x86)/gnu tools arm embedded/4.8 2013q4/bin/../lib/gcc/arm-none-eabi/4.8.3/../../../../arm-none-eabi/lib/armv7e-m\libc.a(lib_a-findfp.o)
                0x0802094c                __fp_lock_all
 .text.__fp_unlock_all
                0x08020960       0x14 c:/program files (x86)/gnu tools arm embedded/4.8 2013q4/bin/../lib/gcc/arm-none-eabi/4.8.3/../../../../arm-none-eabi/lib/armv7e-m\libc.a(lib_a-findfp.o)
                0x08020960                __fp_unlock_all
 .text.__libc_fini_array
                0x08020974       0x30 c:/program files (x86)/gnu tools arm embedded/4.8 2013q4/bin/../lib/gcc/arm-none-eabi/4.8.3/../../../../arm-none-eabi/lib/armv7e-m\libc.a(lib_a-fini.o)
                0x08020974                __libc_fini_array
 .text._fputwc_r
                0x080209a4       0xbc c:/program files (x86)/gnu tools arm embedded/4.8 2013q4/bin/../lib/gcc/arm-none-eabi/4.8.3/../../../../arm-none-eabi/lib/armv7e-m\libc.a(lib_a-fputwc.o)
                0x080209a4                _fputwc_r
 .text.fputwc   0x08020a60       0x28 c:/program files (x86)/gnu tools arm embedded/4.8 2013q4/bin/../lib/gcc/arm-none-eabi/4.8.3/../../../../arm-none-eabi/lib/armv7e-m\libc.a(lib_a-fputwc.o)
                0x08020a60                fputwc
 .text._malloc_trim_r
                0x08020a88       0x9c c:/program files (x86)/gnu tools arm embedded/4.8 2013q4/bin/../lib/gcc/arm-none-eabi/4.8.3/../../../../arm-none-eabi/lib/armv7e-m\libc.a(lib_a-freer.o)
                0x08020a88                _malloc_trim_r
 .text._free_r  0x08020b24      0x19c c:/program files (x86)/gnu tools arm embedded/4.8 2013q4/bin/../lib/gcc/arm-none-eabi/4.8.3/../../../../arm-none-eabi/lib/armv7e-m\libc.a(lib_a-freer.o)
                0x08020b24                _free_r
 .text._fwalk   0x08020cc0       0x4c c:/program files (x86)/gnu tools arm embedded/4.8 2013q4/bin/../lib/gcc/arm-none-eabi/4.8.3/../../../../arm-none-eabi/lib/armv7e-m\libc.a(lib_a-fwalk.o)
                0x08020cc0                _fwalk
 .text._fwalk_reent
                0x08020d0c       0x50 c:/program files (x86)/gnu tools arm embedded/4.8 2013q4/bin/../lib/gcc/arm-none-eabi/4.8.3/../../../../arm-none-eabi/lib/armv7e-m\libc.a(lib_a-fwalk.o)
                0x08020d0c                _fwalk_reent
 .text._setlocale_r
                0x08020d5c       0x40 c:/program files (x86)/gnu tools arm embedded/4.8 2013q4/bin/../lib/gcc/arm-none-eabi/4.8.3/../../../../arm-none-eabi/lib/armv7e-m\libc.a(lib_a-locale.o)
                0x08020d5c                _setlocale_r
 .text.__locale_charset
                0x08020d9c        0x8 c:/program files (x86)/gnu tools arm embedded/4.8 2013q4/bin/../lib/gcc/arm-none-eabi/4.8.3/../../../../arm-none-eabi/lib/armv7e-m\libc.a(lib_a-locale.o)
                0x08020d9c                __locale_charset
 .text.__locale_mb_cur_max
                0x08020da4        0xc c:/program files (x86)/gnu tools arm embedded/4.8 2013q4/bin/../lib/gcc/arm-none-eabi/4.8.3/../../../../arm-none-eabi/lib/armv7e-m\libc.a(lib_a-locale.o)
                0x08020da4                __locale_mb_cur_max
 .text.__locale_msgcharset
                0x08020db0        0x8 c:/program files (x86)/gnu tools arm embedded/4.8 2013q4/bin/../lib/gcc/arm-none-eabi/4.8.3/../../../../arm-none-eabi/lib/armv7e-m\libc.a(lib_a-locale.o)
                0x08020db0                __locale_msgcharset
 .text.__locale_cjk_lang
                0x08020db8        0x4 c:/program files (x86)/gnu tools arm embedded/4.8 2013q4/bin/../lib/gcc/arm-none-eabi/4.8.3/../../../../arm-none-eabi/lib/armv7e-m\libc.a(lib_a-locale.o)
                0x08020db8                __locale_cjk_lang
 .text._localeconv_r
                0x08020dbc        0x8 c:/program files (x86)/gnu tools arm embedded/4.8 2013q4/bin/../lib/gcc/arm-none-eabi/4.8.3/../../../../arm-none-eabi/lib/armv7e-m\libc.a(lib_a-locale.o)
                0x08020dbc                _localeconv_r
 .text.setlocale
                0x08020dc4       0x10 c:/program files (x86)/gnu tools arm embedded/4.8 2013q4/bin/../lib/gcc/arm-none-eabi/4.8.3/../../../../arm-none-eabi/lib/armv7e-m\libc.a(lib_a-locale.o)
                0x08020dc4                setlocale
 .text.localeconv
                0x08020dd4        0x8 c:/program files (x86)/gnu tools arm embedded/4.8 2013q4/bin/../lib/gcc/arm-none-eabi/4.8.3/../../../../arm-none-eabi/lib/armv7e-m\libc.a(lib_a-locale.o)
                0x08020dd4                localeconv
 .text.__smakebuf_r
                0x08020ddc       0xe0 c:/program files (x86)/gnu tools arm embedded/4.8 2013q4/bin/../lib/gcc/arm-none-eabi/4.8.3/../../../../arm-none-eabi/lib/armv7e-m\libc.a(lib_a-makebuf.o)
                0x08020ddc                __smakebuf_r
 .text._Balloc  0x08020ebc       0x4c c:/program files (x86)/gnu tools arm embedded/4.8 2013q4/bin/../lib/gcc/arm-none-eabi/4.8.3/../../../../arm-none-eabi/lib/armv7e-m\libc.a(lib_a-mprec.o)
                0x08020ebc                _Balloc
 .text._Bfree   0x08020f08       0x14 c:/program files (x86)/gnu tools arm embedded/4.8 2013q4/bin/../lib/gcc/arm-none-eabi/4.8.3/../../../../arm-none-eabi/lib/armv7e-m\libc.a(lib_a-mprec.o)
                0x08020f08                _Bfree
 .text.__multadd
                0x08020f1c       0x98 c:/program files (x86)/gnu tools arm embedded/4.8 2013q4/bin/../lib/gcc/arm-none-eabi/4.8.3/../../../../arm-none-eabi/lib/armv7e-m\libc.a(lib_a-mprec.o)
                0x08020f1c                __multadd
 .text.__s2b    0x08020fb4       0x98 c:/program files (x86)/gnu tools arm embedded/4.8 2013q4/bin/../lib/gcc/arm-none-eabi/4.8.3/../../../../arm-none-eabi/lib/armv7e-m\libc.a(lib_a-mprec.o)
                0x08020fb4                __s2b
 .text.__hi0bits
                0x0802104c       0x40 c:/program files (x86)/gnu tools arm embedded/4.8 2013q4/bin/../lib/gcc/arm-none-eabi/4.8.3/../../../../arm-none-eabi/lib/armv7e-m\libc.a(lib_a-mprec.o)
                0x0802104c                __hi0bits
 .text.__lo0bits
                0x0802108c       0x5c c:/program files (x86)/gnu tools arm embedded/4.8 2013q4/bin/../lib/gcc/arm-none-eabi/4.8.3/../../../../arm-none-eabi/lib/armv7e-m\libc.a(lib_a-mprec.o)
                0x0802108c                __lo0bits
 .text.__i2b    0x080210e8       0x14 c:/program files (x86)/gnu tools arm embedded/4.8 2013q4/bin/../lib/gcc/arm-none-eabi/4.8.3/../../../../arm-none-eabi/lib/armv7e-m\libc.a(lib_a-mprec.o)
                0x080210e8                __i2b
 .text.__multiply
                0x080210fc      0x13c c:/program files (x86)/gnu tools arm embedded/4.8 2013q4/bin/../lib/gcc/arm-none-eabi/4.8.3/../../../../arm-none-eabi/lib/armv7e-m\libc.a(lib_a-mprec.o)
                0x080210fc                __multiply
 .text.__pow5mult
                0x08021238       0x9c c:/program files (x86)/gnu tools arm embedded/4.8 2013q4/bin/../lib/gcc/arm-none-eabi/4.8.3/../../../../arm-none-eabi/lib/armv7e-m\libc.a(lib_a-mprec.o)
                0x08021238                __pow5mult
 .text.__lshift
                0x080212d4       0xbc c:/program files (x86)/gnu tools arm embedded/4.8 2013q4/bin/../lib/gcc/arm-none-eabi/4.8.3/../../../../arm-none-eabi/lib/armv7e-m\libc.a(lib_a-mprec.o)
                0x080212d4                __lshift
 .text.__mcmp   0x08021390       0x48 c:/program files (x86)/gnu tools arm embedded/4.8 2013q4/bin/../lib/gcc/arm-none-eabi/4.8.3/../../../../arm-none-eabi/lib/armv7e-m\libc.a(lib_a-mprec.o)
                0x08021390                __mcmp
 .text.__mdiff  0x080213d8       0xd4 c:/program files (x86)/gnu tools arm embedded/4.8 2013q4/bin/../lib/gcc/arm-none-eabi/4.8.3/../../../../arm-none-eabi/lib/armv7e-m\libc.a(lib_a-mprec.o)
                0x080213d8                __mdiff
 .text.__ulp    0x080214ac       0x40 c:/program files (x86)/gnu tools arm embedded/4.8 2013q4/bin/../lib/gcc/arm-none-eabi/4.8.3/../../../../arm-none-eabi/lib/armv7e-m\libc.a(lib_a-mprec.o)
                0x080214ac                __ulp
 .text.__b2d    0x080214ec       0xb4 c:/program files (x86)/gnu tools arm embedded/4.8 2013q4/bin/../lib/gcc/arm-none-eabi/4.8.3/../../../../arm-none-eabi/lib/armv7e-m\libc.a(lib_a-mprec.o)
                0x080214ec                __b2d
 .text.__d2b    0x080215a0       0xbc c:/program files (x86)/gnu tools arm embedded/4.8 2013q4/bin/../lib/gcc/arm-none-eabi/4.8.3/../../../../arm-none-eabi/lib/armv7e-m\libc.a(lib_a-mprec.o)
                0x080215a0                __d2b
 .text.__ratio  0x0802165c       0x50 c:/program files (x86)/gnu tools arm embedded/4.8 2013q4/bin/../lib/gcc/arm-none-eabi/4.8.3/../../../../arm-none-eabi/lib/armv7e-m\libc.a(lib_a-mprec.o)
                0x0802165c                __ratio
 .text._mprec_log10
                0x080216ac       0x34 c:/program files (x86)/gnu tools arm embedded/4.8 2013q4/bin/../lib/gcc/arm-none-eabi/4.8.3/../../../../arm-none-eabi/lib/armv7e-m\libc.a(lib_a-mprec.o)
                0x080216ac                _mprec_log10
 .text.__copybits
                0x080216e0       0x48 c:/program files (x86)/gnu tools arm embedded/4.8 2013q4/bin/../lib/gcc/arm-none-eabi/4.8.3/../../../../arm-none-eabi/lib/armv7e-m\libc.a(lib_a-mprec.o)
                0x080216e0                __copybits
 .text.__any_on
                0x08021728       0x60 c:/program files (x86)/gnu tools arm embedded/4.8 2013q4/bin/../lib/gcc/arm-none-eabi/4.8.3/../../../../arm-none-eabi/lib/armv7e-m\libc.a(lib_a-mprec.o)
                0x08021728                __any_on
 .text.__sread  0x08021788       0x24 c:/program files (x86)/gnu tools arm embedded/4.8 2013q4/bin/../lib/gcc/arm-none-eabi/4.8.3/../../../../arm-none-eabi/lib/armv7e-m\libc.a(lib_a-stdio.o)
                0x08021788                __sread
 .text.__seofread
                0x080217ac        0x4 c:/program files (x86)/gnu tools arm embedded/4.8 2013q4/bin/../lib/gcc/arm-none-eabi/4.8.3/../../../../arm-none-eabi/lib/armv7e-m\libc.a(lib_a-stdio.o)
                0x080217ac                __seofread
 .text.__swrite
                0x080217b0       0x38 c:/program files (x86)/gnu tools arm embedded/4.8 2013q4/bin/../lib/gcc/arm-none-eabi/4.8.3/../../../../arm-none-eabi/lib/armv7e-m\libc.a(lib_a-stdio.o)
                0x080217b0                __swrite
 .text.__sseek  0x080217e8       0x24 c:/program files (x86)/gnu tools arm embedded/4.8 2013q4/bin/../lib/gcc/arm-none-eabi/4.8.3/../../../../arm-none-eabi/lib/armv7e-m\libc.a(lib_a-stdio.o)
                0x080217e8                __sseek
 .text.__sclose
                0x0802180c        0x8 c:/program files (x86)/gnu tools arm embedded/4.8 2013q4/bin/../lib/gcc/arm-none-eabi/4.8.3/../../../../arm-none-eabi/lib/armv7e-m\libc.a(lib_a-stdio.o)
                0x0802180c                __sclose
 .text.__ssprint_r
                0x08021814      0x100 c:/program files (x86)/gnu tools arm embedded/4.8 2013q4/bin/../lib/gcc/arm-none-eabi/4.8.3/../../../../arm-none-eabi/lib/armv7e-m\libc.a(lib_a-svfiprintf.o)
                0x08021814                __ssprint_r
 .text._svfiprintf_r
                0x08021914      0xb3c c:/program files (x86)/gnu tools arm embedded/4.8 2013q4/bin/../lib/gcc/arm-none-eabi/4.8.3/../../../../arm-none-eabi/lib/armv7e-m\libc.a(lib_a-svfiprintf.o)
                0x08021914                _svfiprintf_r
 .text._wcrtomb_r
                0x08022450       0x50 c:/program files (x86)/gnu tools arm embedded/4.8 2013q4/bin/../lib/gcc/arm-none-eabi/4.8.3/../../../../arm-none-eabi/lib/armv7e-m\libc.a(lib_a-wcrtomb.o)
                0x08022450                _wcrtomb_r
 .text.wcrtomb  0x080224a0       0x58 c:/program files (x86)/gnu tools arm embedded/4.8 2013q4/bin/../lib/gcc/arm-none-eabi/4.8.3/../../../../arm-none-eabi/lib/armv7e-m\libc.a(lib_a-wcrtomb.o)
                0x080224a0                wcrtomb
 .text.__ascii_wctomb
                0x080224f8       0x1c c:/program files (x86)/gnu tools arm embedded/4.8 2013q4/bin/../lib/gcc/arm-none-eabi/4.8.3/../../../../arm-none-eabi/lib/armv7e-m\libc.a(lib_a-wctomb_r.o)
                0x080224f8                __ascii_wctomb
 .text._wctomb_r
                0x08022514       0x30 c:/program files (x86)/gnu tools arm embedded/4.8 2013q4/bin/../lib/gcc/arm-none-eabi/4.8.3/../../../../arm-none-eabi/lib/armv7e-m\libc.a(lib_a-wctomb_r.o)
                0x08022514                _wctomb_r
 .text._calloc_r
                0x08022544       0x60 c:/program files (x86)/gnu tools arm embedded/4.8 2013q4/bin/../lib/gcc/arm-none-eabi/4.8.3/../../../../arm-none-eabi/lib/armv7e-m\libc.a(lib_a-callocr.o)
                0x08022544                _calloc_r
 .text._close_r
                0x080225a4       0x24 c:/program files (x86)/gnu tools arm embedded/4.8 2013q4/bin/../lib/gcc/arm-none-eabi/4.8.3/../../../../arm-none-eabi/lib/armv7e-m\libc.a(lib_a-closer.o)
                0x080225a4                _close_r
 .text._fclose_r
                0x080225c8       0x80 c:/program files (x86)/gnu tools arm embedded/4.8 2013q4/bin/../lib/gcc/arm-none-eabi/4.8.3/../../../../arm-none-eabi/lib/armv7e-m\libc.a(lib_a-fclose.o)
                0x080225c8                _fclose_r
 .text.fclose   0x08022648       0x10 c:/program files (x86)/gnu tools arm embedded/4.8 2013q4/bin/../lib/gcc/arm-none-eabi/4.8.3/../../../../arm-none-eabi/lib/armv7e-m\libc.a(lib_a-fclose.o)
                0x08022648                fclose
 .text._fstat_r
                0x08022658       0x28 c:/program files (x86)/gnu tools arm embedded/4.8 2013q4/bin/../lib/gcc/arm-none-eabi/4.8.3/../../../../arm-none-eabi/lib/armv7e-m\libc.a(lib_a-fstatr.o)
                0x08022658                _fstat_r
 .text._isatty_r
                0x08022680       0x24 c:/program files (x86)/gnu tools arm embedded/4.8 2013q4/bin/../lib/gcc/arm-none-eabi/4.8.3/../../../../arm-none-eabi/lib/armv7e-m\libc.a(lib_a-isattyr.o)
                0x08022680                _isatty_r
 .text._lseek_r
                0x080226a4       0x28 c:/program files (x86)/gnu tools arm embedded/4.8 2013q4/bin/../lib/gcc/arm-none-eabi/4.8.3/../../../../arm-none-eabi/lib/armv7e-m\libc.a(lib_a-lseekr.o)
                0x080226a4                _lseek_r
 .text._read_r  0x080226cc       0x28 c:/program files (x86)/gnu tools arm embedded/4.8 2013q4/bin/../lib/gcc/arm-none-eabi/4.8.3/../../../../arm-none-eabi/lib/armv7e-m\libc.a(lib_a-readr.o)
                0x080226cc                _read_r
 *fill*         0x080226f4        0x4 
 .text.ceil     0x080226f8      0x120 c:/program files (x86)/gnu tools arm embedded/4.8 2013q4/bin/../lib/gcc/arm-none-eabi/4.8.3/../../../../arm-none-eabi/lib/armv7e-m\libm.a(lib_a-s_ceil.o)
                0x080226f8                ceil
 .text.floor    0x08022818      0x120 c:/program files (x86)/gnu tools arm embedded/4.8 2013q4/bin/../lib/gcc/arm-none-eabi/4.8.3/../../../../arm-none-eabi/lib/armv7e-m\libm.a(lib_a-s_floor.o)
                0x08022818                floor
 *(.glue_7)
 .glue_7        0x00000000        0x0 linker stubs
 *(.glue_7t)
 .glue_7t       0x00000000        0x0 linker stubs
 *(.eh_frame)
 .eh_frame      0x08022938        0x0 c:/program files (x86)/gnu tools arm embedded/4.8 2013q4/bin/../lib/gcc/arm-none-eabi/4.8.3/armv7e-m/crtbegin.o
 .eh_frame      0x08022938        0x4 c:/program files (x86)/gnu tools arm embedded/4.8 2013q4/bin/../lib/gcc/arm-none-eabi/4.8.3/armv7e-m/crtend.o
 *(.init)
 .init          0x0802293c        0x4 c:/program files (x86)/gnu tools arm embedded/4.8 2013q4/bin/../lib/gcc/arm-none-eabi/4.8.3/armv7e-m/crti.o
                0x0802293c                _init
 .init          0x08022940        0x8 c:/program files (x86)/gnu tools arm embedded/4.8 2013q4/bin/../lib/gcc/arm-none-eabi/4.8.3/armv7e-m/crtn.o
 *(.fini)
 .fini          0x08022948        0x4 c:/program files (x86)/gnu tools arm embedded/4.8 2013q4/bin/../lib/gcc/arm-none-eabi/4.8.3/armv7e-m/crti.o
                0x08022948                _fini
 .fini          0x0802294c        0x8 c:/program files (x86)/gnu tools arm embedded/4.8 2013q4/bin/../lib/gcc/arm-none-eabi/4.8.3/armv7e-m/crtn.o
                0x08022954                . = ALIGN (0x4)
                0x08022954                _etext = .

.vfp11_veneer   0x08022954        0x0
 .vfp11_veneer  0x00000000        0x0 linker stubs

.v4_bx          0x08022954        0x0
 .v4_bx         0x00000000        0x0 linker stubs

.iplt           0x08022954        0x0
 .iplt          0x00000000        0x0 c:/program files (x86)/gnu tools arm embedded/4.8 2013q4/bin/../lib/gcc/arm-none-eabi/4.8.3/armv7e-m/crtbegin.o

.rodata         0x08022958     0x48f8
                0x08022958                . = ALIGN (0x4)
 *(.rodata)
 .rodata        0x08022958       0x18 ../build/obj/memp.o
 .rodata        0x08022970        0x8 ../build/obj/ip_addr.o
                0x08022970                ip_addr_broadcast
                0x08022974                ip_addr_any
 .rodata        0x08022978        0xc ../build/obj/etharp.o
                0x08022978                ethzero
                0x0802297e                ethbroadcast
 .rodata        0x08022984       0x4d ../build/obj/oscreceivedelements.o
 *fill*         0x080229d1        0x3 
 .rodata        0x080229d4     0x1000 ../build/obj/buffs_iram2.o
                0x080229d4                interleaveLUT4
                0x08022dd4                interleaveLUT3
                0x080231d4                interleaveLUT2
                0x080235d4                interleaveLUT1
 .rodata        0x080239d4      0x738 c:/program files (x86)/gnu tools arm embedded/4.8 2013q4/bin/../lib/gcc/arm-none-eabi/4.8.3/../../../../arm-none-eabi/lib/armv7e-m\libstdc++.a(cp-demangle.o)
 *(.rodata*)
 .rodata.str1.1
                0x0802410c      0x205 ../build/obj/bget.o
                                0x206 (size before relaxing)
 .rodata.str1.1
                0x08024311       0x31 ../build/obj/stm32f4x7_eth.o
 .rodata.str1.1
                0x08024342       0x2e ../build/obj/misc.o
 .rodata.str1.1
                0x08024370       0x37 ../build/obj/stm32f4xx_dma.o
 .rodata.str1.1
                0x080243a7       0x38 ../build/obj/stm32f4xx_exti.o
 .rodata.str1.1
                0x080243df       0x38 ../build/obj/stm32f4xx_gpio.o
 .rodata.str1.1
                0x08024417       0x37 ../build/obj/stm32f4xx_rcc.o
 .rodata.str1.1
                0x0802444e       0x3a ../build/obj/stm32f4xx_syscfg.o
 .rodata.str1.1
                0x08024488       0x37 ../build/obj/stm32f4xx_tim.o
 *fill*         0x080244bf        0x1 
 .rodata._ZTIN3osc9ExceptionE
                0x080244c0        0xc ../build/obj/oscreceivedelements.o
                0x080244c0                typeinfo for osc::Exception
 .rodata._ZTSN3osc9ExceptionE
                0x080244cc       0x11 ../build/obj/oscreceivedelements.o
                0x080244cc                typeinfo name for osc::Exception
 *fill*         0x080244dd        0x3 
 .rodata._ZTIN3osc25MalformedMessageExceptionE
                0x080244e0        0xc ../build/obj/oscreceivedelements.o
                0x080244e0                typeinfo for osc::MalformedMessageException
 .rodata._ZTSN3osc25MalformedMessageExceptionE
                0x080244ec       0x22 ../build/obj/oscreceivedelements.o
                0x080244ec                typeinfo name for osc::MalformedMessageException
 *fill*         0x0802450e        0x2 
 .rodata._ZTIN3osc24MalformedBundleExceptionE
                0x08024510        0xc ../build/obj/oscreceivedelements.o
                0x08024510                typeinfo for osc::MalformedBundleException
 .rodata._ZTSN3osc24MalformedBundleExceptionE
                0x0802451c       0x21 ../build/obj/oscreceivedelements.o
                0x0802451c                typeinfo name for osc::MalformedBundleException
 *fill*         0x0802453d        0x3 
 .rodata._ZTIN3osc26WrongArgumentTypeExceptionE
                0x08024540        0xc ../build/obj/oscreceivedelements.o
                0x08024540                typeinfo for osc::WrongArgumentTypeException
 .rodata._ZTSN3osc26WrongArgumentTypeExceptionE
                0x0802454c       0x23 ../build/obj/oscreceivedelements.o
                0x0802454c                typeinfo name for osc::WrongArgumentTypeException
 *fill*         0x0802456f        0x1 
 .rodata._ZTIN3osc24MissingArgumentExceptionE
                0x08024570        0xc ../build/obj/oscreceivedelements.o
                0x08024570                typeinfo for osc::MissingArgumentException
 .rodata._ZTSN3osc24MissingArgumentExceptionE
                0x0802457c       0x21 ../build/obj/oscreceivedelements.o
                0x0802457c                typeinfo name for osc::MissingArgumentException
 *fill*         0x0802459d        0x3 
 .rodata._ZTVN3osc9ExceptionE
                0x080245a0       0x18 ../build/obj/oscreceivedelements.o
                0x080245a0                vtable for osc::Exception
 .rodata._ZTVN3osc25MalformedMessageExceptionE
                0x080245b8       0x18 ../build/obj/oscreceivedelements.o
                0x080245b8                vtable for osc::MalformedMessageException
 .rodata._ZTVN3osc24MalformedBundleExceptionE
                0x080245d0       0x18 ../build/obj/oscreceivedelements.o
                0x080245d0                vtable for osc::MalformedBundleException
 .rodata._ZTVN3osc26WrongArgumentTypeExceptionE
                0x080245e8       0x18 ../build/obj/oscreceivedelements.o
                0x080245e8                vtable for osc::WrongArgumentTypeException
 .rodata._ZTVN3osc24MissingArgumentExceptionE
                0x08024600       0x18 ../build/obj/oscreceivedelements.o
                0x08024600                vtable for osc::MissingArgumentException
 .rodata.str1.1
                0x08024618      0x2c9 ../build/obj/oscreceivedelements.o
 *fill*         0x080248e1        0x3 
 .rodata._ZTIFhP4pbufE
                0x080248e4        0x8 ../build/obj/udp_color_server.o
                0x080248e4                typeinfo for unsigned char (pbuf*)
 .rodata._ZTSFhP4pbufE
                0x080248ec        0xa ../build/obj/udp_color_server.o
                0x080248ec                typeinfo name for unsigned char (pbuf*)
 *fill*         0x080248f6        0x2 
 .rodata._ZTISt11_Mutex_baseILN9__gnu_cxx12_Lock_policyE0EE
                0x080248f8        0x8 ../build/obj/udp_color_server.o
                0x080248f8                typeinfo for std::_Mutex_base<(__gnu_cxx::_Lock_policy)0>
 .rodata._ZTSSt11_Mutex_baseILN9__gnu_cxx12_Lock_policyE0EE
                0x08024900       0x2f ../build/obj/udp_color_server.o
                0x08024900                typeinfo name for std::_Mutex_base<(__gnu_cxx::_Lock_policy)0>
 *fill*         0x0802492f        0x1 
 .rodata._ZTIPFhP4pbufE
                0x08024930       0x10 ../build/obj/udp_color_server.o
                0x08024930                typeinfo for unsigned char (*)(pbuf*)
 .rodata._ZTSPFhP4pbufE
                0x08024940        0xb ../build/obj/udp_color_server.o
                0x08024940                typeinfo name for unsigned char (*)(pbuf*)
 *fill*         0x0802494b        0x1 
 .rodata._ZTISt16_Sp_counted_baseILN9__gnu_cxx12_Lock_policyE0EE
                0x0802494c        0xc ../build/obj/udp_color_server.o
                0x0802494c                typeinfo for std::_Sp_counted_base<(__gnu_cxx::_Lock_policy)0>
 .rodata._ZTSSt16_Sp_counted_baseILN9__gnu_cxx12_Lock_policyE0EE
                0x08024958       0x34 ../build/obj/udp_color_server.o
                0x08024958                typeinfo name for std::_Sp_counted_base<(__gnu_cxx::_Lock_policy)0>
 .rodata._ZTISt19_Sp_make_shared_tag
                0x0802498c        0x8 ../build/obj/udp_color_server.o
                0x0802498c                typeinfo for std::_Sp_make_shared_tag
 .rodata._ZTSSt19_Sp_make_shared_tag
                0x08024994       0x18 ../build/obj/udp_color_server.o
                0x08024994                typeinfo name for std::_Sp_make_shared_tag
 .rodata._ZTISt19_Sp_counted_deleterIP4pbufPFhS1_ESaIiELN9__gnu_cxx12_Lock_policyE0EE
                0x080249ac        0xc ../build/obj/udp_color_server.o
                0x080249ac                typeinfo for std::_Sp_counted_deleter<pbuf*, unsigned char (*)(pbuf*), std::allocator<int>, (__gnu_cxx::_Lock_policy)0>
 .rodata._ZTSSt19_Sp_counted_deleterIP4pbufPFhS1_ESaIiELN9__gnu_cxx12_Lock_policyE0EE
                0x080249b8       0x49 ../build/obj/udp_color_server.o
                0x080249b8                typeinfo name for std::_Sp_counted_deleter<pbuf*, unsigned char (*)(pbuf*), std::allocator<int>, (__gnu_cxx::_Lock_policy)0>
 *fill*         0x08024a01        0x3 
 .rodata._ZTISt23_Sp_counted_ptr_inplaceIN10GrizzlyLib9ObjectPtrESaIS1_ELN9__gnu_cxx12_Lock_policyE0EE
                0x08024a04        0xc ../build/obj/udp_color_server.o
                0x08024a04                typeinfo for std::_Sp_counted_ptr_inplace<GrizzlyLib::ObjectPtr, std::allocator<GrizzlyLib::ObjectPtr>, (__gnu_cxx::_Lock_policy)0>
 .rodata._ZTSSt23_Sp_counted_ptr_inplaceIN10GrizzlyLib9ObjectPtrESaIS1_ELN9__gnu_cxx12_Lock_policyE0EE
                0x08024a10       0x5a ../build/obj/udp_color_server.o
                0x08024a10                typeinfo name for std::_Sp_counted_ptr_inplace<GrizzlyLib::ObjectPtr, std::allocator<GrizzlyLib::ObjectPtr>, (__gnu_cxx::_Lock_policy)0>
 *fill*         0x08024a6a        0x2 
 .rodata._ZTISt23_Sp_counted_ptr_inplaceIN10GrizzlyLib13ElementBufferINS0_10ARGBFormatEEESaIS3_ELN9__gnu_cxx12_Lock_policyE0EE
                0x08024a6c        0xc ../build/obj/udp_color_server.o
                0x08024a6c                typeinfo for std::_Sp_counted_ptr_inplace<GrizzlyLib::ElementBuffer<GrizzlyLib::ARGBFormat>, std::allocator<GrizzlyLib::ElementBuffer<GrizzlyLib::ARGBFormat> >, (__gnu_cxx::_Lock_policy)0>
 .rodata._ZTSSt23_Sp_counted_ptr_inplaceIN10GrizzlyLib13ElementBufferINS0_10ARGBFormatEEESaIS3_ELN9__gnu_cxx12_Lock_policyE0EE
                0x08024a78       0x72 ../build/obj/udp_color_server.o
                0x08024a78                typeinfo name for std::_Sp_counted_ptr_inplace<GrizzlyLib::ElementBuffer<GrizzlyLib::ARGBFormat>, std::allocator<GrizzlyLib::ElementBuffer<GrizzlyLib::ARGBFormat> >, (__gnu_cxx::_Lock_policy)0>
 *fill*         0x08024aea        0x6 
 .rodata._ZTVSt16_Sp_counted_baseILN9__gnu_cxx12_Lock_policyE0EE
                0x08024af0       0x20 ../build/obj/udp_color_server.o
                0x08024af0                vtable for std::_Sp_counted_base<(__gnu_cxx::_Lock_policy)0>
 .rodata._ZTVSt19_Sp_counted_deleterIP4pbufPFhS1_ESaIiELN9__gnu_cxx12_Lock_policyE0EE
                0x08024b10       0x20 ../build/obj/udp_color_server.o
                0x08024b10                vtable for std::_Sp_counted_deleter<pbuf*, unsigned char (*)(pbuf*), std::allocator<int>, (__gnu_cxx::_Lock_policy)0>
 .rodata._ZTVSt23_Sp_counted_ptr_inplaceIN10GrizzlyLib9ObjectPtrESaIS1_ELN9__gnu_cxx12_Lock_policyE0EE
                0x08024b30       0x20 ../build/obj/udp_color_server.o
                0x08024b30                vtable for std::_Sp_counted_ptr_inplace<GrizzlyLib::ObjectPtr, std::allocator<GrizzlyLib::ObjectPtr>, (__gnu_cxx::_Lock_policy)0>
 .rodata._ZTVSt23_Sp_counted_ptr_inplaceIN10GrizzlyLib13ElementBufferINS0_10ARGBFormatEEESaIS3_ELN9__gnu_cxx12_Lock_policyE0EE
                0x08024b50       0x20 ../build/obj/udp_color_server.o
                0x08024b50                vtable for std::_Sp_counted_ptr_inplace<GrizzlyLib::ElementBuffer<GrizzlyLib::ARGBFormat>, std::allocator<GrizzlyLib::ElementBuffer<GrizzlyLib::ARGBFormat> >, (__gnu_cxx::_Lock_policy)0>
 .rodata.str1.1
                0x08024b70       0x48 ../build/obj/udp_color_server.o
                                 0x54 (size before relaxing)
 .rodata.str1.4
                0x08024bb8        0x4 c:/program files (x86)/gnu tools arm embedded/4.8 2013q4/bin/../lib/gcc/arm-none-eabi/4.8.3/../../../../arm-none-eabi/lib/armv7e-m\libm.a(lib_a-w_pow.o)
 *fill*         0x08024bbc        0x4 
 .rodata.dp_h   0x08024bc0       0x10 c:/program files (x86)/gnu tools arm embedded/4.8 2013q4/bin/../lib/gcc/arm-none-eabi/4.8.3/../../../../arm-none-eabi/lib/armv7e-m\libm.a(lib_a-e_pow.o)
 .rodata.dp_l   0x08024bd0       0x10 c:/program files (x86)/gnu tools arm embedded/4.8 2013q4/bin/../lib/gcc/arm-none-eabi/4.8.3/../../../../arm-none-eabi/lib/armv7e-m\libm.a(lib_a-e_pow.o)
 .rodata.bp     0x08024be0       0x10 c:/program files (x86)/gnu tools arm embedded/4.8 2013q4/bin/../lib/gcc/arm-none-eabi/4.8.3/../../../../arm-none-eabi/lib/armv7e-m\libm.a(lib_a-e_pow.o)
 .rodata.str1.4
                0x00000000        0x4 c:/program files (x86)/gnu tools arm embedded/4.8 2013q4/bin/../lib/gcc/arm-none-eabi/4.8.3/../../../../arm-none-eabi/lib/armv7e-m\libm.a(lib_a-e_pow.o)
 .rodata.TWO52  0x08024bf0       0x10 c:/program files (x86)/gnu tools arm embedded/4.8 2013q4/bin/../lib/gcc/arm-none-eabi/4.8.3/../../../../arm-none-eabi/lib/armv7e-m\libm.a(lib_a-s_rint.o)
 .rodata._ZTSN10__cxxabiv119__pointer_type_infoE
                0x08024c00       0x24 c:/program files (x86)/gnu tools arm embedded/4.8 2013q4/bin/../lib/gcc/arm-none-eabi/4.8.3/../../../../arm-none-eabi/lib/armv7e-m\libstdc++.a(pointer_type_info.o)
                0x08024c00                typeinfo name for __cxxabiv1::__pointer_type_info
 .rodata._ZTIN10__cxxabiv119__pointer_type_infoE
                0x08024c24        0xc c:/program files (x86)/gnu tools arm embedded/4.8 2013q4/bin/../lib/gcc/arm-none-eabi/4.8.3/../../../../arm-none-eabi/lib/armv7e-m\libstdc++.a(pointer_type_info.o)
                0x08024c24                typeinfo for __cxxabiv1::__pointer_type_info
 .rodata._ZTVN10__cxxabiv119__pointer_type_infoE
                0x08024c30       0x28 c:/program files (x86)/gnu tools arm embedded/4.8 2013q4/bin/../lib/gcc/arm-none-eabi/4.8.3/../../../../arm-none-eabi/lib/armv7e-m\libstdc++.a(pointer_type_info.o)
                0x08024c30                vtable for __cxxabiv1::__pointer_type_info
 .rodata._ZTSv  0x08024c58        0x4 c:/program files (x86)/gnu tools arm embedded/4.8 2013q4/bin/../lib/gcc/arm-none-eabi/4.8.3/../../../../arm-none-eabi/lib/armv7e-m\libstdc++.a(fundamental_type_info.o)
                0x08024c58                typeinfo name for void
 .rodata._ZTSPv
                0x08024c5c        0x4 c:/program files (x86)/gnu tools arm embedded/4.8 2013q4/bin/../lib/gcc/arm-none-eabi/4.8.3/../../../../arm-none-eabi/lib/armv7e-m\libstdc++.a(fundamental_type_info.o)
                0x08024c5c                typeinfo name for void*
 .rodata._ZTSPKv
                0x08024c60        0x4 c:/program files (x86)/gnu tools arm embedded/4.8 2013q4/bin/../lib/gcc/arm-none-eabi/4.8.3/../../../../arm-none-eabi/lib/armv7e-m\libstdc++.a(fundamental_type_info.o)
                0x08024c60                typeinfo name for void const*
 .rodata._ZTSb  0x08024c64        0x4 c:/program files (x86)/gnu tools arm embedded/4.8 2013q4/bin/../lib/gcc/arm-none-eabi/4.8.3/../../../../arm-none-eabi/lib/armv7e-m\libstdc++.a(fundamental_type_info.o)
                0x08024c64                typeinfo name for bool
 .rodata._ZTSPb
                0x08024c68        0x4 c:/program files (x86)/gnu tools arm embedded/4.8 2013q4/bin/../lib/gcc/arm-none-eabi/4.8.3/../../../../arm-none-eabi/lib/armv7e-m\libstdc++.a(fundamental_type_info.o)
                0x08024c68                typeinfo name for bool*
 .rodata._ZTSPKb
                0x08024c6c        0x4 c:/program files (x86)/gnu tools arm embedded/4.8 2013q4/bin/../lib/gcc/arm-none-eabi/4.8.3/../../../../arm-none-eabi/lib/armv7e-m\libstdc++.a(fundamental_type_info.o)
                0x08024c6c                typeinfo name for bool const*
 .rodata._ZTSw  0x08024c70        0x4 c:/program files (x86)/gnu tools arm embedded/4.8 2013q4/bin/../lib/gcc/arm-none-eabi/4.8.3/../../../../arm-none-eabi/lib/armv7e-m\libstdc++.a(fundamental_type_info.o)
                0x08024c70                typeinfo name for wchar_t
 .rodata._ZTSPw
                0x08024c74        0x4 c:/program files (x86)/gnu tools arm embedded/4.8 2013q4/bin/../lib/gcc/arm-none-eabi/4.8.3/../../../../arm-none-eabi/lib/armv7e-m\libstdc++.a(fundamental_type_info.o)
                0x08024c74                typeinfo name for wchar_t*
 .rodata._ZTSPKw
                0x08024c78        0x4 c:/program files (x86)/gnu tools arm embedded/4.8 2013q4/bin/../lib/gcc/arm-none-eabi/4.8.3/../../../../arm-none-eabi/lib/armv7e-m\libstdc++.a(fundamental_type_info.o)
                0x08024c78                typeinfo name for wchar_t const*
 .rodata._ZTSDs
                0x08024c7c        0x4 c:/program files (x86)/gnu tools arm embedded/4.8 2013q4/bin/../lib/gcc/arm-none-eabi/4.8.3/../../../../arm-none-eabi/lib/armv7e-m\libstdc++.a(fundamental_type_info.o)
                0x08024c7c                typeinfo name for char16_t
 .rodata._ZTSPDs
                0x08024c80        0x4 c:/program files (x86)/gnu tools arm embedded/4.8 2013q4/bin/../lib/gcc/arm-none-eabi/4.8.3/../../../../arm-none-eabi/lib/armv7e-m\libstdc++.a(fundamental_type_info.o)
                0x08024c80                typeinfo name for char16_t*
 .rodata._ZTSPKDs
                0x08024c84        0x8 c:/program files (x86)/gnu tools arm embedded/4.8 2013q4/bin/../lib/gcc/arm-none-eabi/4.8.3/../../../../arm-none-eabi/lib/armv7e-m\libstdc++.a(fundamental_type_info.o)
                0x08024c84                typeinfo name for char16_t const*
 .rodata._ZTSDi
                0x08024c8c        0x4 c:/program files (x86)/gnu tools arm embedded/4.8 2013q4/bin/../lib/gcc/arm-none-eabi/4.8.3/../../../../arm-none-eabi/lib/armv7e-m\libstdc++.a(fundamental_type_info.o)
                0x08024c8c                typeinfo name for char32_t
 .rodata._ZTSPDi
                0x08024c90        0x4 c:/program files (x86)/gnu tools arm embedded/4.8 2013q4/bin/../lib/gcc/arm-none-eabi/4.8.3/../../../../arm-none-eabi/lib/armv7e-m\libstdc++.a(fundamental_type_info.o)
                0x08024c90                typeinfo name for char32_t*
 .rodata._ZTSPKDi
                0x08024c94        0x8 c:/program files (x86)/gnu tools arm embedded/4.8 2013q4/bin/../lib/gcc/arm-none-eabi/4.8.3/../../../../arm-none-eabi/lib/armv7e-m\libstdc++.a(fundamental_type_info.o)
                0x08024c94                typeinfo name for char32_t const*
 .rodata._ZTSc  0x08024c9c        0x4 c:/program files (x86)/gnu tools arm embedded/4.8 2013q4/bin/../lib/gcc/arm-none-eabi/4.8.3/../../../../arm-none-eabi/lib/armv7e-m\libstdc++.a(fundamental_type_info.o)
                0x08024c9c                typeinfo name for char
 .rodata._ZTSPc
                0x08024ca0        0x4 c:/program files (x86)/gnu tools arm embedded/4.8 2013q4/bin/../lib/gcc/arm-none-eabi/4.8.3/../../../../arm-none-eabi/lib/armv7e-m\libstdc++.a(fundamental_type_info.o)
                0x08024ca0                typeinfo name for char*
 .rodata._ZTSPKc
                0x08024ca4        0x4 c:/program files (x86)/gnu tools arm embedded/4.8 2013q4/bin/../lib/gcc/arm-none-eabi/4.8.3/../../../../arm-none-eabi/lib/armv7e-m\libstdc++.a(fundamental_type_info.o)
                0x08024ca4                typeinfo name for char const*
 .rodata._ZTSa  0x08024ca8        0x4 c:/program files (x86)/gnu tools arm embedded/4.8 2013q4/bin/../lib/gcc/arm-none-eabi/4.8.3/../../../../arm-none-eabi/lib/armv7e-m\libstdc++.a(fundamental_type_info.o)
                0x08024ca8                typeinfo name for signed char
 .rodata._ZTSPa
                0x08024cac        0x4 c:/program files (x86)/gnu tools arm embedded/4.8 2013q4/bin/../lib/gcc/arm-none-eabi/4.8.3/../../../../arm-none-eabi/lib/armv7e-m\libstdc++.a(fundamental_type_info.o)
                0x08024cac                typeinfo name for signed char*
 .rodata._ZTSPKa
                0x08024cb0        0x4 c:/program files (x86)/gnu tools arm embedded/4.8 2013q4/bin/../lib/gcc/arm-none-eabi/4.8.3/../../../../arm-none-eabi/lib/armv7e-m\libstdc++.a(fundamental_type_info.o)
                0x08024cb0                typeinfo name for signed char const*
 .rodata._ZTSh  0x08024cb4        0x4 c:/program files (x86)/gnu tools arm embedded/4.8 2013q4/bin/../lib/gcc/arm-none-eabi/4.8.3/../../../../arm-none-eabi/lib/armv7e-m\libstdc++.a(fundamental_type_info.o)
                0x08024cb4                typeinfo name for unsigned char
 .rodata._ZTSPh
                0x08024cb8        0x4 c:/program files (x86)/gnu tools arm embedded/4.8 2013q4/bin/../lib/gcc/arm-none-eabi/4.8.3/../../../../arm-none-eabi/lib/armv7e-m\libstdc++.a(fundamental_type_info.o)
                0x08024cb8                typeinfo name for unsigned char*
 .rodata._ZTSPKh
                0x08024cbc        0x4 c:/program files (x86)/gnu tools arm embedded/4.8 2013q4/bin/../lib/gcc/arm-none-eabi/4.8.3/../../../../arm-none-eabi/lib/armv7e-m\libstdc++.a(fundamental_type_info.o)
                0x08024cbc                typeinfo name for unsigned char const*
 .rodata._ZTSs  0x08024cc0        0x4 c:/program files (x86)/gnu tools arm embedded/4.8 2013q4/bin/../lib/gcc/arm-none-eabi/4.8.3/../../../../arm-none-eabi/lib/armv7e-m\libstdc++.a(fundamental_type_info.o)
                0x08024cc0                typeinfo name for short
 .rodata._ZTSPs
                0x08024cc4        0x4 c:/program files (x86)/gnu tools arm embedded/4.8 2013q4/bin/../lib/gcc/arm-none-eabi/4.8.3/../../../../arm-none-eabi/lib/armv7e-m\libstdc++.a(fundamental_type_info.o)
                0x08024cc4                typeinfo name for short*
 .rodata._ZTSPKs
                0x08024cc8        0x4 c:/program files (x86)/gnu tools arm embedded/4.8 2013q4/bin/../lib/gcc/arm-none-eabi/4.8.3/../../../../arm-none-eabi/lib/armv7e-m\libstdc++.a(fundamental_type_info.o)
                0x08024cc8                typeinfo name for short const*
 .rodata._ZTSt  0x08024ccc        0x4 c:/program files (x86)/gnu tools arm embedded/4.8 2013q4/bin/../lib/gcc/arm-none-eabi/4.8.3/../../../../arm-none-eabi/lib/armv7e-m\libstdc++.a(fundamental_type_info.o)
                0x08024ccc                typeinfo name for unsigned short
 .rodata._ZTSPt
                0x08024cd0        0x4 c:/program files (x86)/gnu tools arm embedded/4.8 2013q4/bin/../lib/gcc/arm-none-eabi/4.8.3/../../../../arm-none-eabi/lib/armv7e-m\libstdc++.a(fundamental_type_info.o)
                0x08024cd0                typeinfo name for unsigned short*
 .rodata._ZTSPKt
                0x08024cd4        0x4 c:/program files (x86)/gnu tools arm embedded/4.8 2013q4/bin/../lib/gcc/arm-none-eabi/4.8.3/../../../../arm-none-eabi/lib/armv7e-m\libstdc++.a(fundamental_type_info.o)
                0x08024cd4                typeinfo name for unsigned short const*
 .rodata._ZTSi  0x08024cd8        0x4 c:/program files (x86)/gnu tools arm embedded/4.8 2013q4/bin/../lib/gcc/arm-none-eabi/4.8.3/../../../../arm-none-eabi/lib/armv7e-m\libstdc++.a(fundamental_type_info.o)
                0x08024cd8                typeinfo name for int
 .rodata._ZTSPi
                0x08024cdc        0x4 c:/program files (x86)/gnu tools arm embedded/4.8 2013q4/bin/../lib/gcc/arm-none-eabi/4.8.3/../../../../arm-none-eabi/lib/armv7e-m\libstdc++.a(fundamental_type_info.o)
                0x08024cdc                typeinfo name for int*
 .rodata._ZTSPKi
                0x08024ce0        0x4 c:/program files (x86)/gnu tools arm embedded/4.8 2013q4/bin/../lib/gcc/arm-none-eabi/4.8.3/../../../../arm-none-eabi/lib/armv7e-m\libstdc++.a(fundamental_type_info.o)
                0x08024ce0                typeinfo name for int const*
 .rodata._ZTSj  0x08024ce4        0x4 c:/program files (x86)/gnu tools arm embedded/4.8 2013q4/bin/../lib/gcc/arm-none-eabi/4.8.3/../../../../arm-none-eabi/lib/armv7e-m\libstdc++.a(fundamental_type_info.o)
                0x08024ce4                typeinfo name for unsigned int
 .rodata._ZTSPj
                0x08024ce8        0x4 c:/program files (x86)/gnu tools arm embedded/4.8 2013q4/bin/../lib/gcc/arm-none-eabi/4.8.3/../../../../arm-none-eabi/lib/armv7e-m\libstdc++.a(fundamental_type_info.o)
                0x08024ce8                typeinfo name for unsigned int*
 .rodata._ZTSPKj
                0x08024cec        0x4 c:/program files (x86)/gnu tools arm embedded/4.8 2013q4/bin/../lib/gcc/arm-none-eabi/4.8.3/../../../../arm-none-eabi/lib/armv7e-m\libstdc++.a(fundamental_type_info.o)
                0x08024cec                typeinfo name for unsigned int const*
 .rodata._ZTSl  0x08024cf0        0x4 c:/program files (x86)/gnu tools arm embedded/4.8 2013q4/bin/../lib/gcc/arm-none-eabi/4.8.3/../../../../arm-none-eabi/lib/armv7e-m\libstdc++.a(fundamental_type_info.o)
                0x08024cf0                typeinfo name for long
 .rodata._ZTSPl
                0x08024cf4        0x4 c:/program files (x86)/gnu tools arm embedded/4.8 2013q4/bin/../lib/gcc/arm-none-eabi/4.8.3/../../../../arm-none-eabi/lib/armv7e-m\libstdc++.a(fundamental_type_info.o)
                0x08024cf4                typeinfo name for long*
 .rodata._ZTSPKl
                0x08024cf8        0x4 c:/program files (x86)/gnu tools arm embedded/4.8 2013q4/bin/../lib/gcc/arm-none-eabi/4.8.3/../../../../arm-none-eabi/lib/armv7e-m\libstdc++.a(fundamental_type_info.o)
                0x08024cf8                typeinfo name for long const*
 .rodata._ZTSm  0x08024cfc        0x4 c:/program files (x86)/gnu tools arm embedded/4.8 2013q4/bin/../lib/gcc/arm-none-eabi/4.8.3/../../../../arm-none-eabi/lib/armv7e-m\libstdc++.a(fundamental_type_info.o)
                0x08024cfc                typeinfo name for unsigned long
 .rodata._ZTSPm
                0x08024d00        0x4 c:/program files (x86)/gnu tools arm embedded/4.8 2013q4/bin/../lib/gcc/arm-none-eabi/4.8.3/../../../../arm-none-eabi/lib/armv7e-m\libstdc++.a(fundamental_type_info.o)
                0x08024d00                typeinfo name for unsigned long*
 .rodata._ZTSPKm
                0x08024d04        0x4 c:/program files (x86)/gnu tools arm embedded/4.8 2013q4/bin/../lib/gcc/arm-none-eabi/4.8.3/../../../../arm-none-eabi/lib/armv7e-m\libstdc++.a(fundamental_type_info.o)
                0x08024d04                typeinfo name for unsigned long const*
 .rodata._ZTSx  0x08024d08        0x4 c:/program files (x86)/gnu tools arm embedded/4.8 2013q4/bin/../lib/gcc/arm-none-eabi/4.8.3/../../../../arm-none-eabi/lib/armv7e-m\libstdc++.a(fundamental_type_info.o)
                0x08024d08                typeinfo name for long long
 .rodata._ZTSPx
                0x08024d0c        0x4 c:/program files (x86)/gnu tools arm embedded/4.8 2013q4/bin/../lib/gcc/arm-none-eabi/4.8.3/../../../../arm-none-eabi/lib/armv7e-m\libstdc++.a(fundamental_type_info.o)
                0x08024d0c                typeinfo name for long long*
 .rodata._ZTSPKx
                0x08024d10        0x4 c:/program files (x86)/gnu tools arm embedded/4.8 2013q4/bin/../lib/gcc/arm-none-eabi/4.8.3/../../../../arm-none-eabi/lib/armv7e-m\libstdc++.a(fundamental_type_info.o)
                0x08024d10                typeinfo name for long long const*
 .rodata._ZTSy  0x08024d14        0x4 c:/program files (x86)/gnu tools arm embedded/4.8 2013q4/bin/../lib/gcc/arm-none-eabi/4.8.3/../../../../arm-none-eabi/lib/armv7e-m\libstdc++.a(fundamental_type_info.o)
                0x08024d14                typeinfo name for unsigned long long
 .rodata._ZTSPy
                0x08024d18        0x4 c:/program files (x86)/gnu tools arm embedded/4.8 2013q4/bin/../lib/gcc/arm-none-eabi/4.8.3/../../../../arm-none-eabi/lib/armv7e-m\libstdc++.a(fundamental_type_info.o)
                0x08024d18                typeinfo name for unsigned long long*
 .rodata._ZTSPKy
                0x08024d1c        0x4 c:/program files (x86)/gnu tools arm embedded/4.8 2013q4/bin/../lib/gcc/arm-none-eabi/4.8.3/../../../../arm-none-eabi/lib/armv7e-m\libstdc++.a(fundamental_type_info.o)
                0x08024d1c                typeinfo name for unsigned long long const*
 .rodata._ZTSf  0x08024d20        0x4 c:/program files (x86)/gnu tools arm embedded/4.8 2013q4/bin/../lib/gcc/arm-none-eabi/4.8.3/../../../../arm-none-eabi/lib/armv7e-m\libstdc++.a(fundamental_type_info.o)
                0x08024d20                typeinfo name for float
 .rodata._ZTSPf
                0x08024d24        0x4 c:/program files (x86)/gnu tools arm embedded/4.8 2013q4/bin/../lib/gcc/arm-none-eabi/4.8.3/../../../../arm-none-eabi/lib/armv7e-m\libstdc++.a(fundamental_type_info.o)
                0x08024d24                typeinfo name for float*
 .rodata._ZTSPKf
                0x08024d28        0x4 c:/program files (x86)/gnu tools arm embedded/4.8 2013q4/bin/../lib/gcc/arm-none-eabi/4.8.3/../../../../arm-none-eabi/lib/armv7e-m\libstdc++.a(fundamental_type_info.o)
                0x08024d28                typeinfo name for float const*
 .rodata._ZTSd  0x08024d2c        0x4 c:/program files (x86)/gnu tools arm embedded/4.8 2013q4/bin/../lib/gcc/arm-none-eabi/4.8.3/../../../../arm-none-eabi/lib/armv7e-m\libstdc++.a(fundamental_type_info.o)
                0x08024d2c                typeinfo name for double
 .rodata._ZTSPd
                0x08024d30        0x4 c:/program files (x86)/gnu tools arm embedded/4.8 2013q4/bin/../lib/gcc/arm-none-eabi/4.8.3/../../../../arm-none-eabi/lib/armv7e-m\libstdc++.a(fundamental_type_info.o)
                0x08024d30                typeinfo name for double*
 .rodata._ZTSPKd
                0x08024d34        0x4 c:/program files (x86)/gnu tools arm embedded/4.8 2013q4/bin/../lib/gcc/arm-none-eabi/4.8.3/../../../../arm-none-eabi/lib/armv7e-m\libstdc++.a(fundamental_type_info.o)
                0x08024d34                typeinfo name for double const*
 .rodata._ZTSe  0x08024d38        0x4 c:/program files (x86)/gnu tools arm embedded/4.8 2013q4/bin/../lib/gcc/arm-none-eabi/4.8.3/../../../../arm-none-eabi/lib/armv7e-m\libstdc++.a(fundamental_type_info.o)
                0x08024d38                typeinfo name for long double
 .rodata._ZTSPe
                0x08024d3c        0x4 c:/program files (x86)/gnu tools arm embedded/4.8 2013q4/bin/../lib/gcc/arm-none-eabi/4.8.3/../../../../arm-none-eabi/lib/armv7e-m\libstdc++.a(fundamental_type_info.o)
                0x08024d3c                typeinfo name for long double*
 .rodata._ZTSPKe
                0x08024d40        0x4 c:/program files (x86)/gnu tools arm embedded/4.8 2013q4/bin/../lib/gcc/arm-none-eabi/4.8.3/../../../../arm-none-eabi/lib/armv7e-m\libstdc++.a(fundamental_type_info.o)
                0x08024d40                typeinfo name for long double const*
 .rodata._ZTSDf
                0x08024d44        0x4 c:/program files (x86)/gnu tools arm embedded/4.8 2013q4/bin/../lib/gcc/arm-none-eabi/4.8.3/../../../../arm-none-eabi/lib/armv7e-m\libstdc++.a(fundamental_type_info.o)
                0x08024d44                typeinfo name for decimal32
 .rodata._ZTSPDf
                0x08024d48        0x4 c:/program files (x86)/gnu tools arm embedded/4.8 2013q4/bin/../lib/gcc/arm-none-eabi/4.8.3/../../../../arm-none-eabi/lib/armv7e-m\libstdc++.a(fundamental_type_info.o)
                0x08024d48                typeinfo name for decimal32*
 .rodata._ZTSPKDf
                0x08024d4c        0x8 c:/program files (x86)/gnu tools arm embedded/4.8 2013q4/bin/../lib/gcc/arm-none-eabi/4.8.3/../../../../arm-none-eabi/lib/armv7e-m\libstdc++.a(fundamental_type_info.o)
                0x08024d4c                typeinfo name for decimal32 const*
 .rodata._ZTSDd
                0x08024d54        0x4 c:/program files (x86)/gnu tools arm embedded/4.8 2013q4/bin/../lib/gcc/arm-none-eabi/4.8.3/../../../../arm-none-eabi/lib/armv7e-m\libstdc++.a(fundamental_type_info.o)
                0x08024d54                typeinfo name for decimal64
 .rodata._ZTSPDd
                0x08024d58        0x4 c:/program files (x86)/gnu tools arm embedded/4.8 2013q4/bin/../lib/gcc/arm-none-eabi/4.8.3/../../../../arm-none-eabi/lib/armv7e-m\libstdc++.a(fundamental_type_info.o)
                0x08024d58                typeinfo name for decimal64*
 .rodata._ZTSPKDd
                0x08024d5c        0x8 c:/program files (x86)/gnu tools arm embedded/4.8 2013q4/bin/../lib/gcc/arm-none-eabi/4.8.3/../../../../arm-none-eabi/lib/armv7e-m\libstdc++.a(fundamental_type_info.o)
                0x08024d5c                typeinfo name for decimal64 const*
 .rodata._ZTSDe
                0x08024d64        0x4 c:/program files (x86)/gnu tools arm embedded/4.8 2013q4/bin/../lib/gcc/arm-none-eabi/4.8.3/../../../../arm-none-eabi/lib/armv7e-m\libstdc++.a(fundamental_type_info.o)
                0x08024d64                typeinfo name for decimal128
 .rodata._ZTSPDe
                0x08024d68        0x4 c:/program files (x86)/gnu tools arm embedded/4.8 2013q4/bin/../lib/gcc/arm-none-eabi/4.8.3/../../../../arm-none-eabi/lib/armv7e-m\libstdc++.a(fundamental_type_info.o)
                0x08024d68                typeinfo name for decimal128*
 .rodata._ZTSPKDe
                0x08024d6c        0x8 c:/program files (x86)/gnu tools arm embedded/4.8 2013q4/bin/../lib/gcc/arm-none-eabi/4.8.3/../../../../arm-none-eabi/lib/armv7e-m\libstdc++.a(fundamental_type_info.o)
                0x08024d6c                typeinfo name for decimal128 const*
 .rodata._ZTSDn
                0x08024d74        0x4 c:/program files (x86)/gnu tools arm embedded/4.8 2013q4/bin/../lib/gcc/arm-none-eabi/4.8.3/../../../../arm-none-eabi/lib/armv7e-m\libstdc++.a(fundamental_type_info.o)
                0x08024d74                typeinfo name for decltype(nullptr)
 .rodata._ZTSPDn
                0x08024d78        0x4 c:/program files (x86)/gnu tools arm embedded/4.8 2013q4/bin/../lib/gcc/arm-none-eabi/4.8.3/../../../../arm-none-eabi/lib/armv7e-m\libstdc++.a(fundamental_type_info.o)
                0x08024d78                typeinfo name for decltype(nullptr)*
 .rodata._ZTSPKDn
                0x08024d7c        0x8 c:/program files (x86)/gnu tools arm embedded/4.8 2013q4/bin/../lib/gcc/arm-none-eabi/4.8.3/../../../../arm-none-eabi/lib/armv7e-m\libstdc++.a(fundamental_type_info.o)
                0x08024d7c                typeinfo name for decltype(nullptr) const*
 .rodata._ZTIPKDn
                0x08024d84       0x10 c:/program files (x86)/gnu tools arm embedded/4.8 2013q4/bin/../lib/gcc/arm-none-eabi/4.8.3/../../../../arm-none-eabi/lib/armv7e-m\libstdc++.a(fundamental_type_info.o)
                0x08024d84                typeinfo for decltype(nullptr) const*
 .rodata._ZTIPDn
                0x08024d94       0x10 c:/program files (x86)/gnu tools arm embedded/4.8 2013q4/bin/../lib/gcc/arm-none-eabi/4.8.3/../../../../arm-none-eabi/lib/armv7e-m\libstdc++.a(fundamental_type_info.o)
                0x08024d94                typeinfo for decltype(nullptr)*
 .rodata._ZTIDn
                0x08024da4        0x8 c:/program files (x86)/gnu tools arm embedded/4.8 2013q4/bin/../lib/gcc/arm-none-eabi/4.8.3/../../../../arm-none-eabi/lib/armv7e-m\libstdc++.a(fundamental_type_info.o)
                0x08024da4                typeinfo for decltype(nullptr)
 .rodata._ZTIPKDe
                0x08024dac       0x10 c:/program files (x86)/gnu tools arm embedded/4.8 2013q4/bin/../lib/gcc/arm-none-eabi/4.8.3/../../../../arm-none-eabi/lib/armv7e-m\libstdc++.a(fundamental_type_info.o)
                0x08024dac                typeinfo for decimal128 const*
 .rodata._ZTIPDe
                0x08024dbc       0x10 c:/program files (x86)/gnu tools arm embedded/4.8 2013q4/bin/../lib/gcc/arm-none-eabi/4.8.3/../../../../arm-none-eabi/lib/armv7e-m\libstdc++.a(fundamental_type_info.o)
                0x08024dbc                typeinfo for decimal128*
 .rodata._ZTIDe
                0x08024dcc        0x8 c:/program files (x86)/gnu tools arm embedded/4.8 2013q4/bin/../lib/gcc/arm-none-eabi/4.8.3/../../../../arm-none-eabi/lib/armv7e-m\libstdc++.a(fundamental_type_info.o)
                0x08024dcc                typeinfo for decimal128
 .rodata._ZTIPKDd
                0x08024dd4       0x10 c:/program files (x86)/gnu tools arm embedded/4.8 2013q4/bin/../lib/gcc/arm-none-eabi/4.8.3/../../../../arm-none-eabi/lib/armv7e-m\libstdc++.a(fundamental_type_info.o)
                0x08024dd4                typeinfo for decimal64 const*
 .rodata._ZTIPDd
                0x08024de4       0x10 c:/program files (x86)/gnu tools arm embedded/4.8 2013q4/bin/../lib/gcc/arm-none-eabi/4.8.3/../../../../arm-none-eabi/lib/armv7e-m\libstdc++.a(fundamental_type_info.o)
                0x08024de4                typeinfo for decimal64*
 .rodata._ZTIDd
                0x08024df4        0x8 c:/program files (x86)/gnu tools arm embedded/4.8 2013q4/bin/../lib/gcc/arm-none-eabi/4.8.3/../../../../arm-none-eabi/lib/armv7e-m\libstdc++.a(fundamental_type_info.o)
                0x08024df4                typeinfo for decimal64
 .rodata._ZTIPKDf
                0x08024dfc       0x10 c:/program files (x86)/gnu tools arm embedded/4.8 2013q4/bin/../lib/gcc/arm-none-eabi/4.8.3/../../../../arm-none-eabi/lib/armv7e-m\libstdc++.a(fundamental_type_info.o)
                0x08024dfc                typeinfo for decimal32 const*
 .rodata._ZTIPDf
                0x08024e0c       0x10 c:/program files (x86)/gnu tools arm embedded/4.8 2013q4/bin/../lib/gcc/arm-none-eabi/4.8.3/../../../../arm-none-eabi/lib/armv7e-m\libstdc++.a(fundamental_type_info.o)
                0x08024e0c                typeinfo for decimal32*
 .rodata._ZTIDf
                0x08024e1c        0x8 c:/program files (x86)/gnu tools arm embedded/4.8 2013q4/bin/../lib/gcc/arm-none-eabi/4.8.3/../../../../arm-none-eabi/lib/armv7e-m\libstdc++.a(fundamental_type_info.o)
                0x08024e1c                typeinfo for decimal32
 .rodata._ZTIPKe
                0x08024e24       0x10 c:/program files (x86)/gnu tools arm embedded/4.8 2013q4/bin/../lib/gcc/arm-none-eabi/4.8.3/../../../../arm-none-eabi/lib/armv7e-m\libstdc++.a(fundamental_type_info.o)
                0x08024e24                typeinfo for long double const*
 .rodata._ZTIPe
                0x08024e34       0x10 c:/program files (x86)/gnu tools arm embedded/4.8 2013q4/bin/../lib/gcc/arm-none-eabi/4.8.3/../../../../arm-none-eabi/lib/armv7e-m\libstdc++.a(fundamental_type_info.o)
                0x08024e34                typeinfo for long double*
 .rodata._ZTIe  0x08024e44        0x8 c:/program files (x86)/gnu tools arm embedded/4.8 2013q4/bin/../lib/gcc/arm-none-eabi/4.8.3/../../../../arm-none-eabi/lib/armv7e-m\libstdc++.a(fundamental_type_info.o)
                0x08024e44                typeinfo for long double
 .rodata._ZTIPKd
                0x08024e4c       0x10 c:/program files (x86)/gnu tools arm embedded/4.8 2013q4/bin/../lib/gcc/arm-none-eabi/4.8.3/../../../../arm-none-eabi/lib/armv7e-m\libstdc++.a(fundamental_type_info.o)
                0x08024e4c                typeinfo for double const*
 .rodata._ZTIPd
                0x08024e5c       0x10 c:/program files (x86)/gnu tools arm embedded/4.8 2013q4/bin/../lib/gcc/arm-none-eabi/4.8.3/../../../../arm-none-eabi/lib/armv7e-m\libstdc++.a(fundamental_type_info.o)
                0x08024e5c                typeinfo for double*
 .rodata._ZTId  0x08024e6c        0x8 c:/program files (x86)/gnu tools arm embedded/4.8 2013q4/bin/../lib/gcc/arm-none-eabi/4.8.3/../../../../arm-none-eabi/lib/armv7e-m\libstdc++.a(fundamental_type_info.o)
                0x08024e6c                typeinfo for double
 .rodata._ZTIPKf
                0x08024e74       0x10 c:/program files (x86)/gnu tools arm embedded/4.8 2013q4/bin/../lib/gcc/arm-none-eabi/4.8.3/../../../../arm-none-eabi/lib/armv7e-m\libstdc++.a(fundamental_type_info.o)
                0x08024e74                typeinfo for float const*
 .rodata._ZTIPf
                0x08024e84       0x10 c:/program files (x86)/gnu tools arm embedded/4.8 2013q4/bin/../lib/gcc/arm-none-eabi/4.8.3/../../../../arm-none-eabi/lib/armv7e-m\libstdc++.a(fundamental_type_info.o)
                0x08024e84                typeinfo for float*
 .rodata._ZTIf  0x08024e94        0x8 c:/program files (x86)/gnu tools arm embedded/4.8 2013q4/bin/../lib/gcc/arm-none-eabi/4.8.3/../../../../arm-none-eabi/lib/armv7e-m\libstdc++.a(fundamental_type_info.o)
                0x08024e94                typeinfo for float
 .rodata._ZTIPKy
                0x08024e9c       0x10 c:/program files (x86)/gnu tools arm embedded/4.8 2013q4/bin/../lib/gcc/arm-none-eabi/4.8.3/../../../../arm-none-eabi/lib/armv7e-m\libstdc++.a(fundamental_type_info.o)
                0x08024e9c                typeinfo for unsigned long long const*
 .rodata._ZTIPy
                0x08024eac       0x10 c:/program files (x86)/gnu tools arm embedded/4.8 2013q4/bin/../lib/gcc/arm-none-eabi/4.8.3/../../../../arm-none-eabi/lib/armv7e-m\libstdc++.a(fundamental_type_info.o)
                0x08024eac                typeinfo for unsigned long long*
 .rodata._ZTIy  0x08024ebc        0x8 c:/program files (x86)/gnu tools arm embedded/4.8 2013q4/bin/../lib/gcc/arm-none-eabi/4.8.3/../../../../arm-none-eabi/lib/armv7e-m\libstdc++.a(fundamental_type_info.o)
                0x08024ebc                typeinfo for unsigned long long
 .rodata._ZTIPKx
                0x08024ec4       0x10 c:/program files (x86)/gnu tools arm embedded/4.8 2013q4/bin/../lib/gcc/arm-none-eabi/4.8.3/../../../../arm-none-eabi/lib/armv7e-m\libstdc++.a(fundamental_type_info.o)
                0x08024ec4                typeinfo for long long const*
 .rodata._ZTIPx
                0x08024ed4       0x10 c:/program files (x86)/gnu tools arm embedded/4.8 2013q4/bin/../lib/gcc/arm-none-eabi/4.8.3/../../../../arm-none-eabi/lib/armv7e-m\libstdc++.a(fundamental_type_info.o)
                0x08024ed4                typeinfo for long long*
 .rodata._ZTIx  0x08024ee4        0x8 c:/program files (x86)/gnu tools arm embedded/4.8 2013q4/bin/../lib/gcc/arm-none-eabi/4.8.3/../../../../arm-none-eabi/lib/armv7e-m\libstdc++.a(fundamental_type_info.o)
                0x08024ee4                typeinfo for long long
 .rodata._ZTIPKm
                0x08024eec       0x10 c:/program files (x86)/gnu tools arm embedded/4.8 2013q4/bin/../lib/gcc/arm-none-eabi/4.8.3/../../../../arm-none-eabi/lib/armv7e-m\libstdc++.a(fundamental_type_info.o)
                0x08024eec                typeinfo for unsigned long const*
 .rodata._ZTIPm
                0x08024efc       0x10 c:/program files (x86)/gnu tools arm embedded/4.8 2013q4/bin/../lib/gcc/arm-none-eabi/4.8.3/../../../../arm-none-eabi/lib/armv7e-m\libstdc++.a(fundamental_type_info.o)
                0x08024efc                typeinfo for unsigned long*
 .rodata._ZTIm  0x08024f0c        0x8 c:/program files (x86)/gnu tools arm embedded/4.8 2013q4/bin/../lib/gcc/arm-none-eabi/4.8.3/../../../../arm-none-eabi/lib/armv7e-m\libstdc++.a(fundamental_type_info.o)
                0x08024f0c                typeinfo for unsigned long
 .rodata._ZTIPKl
                0x08024f14       0x10 c:/program files (x86)/gnu tools arm embedded/4.8 2013q4/bin/../lib/gcc/arm-none-eabi/4.8.3/../../../../arm-none-eabi/lib/armv7e-m\libstdc++.a(fundamental_type_info.o)
                0x08024f14                typeinfo for long const*
 .rodata._ZTIPl
                0x08024f24       0x10 c:/program files (x86)/gnu tools arm embedded/4.8 2013q4/bin/../lib/gcc/arm-none-eabi/4.8.3/../../../../arm-none-eabi/lib/armv7e-m\libstdc++.a(fundamental_type_info.o)
                0x08024f24                typeinfo for long*
 .rodata._ZTIl  0x08024f34        0x8 c:/program files (x86)/gnu tools arm embedded/4.8 2013q4/bin/../lib/gcc/arm-none-eabi/4.8.3/../../../../arm-none-eabi/lib/armv7e-m\libstdc++.a(fundamental_type_info.o)
                0x08024f34                typeinfo for long
 .rodata._ZTIPKj
                0x08024f3c       0x10 c:/program files (x86)/gnu tools arm embedded/4.8 2013q4/bin/../lib/gcc/arm-none-eabi/4.8.3/../../../../arm-none-eabi/lib/armv7e-m\libstdc++.a(fundamental_type_info.o)
                0x08024f3c                typeinfo for unsigned int const*
 .rodata._ZTIPj
                0x08024f4c       0x10 c:/program files (x86)/gnu tools arm embedded/4.8 2013q4/bin/../lib/gcc/arm-none-eabi/4.8.3/../../../../arm-none-eabi/lib/armv7e-m\libstdc++.a(fundamental_type_info.o)
                0x08024f4c                typeinfo for unsigned int*
 .rodata._ZTIj  0x08024f5c        0x8 c:/program files (x86)/gnu tools arm embedded/4.8 2013q4/bin/../lib/gcc/arm-none-eabi/4.8.3/../../../../arm-none-eabi/lib/armv7e-m\libstdc++.a(fundamental_type_info.o)
                0x08024f5c                typeinfo for unsigned int
 .rodata._ZTIPKi
                0x08024f64       0x10 c:/program files (x86)/gnu tools arm embedded/4.8 2013q4/bin/../lib/gcc/arm-none-eabi/4.8.3/../../../../arm-none-eabi/lib/armv7e-m\libstdc++.a(fundamental_type_info.o)
                0x08024f64                typeinfo for int const*
 .rodata._ZTIPi
                0x08024f74       0x10 c:/program files (x86)/gnu tools arm embedded/4.8 2013q4/bin/../lib/gcc/arm-none-eabi/4.8.3/../../../../arm-none-eabi/lib/armv7e-m\libstdc++.a(fundamental_type_info.o)
                0x08024f74                typeinfo for int*
 .rodata._ZTIi  0x08024f84        0x8 c:/program files (x86)/gnu tools arm embedded/4.8 2013q4/bin/../lib/gcc/arm-none-eabi/4.8.3/../../../../arm-none-eabi/lib/armv7e-m\libstdc++.a(fundamental_type_info.o)
                0x08024f84                typeinfo for int
 .rodata._ZTIPKt
                0x08024f8c       0x10 c:/program files (x86)/gnu tools arm embedded/4.8 2013q4/bin/../lib/gcc/arm-none-eabi/4.8.3/../../../../arm-none-eabi/lib/armv7e-m\libstdc++.a(fundamental_type_info.o)
                0x08024f8c                typeinfo for unsigned short const*
 .rodata._ZTIPt
                0x08024f9c       0x10 c:/program files (x86)/gnu tools arm embedded/4.8 2013q4/bin/../lib/gcc/arm-none-eabi/4.8.3/../../../../arm-none-eabi/lib/armv7e-m\libstdc++.a(fundamental_type_info.o)
                0x08024f9c                typeinfo for unsigned short*
 .rodata._ZTIt  0x08024fac        0x8 c:/program files (x86)/gnu tools arm embedded/4.8 2013q4/bin/../lib/gcc/arm-none-eabi/4.8.3/../../../../arm-none-eabi/lib/armv7e-m\libstdc++.a(fundamental_type_info.o)
                0x08024fac                typeinfo for unsigned short
 .rodata._ZTIPKs
                0x08024fb4       0x10 c:/program files (x86)/gnu tools arm embedded/4.8 2013q4/bin/../lib/gcc/arm-none-eabi/4.8.3/../../../../arm-none-eabi/lib/armv7e-m\libstdc++.a(fundamental_type_info.o)
                0x08024fb4                typeinfo for short const*
 .rodata._ZTIPs
                0x08024fc4       0x10 c:/program files (x86)/gnu tools arm embedded/4.8 2013q4/bin/../lib/gcc/arm-none-eabi/4.8.3/../../../../arm-none-eabi/lib/armv7e-m\libstdc++.a(fundamental_type_info.o)
                0x08024fc4                typeinfo for short*
 .rodata._ZTIs  0x08024fd4        0x8 c:/program files (x86)/gnu tools arm embedded/4.8 2013q4/bin/../lib/gcc/arm-none-eabi/4.8.3/../../../../arm-none-eabi/lib/armv7e-m\libstdc++.a(fundamental_type_info.o)
                0x08024fd4                typeinfo for short
 .rodata._ZTIPKh
                0x08024fdc       0x10 c:/program files (x86)/gnu tools arm embedded/4.8 2013q4/bin/../lib/gcc/arm-none-eabi/4.8.3/../../../../arm-none-eabi/lib/armv7e-m\libstdc++.a(fundamental_type_info.o)
                0x08024fdc                typeinfo for unsigned char const*
 .rodata._ZTIPh
                0x08024fec       0x10 c:/program files (x86)/gnu tools arm embedded/4.8 2013q4/bin/../lib/gcc/arm-none-eabi/4.8.3/../../../../arm-none-eabi/lib/armv7e-m\libstdc++.a(fundamental_type_info.o)
                0x08024fec                typeinfo for unsigned char*
 .rodata._ZTIh  0x08024ffc        0x8 c:/program files (x86)/gnu tools arm embedded/4.8 2013q4/bin/../lib/gcc/arm-none-eabi/4.8.3/../../../../arm-none-eabi/lib/armv7e-m\libstdc++.a(fundamental_type_info.o)
                0x08024ffc                typeinfo for unsigned char
 .rodata._ZTIPKa
                0x08025004       0x10 c:/program files (x86)/gnu tools arm embedded/4.8 2013q4/bin/../lib/gcc/arm-none-eabi/4.8.3/../../../../arm-none-eabi/lib/armv7e-m\libstdc++.a(fundamental_type_info.o)
                0x08025004                typeinfo for signed char const*
 .rodata._ZTIPa
                0x08025014       0x10 c:/program files (x86)/gnu tools arm embedded/4.8 2013q4/bin/../lib/gcc/arm-none-eabi/4.8.3/../../../../arm-none-eabi/lib/armv7e-m\libstdc++.a(fundamental_type_info.o)
                0x08025014                typeinfo for signed char*
 .rodata._ZTIa  0x08025024        0x8 c:/program files (x86)/gnu tools arm embedded/4.8 2013q4/bin/../lib/gcc/arm-none-eabi/4.8.3/../../../../arm-none-eabi/lib/armv7e-m\libstdc++.a(fundamental_type_info.o)
                0x08025024                typeinfo for signed char
 .rodata._ZTIPKc
                0x0802502c       0x10 c:/program files (x86)/gnu tools arm embedded/4.8 2013q4/bin/../lib/gcc/arm-none-eabi/4.8.3/../../../../arm-none-eabi/lib/armv7e-m\libstdc++.a(fundamental_type_info.o)
                0x0802502c                typeinfo for char const*
 .rodata._ZTIPc
                0x0802503c       0x10 c:/program files (x86)/gnu tools arm embedded/4.8 2013q4/bin/../lib/gcc/arm-none-eabi/4.8.3/../../../../arm-none-eabi/lib/armv7e-m\libstdc++.a(fundamental_type_info.o)
                0x0802503c                typeinfo for char*
 .rodata._ZTIc  0x0802504c        0x8 c:/program files (x86)/gnu tools arm embedded/4.8 2013q4/bin/../lib/gcc/arm-none-eabi/4.8.3/../../../../arm-none-eabi/lib/armv7e-m\libstdc++.a(fundamental_type_info.o)
                0x0802504c                typeinfo for char
 .rodata._ZTIPKDi
                0x08025054       0x10 c:/program files (x86)/gnu tools arm embedded/4.8 2013q4/bin/../lib/gcc/arm-none-eabi/4.8.3/../../../../arm-none-eabi/lib/armv7e-m\libstdc++.a(fundamental_type_info.o)
                0x08025054                typeinfo for char32_t const*
 .rodata._ZTIPDi
                0x08025064       0x10 c:/program files (x86)/gnu tools arm embedded/4.8 2013q4/bin/../lib/gcc/arm-none-eabi/4.8.3/../../../../arm-none-eabi/lib/armv7e-m\libstdc++.a(fundamental_type_info.o)
                0x08025064                typeinfo for char32_t*
 .rodata._ZTIDi
                0x08025074        0x8 c:/program files (x86)/gnu tools arm embedded/4.8 2013q4/bin/../lib/gcc/arm-none-eabi/4.8.3/../../../../arm-none-eabi/lib/armv7e-m\libstdc++.a(fundamental_type_info.o)
                0x08025074                typeinfo for char32_t
 .rodata._ZTIPKDs
                0x0802507c       0x10 c:/program files (x86)/gnu tools arm embedded/4.8 2013q4/bin/../lib/gcc/arm-none-eabi/4.8.3/../../../../arm-none-eabi/lib/armv7e-m\libstdc++.a(fundamental_type_info.o)
                0x0802507c                typeinfo for char16_t const*
 .rodata._ZTIPDs
                0x0802508c       0x10 c:/program files (x86)/gnu tools arm embedded/4.8 2013q4/bin/../lib/gcc/arm-none-eabi/4.8.3/../../../../arm-none-eabi/lib/armv7e-m\libstdc++.a(fundamental_type_info.o)
                0x0802508c                typeinfo for char16_t*
 .rodata._ZTIDs
                0x0802509c        0x8 c:/program files (x86)/gnu tools arm embedded/4.8 2013q4/bin/../lib/gcc/arm-none-eabi/4.8.3/../../../../arm-none-eabi/lib/armv7e-m\libstdc++.a(fundamental_type_info.o)
                0x0802509c                typeinfo for char16_t
 .rodata._ZTIPKw
                0x080250a4       0x10 c:/program files (x86)/gnu tools arm embedded/4.8 2013q4/bin/../lib/gcc/arm-none-eabi/4.8.3/../../../../arm-none-eabi/lib/armv7e-m\libstdc++.a(fundamental_type_info.o)
                0x080250a4                typeinfo for wchar_t const*
 .rodata._ZTIPw
                0x080250b4       0x10 c:/program files (x86)/gnu tools arm embedded/4.8 2013q4/bin/../lib/gcc/arm-none-eabi/4.8.3/../../../../arm-none-eabi/lib/armv7e-m\libstdc++.a(fundamental_type_info.o)
                0x080250b4                typeinfo for wchar_t*
 .rodata._ZTIw  0x080250c4        0x8 c:/program files (x86)/gnu tools arm embedded/4.8 2013q4/bin/../lib/gcc/arm-none-eabi/4.8.3/../../../../arm-none-eabi/lib/armv7e-m\libstdc++.a(fundamental_type_info.o)
                0x080250c4                typeinfo for wchar_t
 .rodata._ZTIPKb
                0x080250cc       0x10 c:/program files (x86)/gnu tools arm embedded/4.8 2013q4/bin/../lib/gcc/arm-none-eabi/4.8.3/../../../../arm-none-eabi/lib/armv7e-m\libstdc++.a(fundamental_type_info.o)
                0x080250cc                typeinfo for bool const*
 .rodata._ZTIPb
                0x080250dc       0x10 c:/program files (x86)/gnu tools arm embedded/4.8 2013q4/bin/../lib/gcc/arm-none-eabi/4.8.3/../../../../arm-none-eabi/lib/armv7e-m\libstdc++.a(fundamental_type_info.o)
                0x080250dc                typeinfo for bool*
 .rodata._ZTIb  0x080250ec        0x8 c:/program files (x86)/gnu tools arm embedded/4.8 2013q4/bin/../lib/gcc/arm-none-eabi/4.8.3/../../../../arm-none-eabi/lib/armv7e-m\libstdc++.a(fundamental_type_info.o)
                0x080250ec                typeinfo for bool
 .rodata._ZTIPKv
                0x080250f4       0x10 c:/program files (x86)/gnu tools arm embedded/4.8 2013q4/bin/../lib/gcc/arm-none-eabi/4.8.3/../../../../arm-none-eabi/lib/armv7e-m\libstdc++.a(fundamental_type_info.o)
                0x080250f4                typeinfo for void const*
 .rodata._ZTIPv
                0x08025104       0x10 c:/program files (x86)/gnu tools arm embedded/4.8 2013q4/bin/../lib/gcc/arm-none-eabi/4.8.3/../../../../arm-none-eabi/lib/armv7e-m\libstdc++.a(fundamental_type_info.o)
                0x08025104                typeinfo for void*
 .rodata._ZTIv  0x08025114        0x8 c:/program files (x86)/gnu tools arm embedded/4.8 2013q4/bin/../lib/gcc/arm-none-eabi/4.8.3/../../../../arm-none-eabi/lib/armv7e-m\libstdc++.a(fundamental_type_info.o)
                0x08025114                typeinfo for void
 .rodata._ZTIN10__cxxabiv123__fundamental_type_infoE
                0x0802511c        0xc c:/program files (x86)/gnu tools arm embedded/4.8 2013q4/bin/../lib/gcc/arm-none-eabi/4.8.3/../../../../arm-none-eabi/lib/armv7e-m\libstdc++.a(fundamental_type_info.o)
                0x0802511c                typeinfo for __cxxabiv1::__fundamental_type_info
 .rodata._ZTSN10__cxxabiv123__fundamental_type_infoE
                0x08025128       0x28 c:/program files (x86)/gnu tools arm embedded/4.8 2013q4/bin/../lib/gcc/arm-none-eabi/4.8.3/../../../../arm-none-eabi/lib/armv7e-m\libstdc++.a(fundamental_type_info.o)
                0x08025128                typeinfo name for __cxxabiv1::__fundamental_type_info
 .rodata._ZTVN10__cxxabiv123__fundamental_type_infoE
                0x08025150       0x20 c:/program files (x86)/gnu tools arm embedded/4.8 2013q4/bin/../lib/gcc/arm-none-eabi/4.8.3/../../../../arm-none-eabi/lib/armv7e-m\libstdc++.a(fundamental_type_info.o)
                0x08025150                vtable for __cxxabiv1::__fundamental_type_info
 .rodata._ZTVN10__cxxabiv120__si_class_type_infoE
                0x08025170       0x30 c:/program files (x86)/gnu tools arm embedded/4.8 2013q4/bin/../lib/gcc/arm-none-eabi/4.8.3/../../../../arm-none-eabi/lib/armv7e-m\libstdc++.a(si_class_type_info.o)
                0x08025170                vtable for __cxxabiv1::__si_class_type_info
 .rodata._ZTIN10__cxxabiv120__si_class_type_infoE
                0x080251a0        0xc c:/program files (x86)/gnu tools arm embedded/4.8 2013q4/bin/../lib/gcc/arm-none-eabi/4.8.3/../../../../arm-none-eabi/lib/armv7e-m\libstdc++.a(si_class_type_info.o)
                0x080251a0                typeinfo for __cxxabiv1::__si_class_type_info
 .rodata._ZTSN10__cxxabiv120__si_class_type_infoE
                0x080251ac       0x28 c:/program files (x86)/gnu tools arm embedded/4.8 2013q4/bin/../lib/gcc/arm-none-eabi/4.8.3/../../../../arm-none-eabi/lib/armv7e-m\libstdc++.a(si_class_type_info.o)
                0x080251ac                typeinfo name for __cxxabiv1::__si_class_type_info
 .rodata.str1.4
                0x080251d4       0x3b c:/program files (x86)/gnu tools arm embedded/4.8 2013q4/bin/../lib/gcc/arm-none-eabi/4.8.3/../../../../arm-none-eabi/lib/armv7e-m\libstdc++.a(pure.o)
                                 0x3c (size before relaxing)
 *fill*         0x0802520f        0x1 
 .rodata._ZTIN10__cxxabiv117__pbase_type_infoE
                0x08025210        0xc c:/program files (x86)/gnu tools arm embedded/4.8 2013q4/bin/../lib/gcc/arm-none-eabi/4.8.3/../../../../arm-none-eabi/lib/armv7e-m\libstdc++.a(pbase_type_info.o)
                0x08025210                typeinfo for __cxxabiv1::__pbase_type_info
 .rodata._ZTSN10__cxxabiv117__pbase_type_infoE
                0x0802521c       0x24 c:/program files (x86)/gnu tools arm embedded/4.8 2013q4/bin/../lib/gcc/arm-none-eabi/4.8.3/../../../../arm-none-eabi/lib/armv7e-m\libstdc++.a(pbase_type_info.o)
                0x0802521c                typeinfo name for __cxxabiv1::__pbase_type_info
 .rodata._ZTVN10__cxxabiv117__pbase_type_infoE
                0x08025240       0x28 c:/program files (x86)/gnu tools arm embedded/4.8 2013q4/bin/../lib/gcc/arm-none-eabi/4.8.3/../../../../arm-none-eabi/lib/armv7e-m\libstdc++.a(pbase_type_info.o)
                0x08025240                vtable for __cxxabiv1::__pbase_type_info
 .rodata._ZTVN10__cxxabiv115__forced_unwindE
                0x08025268       0x18 c:/program files (x86)/gnu tools arm embedded/4.8 2013q4/bin/../lib/gcc/arm-none-eabi/4.8.3/../../../../arm-none-eabi/lib/armv7e-m\libstdc++.a(eh_exception.o)
                0x08025268                vtable for __cxxabiv1::__forced_unwind
 .rodata._ZTVSt9exception
                0x08025280       0x18 c:/program files (x86)/gnu tools arm embedded/4.8 2013q4/bin/../lib/gcc/arm-none-eabi/4.8.3/../../../../arm-none-eabi/lib/armv7e-m\libstdc++.a(eh_exception.o)
                0x08025280                vtable for std::exception
 .rodata._ZTIN10__cxxabiv115__forced_unwindE
                0x08025298        0x8 c:/program files (x86)/gnu tools arm embedded/4.8 2013q4/bin/../lib/gcc/arm-none-eabi/4.8.3/../../../../arm-none-eabi/lib/armv7e-m\libstdc++.a(eh_exception.o)
                0x08025298                typeinfo for __cxxabiv1::__forced_unwind
 .rodata._ZTISt9exception
                0x080252a0        0x8 c:/program files (x86)/gnu tools arm embedded/4.8 2013q4/bin/../lib/gcc/arm-none-eabi/4.8.3/../../../../arm-none-eabi/lib/armv7e-m\libstdc++.a(eh_exception.o)
                0x080252a0                typeinfo for std::exception
 .rodata._ZTSSt13bad_exception
                0x080252a8       0x14 c:/program files (x86)/gnu tools arm embedded/4.8 2013q4/bin/../lib/gcc/arm-none-eabi/4.8.3/../../../../arm-none-eabi/lib/armv7e-m\libstdc++.a(eh_exception.o)
                0x080252a8                typeinfo name for std::bad_exception
 .rodata.str1.4
                0x080252bc       0x23 c:/program files (x86)/gnu tools arm embedded/4.8 2013q4/bin/../lib/gcc/arm-none-eabi/4.8.3/../../../../arm-none-eabi/lib/armv7e-m\libstdc++.a(eh_exception.o)
                                 0x24 (size before relaxing)
 *fill*         0x080252df        0x1 
 .rodata._ZTSN10__cxxabiv119__foreign_exceptionE
                0x080252e0       0x24 c:/program files (x86)/gnu tools arm embedded/4.8 2013q4/bin/../lib/gcc/arm-none-eabi/4.8.3/../../../../arm-none-eabi/lib/armv7e-m\libstdc++.a(eh_exception.o)
                0x080252e0                typeinfo name for __cxxabiv1::__foreign_exception
 .rodata._ZTIN10__cxxabiv119__foreign_exceptionE
                0x08025304        0x8 c:/program files (x86)/gnu tools arm embedded/4.8 2013q4/bin/../lib/gcc/arm-none-eabi/4.8.3/../../../../arm-none-eabi/lib/armv7e-m\libstdc++.a(eh_exception.o)
                0x08025304                typeinfo for __cxxabiv1::__foreign_exception
 *fill*         0x0802530c        0x4 
 .rodata._ZTVSt13bad_exception
                0x08025310       0x18 c:/program files (x86)/gnu tools arm embedded/4.8 2013q4/bin/../lib/gcc/arm-none-eabi/4.8.3/../../../../arm-none-eabi/lib/armv7e-m\libstdc++.a(eh_exception.o)
                0x08025310                vtable for std::bad_exception
 .rodata._ZTSSt9exception
                0x08025328       0x10 c:/program files (x86)/gnu tools arm embedded/4.8 2013q4/bin/../lib/gcc/arm-none-eabi/4.8.3/../../../../arm-none-eabi/lib/armv7e-m\libstdc++.a(eh_exception.o)
                0x08025328                typeinfo name for std::exception
 .rodata._ZTVN10__cxxabiv119__foreign_exceptionE
                0x08025338       0x18 c:/program files (x86)/gnu tools arm embedded/4.8 2013q4/bin/../lib/gcc/arm-none-eabi/4.8.3/../../../../arm-none-eabi/lib/armv7e-m\libstdc++.a(eh_exception.o)
                0x08025338                vtable for __cxxabiv1::__foreign_exception
 .rodata._ZTSN10__cxxabiv115__forced_unwindE
                0x08025350       0x20 c:/program files (x86)/gnu tools arm embedded/4.8 2013q4/bin/../lib/gcc/arm-none-eabi/4.8.3/../../../../arm-none-eabi/lib/armv7e-m\libstdc++.a(eh_exception.o)
                0x08025350                typeinfo name for __cxxabiv1::__forced_unwind
 .rodata._ZTISt13bad_exception
                0x08025370        0xc c:/program files (x86)/gnu tools arm embedded/4.8 2013q4/bin/../lib/gcc/arm-none-eabi/4.8.3/../../../../arm-none-eabi/lib/armv7e-m\libstdc++.a(eh_exception.o)
                0x08025370                typeinfo for std::bad_exception
 *fill*         0x0802537c        0x4 
 .rodata._ZTVN10__cxxabiv117__class_type_infoE
                0x08025380       0x30 c:/program files (x86)/gnu tools arm embedded/4.8 2013q4/bin/../lib/gcc/arm-none-eabi/4.8.3/../../../../arm-none-eabi/lib/armv7e-m\libstdc++.a(class_type_info.o)
                0x08025380                vtable for __cxxabiv1::__class_type_info
 .rodata._ZTIN10__cxxabiv117__class_type_infoE
                0x080253b0        0xc c:/program files (x86)/gnu tools arm embedded/4.8 2013q4/bin/../lib/gcc/arm-none-eabi/4.8.3/../../../../arm-none-eabi/lib/armv7e-m\libstdc++.a(class_type_info.o)
                0x080253b0                typeinfo for __cxxabiv1::__class_type_info
 .rodata._ZTSN10__cxxabiv117__class_type_infoE
                0x080253bc       0x24 c:/program files (x86)/gnu tools arm embedded/4.8 2013q4/bin/../lib/gcc/arm-none-eabi/4.8.3/../../../../arm-none-eabi/lib/armv7e-m\libstdc++.a(class_type_info.o)
                0x080253bc                typeinfo name for __cxxabiv1::__class_type_info
 .rodata._ZTVN10__cxxabiv120__function_type_infoE
                0x080253e0       0x20 c:/program files (x86)/gnu tools arm embedded/4.8 2013q4/bin/../lib/gcc/arm-none-eabi/4.8.3/../../../../arm-none-eabi/lib/armv7e-m\libstdc++.a(function_type_info.o)
                0x080253e0                vtable for __cxxabiv1::__function_type_info
 .rodata._ZTIN10__cxxabiv120__function_type_infoE
                0x08025400        0xc c:/program files (x86)/gnu tools arm embedded/4.8 2013q4/bin/../lib/gcc/arm-none-eabi/4.8.3/../../../../arm-none-eabi/lib/armv7e-m\libstdc++.a(function_type_info.o)
                0x08025400                typeinfo for __cxxabiv1::__function_type_info
 .rodata._ZTSN10__cxxabiv120__function_type_infoE
                0x0802540c       0x28 c:/program files (x86)/gnu tools arm embedded/4.8 2013q4/bin/../lib/gcc/arm-none-eabi/4.8.3/../../../../arm-none-eabi/lib/armv7e-m\libstdc++.a(function_type_info.o)
                0x0802540c                typeinfo name for __cxxabiv1::__function_type_info
 .rodata._ZTISt9type_info
                0x08025434        0x8 c:/program files (x86)/gnu tools arm embedded/4.8 2013q4/bin/../lib/gcc/arm-none-eabi/4.8.3/../../../../arm-none-eabi/lib/armv7e-m\libstdc++.a(tinfo.o)
                0x08025434                typeinfo for std::type_info
 .rodata._ZTSSt9type_info
                0x0802543c       0x10 c:/program files (x86)/gnu tools arm embedded/4.8 2013q4/bin/../lib/gcc/arm-none-eabi/4.8.3/../../../../arm-none-eabi/lib/armv7e-m\libstdc++.a(tinfo.o)
                0x0802543c                typeinfo name for std::type_info
 *fill*         0x0802544c        0x4 
 .rodata._ZTVSt9type_info
                0x08025450       0x20 c:/program files (x86)/gnu tools arm embedded/4.8 2013q4/bin/../lib/gcc/arm-none-eabi/4.8.3/../../../../arm-none-eabi/lib/armv7e-m\libstdc++.a(tinfo.o)
                0x08025450                vtable for std::type_info
 .rodata._ZNSs4_Rep11_S_terminalE
                0x08025470        0x1 c:/program files (x86)/gnu tools arm embedded/4.8 2013q4/bin/../lib/gcc/arm-none-eabi/4.8.3/../../../../arm-none-eabi/lib/armv7e-m\libstdc++.a(string-inst.o)
                0x08025470                std::string::_Rep::_S_terminal
 *fill*         0x08025471        0x3 
 .rodata._ZNSs4_Rep11_S_max_sizeE
                0x08025474        0x4 c:/program files (x86)/gnu tools arm embedded/4.8 2013q4/bin/../lib/gcc/arm-none-eabi/4.8.3/../../../../arm-none-eabi/lib/armv7e-m\libstdc++.a(string-inst.o)
                0x08025474                std::string::_Rep::_S_max_size
 .rodata._ZNSs4nposE
                0x08025478        0x4 c:/program files (x86)/gnu tools arm embedded/4.8 2013q4/bin/../lib/gcc/arm-none-eabi/4.8.3/../../../../arm-none-eabi/lib/armv7e-m\libstdc++.a(string-inst.o)
                0x08025478                std::string::npos
 .rodata.str1.4
                0x0802547c      0x161 c:/program files (x86)/gnu tools arm embedded/4.8 2013q4/bin/../lib/gcc/arm-none-eabi/4.8.3/../../../../arm-none-eabi/lib/armv7e-m\libstdc++.a(string-inst.o)
                                0x164 (size before relaxing)
 *fill*         0x080255dd        0x3 
 .rodata._ZNSt8__detail12__prime_listE
                0x080255e0      0x404 c:/program files (x86)/gnu tools arm embedded/4.8 2013q4/bin/../lib/gcc/arm-none-eabi/4.8.3/../../../../arm-none-eabi/lib/armv7e-m\libstdc++.a(hashtable_c++0x.o)
                0x080255e0                std::__detail::__prime_list
 .rodata._ZZNKSt8__detail20_Prime_rehash_policy11_M_next_bktEjE10__fast_bkt
                0x080259e4        0xc c:/program files (x86)/gnu tools arm embedded/4.8 2013q4/bin/../lib/gcc/arm-none-eabi/4.8.3/../../../../arm-none-eabi/lib/armv7e-m\libstdc++.a(hashtable_c++0x.o)
 .rodata.str1.4
                0x080259f0       0x12 c:/program files (x86)/gnu tools arm embedded/4.8 2013q4/bin/../lib/gcc/arm-none-eabi/4.8.3/../../../../arm-none-eabi/lib/armv7e-m\libstdc++.a(functexcept.o)
                                 0x14 (size before relaxing)
 *fill*         0x08025a02        0x2 
 .rodata._ZTISt17bad_function_call
                0x08025a04        0xc c:/program files (x86)/gnu tools arm embedded/4.8 2013q4/bin/../lib/gcc/arm-none-eabi/4.8.3/../../../../arm-none-eabi/lib/armv7e-m\libstdc++.a(functional.o)
                0x08025a04                typeinfo for std::bad_function_call
 .rodata._ZTVSt17bad_function_call
                0x08025a10       0x18 c:/program files (x86)/gnu tools arm embedded/4.8 2013q4/bin/../lib/gcc/arm-none-eabi/4.8.3/../../../../arm-none-eabi/lib/armv7e-m\libstdc++.a(functional.o)
                0x08025a10                vtable for std::bad_function_call
 .rodata.str1.4
                0x08025a28       0x12 c:/program files (x86)/gnu tools arm embedded/4.8 2013q4/bin/../lib/gcc/arm-none-eabi/4.8.3/../../../../arm-none-eabi/lib/armv7e-m\libstdc++.a(functional.o)
                                 0x14 (size before relaxing)
 *fill*         0x08025a3a        0x2 
 .rodata._ZTSSt17bad_function_call
                0x08025a3c       0x18 c:/program files (x86)/gnu tools arm embedded/4.8 2013q4/bin/../lib/gcc/arm-none-eabi/4.8.3/../../../../arm-none-eabi/lib/armv7e-m\libstdc++.a(functional.o)
                0x08025a3c                typeinfo name for std::bad_function_call
 .rodata._ZSt7nothrow
                0x08025a54        0x4 c:/program files (x86)/gnu tools arm embedded/4.8 2013q4/bin/../lib/gcc/arm-none-eabi/4.8.3/../../../../arm-none-eabi/lib/armv7e-m\libstdc++.a(new_handler.o)
                0x08025a54                std::nothrow
 .rodata._ZTVSt9bad_alloc
                0x08025a58       0x18 c:/program files (x86)/gnu tools arm embedded/4.8 2013q4/bin/../lib/gcc/arm-none-eabi/4.8.3/../../../../arm-none-eabi/lib/armv7e-m\libstdc++.a(bad_alloc.o)
                0x08025a58                vtable for std::bad_alloc
 .rodata._ZTISt9bad_alloc
                0x08025a70        0xc c:/program files (x86)/gnu tools arm embedded/4.8 2013q4/bin/../lib/gcc/arm-none-eabi/4.8.3/../../../../arm-none-eabi/lib/armv7e-m\libstdc++.a(bad_alloc.o)
                0x08025a70                typeinfo for std::bad_alloc
 .rodata.str1.4
                0x08025a7c        0xf c:/program files (x86)/gnu tools arm embedded/4.8 2013q4/bin/../lib/gcc/arm-none-eabi/4.8.3/../../../../arm-none-eabi/lib/armv7e-m\libstdc++.a(bad_alloc.o)
                                 0x10 (size before relaxing)
 *fill*         0x08025a8b        0x1 
 .rodata._ZTSSt9bad_alloc
                0x08025a8c       0x10 c:/program files (x86)/gnu tools arm embedded/4.8 2013q4/bin/../lib/gcc/arm-none-eabi/4.8.3/../../../../arm-none-eabi/lib/armv7e-m\libstdc++.a(bad_alloc.o)
                0x08025a8c                typeinfo name for std::bad_alloc
 .rodata._ZTISt8bad_cast
                0x08025a9c        0xc c:/program files (x86)/gnu tools arm embedded/4.8 2013q4/bin/../lib/gcc/arm-none-eabi/4.8.3/../../../../arm-none-eabi/lib/armv7e-m\libstdc++.a(bad_cast.o)
                0x08025a9c                typeinfo for std::bad_cast
 .rodata._ZTSSt8bad_cast
                0x08025aa8        0xc c:/program files (x86)/gnu tools arm embedded/4.8 2013q4/bin/../lib/gcc/arm-none-eabi/4.8.3/../../../../arm-none-eabi/lib/armv7e-m\libstdc++.a(bad_cast.o)
                0x08025aa8                typeinfo name for std::bad_cast
 *fill*         0x08025ab4        0x4 
 .rodata._ZTVSt8bad_cast
                0x08025ab8       0x18 c:/program files (x86)/gnu tools arm embedded/4.8 2013q4/bin/../lib/gcc/arm-none-eabi/4.8.3/../../../../arm-none-eabi/lib/armv7e-m\libstdc++.a(bad_cast.o)
                0x08025ab8                vtable for std::bad_cast
 .rodata.str1.4
                0x08025ad0        0xe c:/program files (x86)/gnu tools arm embedded/4.8 2013q4/bin/../lib/gcc/arm-none-eabi/4.8.3/../../../../arm-none-eabi/lib/armv7e-m\libstdc++.a(bad_cast.o)
                                 0x10 (size before relaxing)
 *fill*         0x08025ade        0x2 
 .rodata.str1.4
                0x08025ae0       0x94 c:/program files (x86)/gnu tools arm embedded/4.8 2013q4/bin/../lib/gcc/arm-none-eabi/4.8.3/../../../../arm-none-eabi/lib/armv7e-m\libstdc++.a(vterminate.o)
 *fill*         0x08025b74        0x4 
 .rodata._ZTVSt10bad_typeid
                0x08025b78       0x18 c:/program files (x86)/gnu tools arm embedded/4.8 2013q4/bin/../lib/gcc/arm-none-eabi/4.8.3/../../../../arm-none-eabi/lib/armv7e-m\libstdc++.a(bad_typeid.o)
                0x08025b78                vtable for std::bad_typeid
 .rodata._ZTISt10bad_typeid
                0x08025b90        0xc c:/program files (x86)/gnu tools arm embedded/4.8 2013q4/bin/../lib/gcc/arm-none-eabi/4.8.3/../../../../arm-none-eabi/lib/armv7e-m\libstdc++.a(bad_typeid.o)
                0x08025b90                typeinfo for std::bad_typeid
 .rodata.str1.4
                0x08025b9c       0x10 c:/program files (x86)/gnu tools arm embedded/4.8 2013q4/bin/../lib/gcc/arm-none-eabi/4.8.3/../../../../arm-none-eabi/lib/armv7e-m\libstdc++.a(bad_typeid.o)
 .rodata._ZTSSt10bad_typeid
                0x08025bac       0x10 c:/program files (x86)/gnu tools arm embedded/4.8 2013q4/bin/../lib/gcc/arm-none-eabi/4.8.3/../../../../arm-none-eabi/lib/armv7e-m\libstdc++.a(bad_typeid.o)
                0x08025bac                typeinfo name for std::bad_typeid
 *fill*         0x08025bbc        0x4 
 .rodata._ZTVNSt8ios_base7failureE
                0x08025bc0       0x18 c:/program files (x86)/gnu tools arm embedded/4.8 2013q4/bin/../lib/gcc/arm-none-eabi/4.8.3/../../../../arm-none-eabi/lib/armv7e-m\libstdc++.a(ios_failure.o)
                0x08025bc0                vtable for std::ios_base::failure
 .rodata._ZTSNSt8ios_base7failureE
                0x08025bd8       0x18 c:/program files (x86)/gnu tools arm embedded/4.8 2013q4/bin/../lib/gcc/arm-none-eabi/4.8.3/../../../../arm-none-eabi/lib/armv7e-m\libstdc++.a(ios_failure.o)
                0x08025bd8                typeinfo name for std::ios_base::failure
 .rodata._ZTINSt8ios_base7failureE
                0x08025bf0        0xc c:/program files (x86)/gnu tools arm embedded/4.8 2013q4/bin/../lib/gcc/arm-none-eabi/4.8.3/../../../../arm-none-eabi/lib/armv7e-m\libstdc++.a(ios_failure.o)
                0x08025bf0                typeinfo for std::ios_base::failure
 .rodata._ZTSSt13runtime_error
                0x08025bfc       0x14 c:/program files (x86)/gnu tools arm embedded/4.8 2013q4/bin/../lib/gcc/arm-none-eabi/4.8.3/../../../../arm-none-eabi/lib/armv7e-m\libstdc++.a(stdexcept.o)
                0x08025bfc                typeinfo name for std::runtime_error
 .rodata._ZTVSt13runtime_error
                0x08025c10       0x18 c:/program files (x86)/gnu tools arm embedded/4.8 2013q4/bin/../lib/gcc/arm-none-eabi/4.8.3/../../../../arm-none-eabi/lib/armv7e-m\libstdc++.a(stdexcept.o)
                0x08025c10                vtable for std::runtime_error
 .rodata._ZTISt13runtime_error
                0x08025c28        0xc c:/program files (x86)/gnu tools arm embedded/4.8 2013q4/bin/../lib/gcc/arm-none-eabi/4.8.3/../../../../arm-none-eabi/lib/armv7e-m\libstdc++.a(stdexcept.o)
                0x08025c28                typeinfo for std::runtime_error
 .rodata._ZTISt11logic_error
                0x08025c34        0xc c:/program files (x86)/gnu tools arm embedded/4.8 2013q4/bin/../lib/gcc/arm-none-eabi/4.8.3/../../../../arm-none-eabi/lib/armv7e-m\libstdc++.a(stdexcept.o)
                0x08025c34                typeinfo for std::logic_error
 .rodata._ZTVSt15underflow_error
                0x08025c40       0x18 c:/program files (x86)/gnu tools arm embedded/4.8 2013q4/bin/../lib/gcc/arm-none-eabi/4.8.3/../../../../arm-none-eabi/lib/armv7e-m\libstdc++.a(stdexcept.o)
                0x08025c40                vtable for std::underflow_error
 .rodata._ZTSSt14overflow_error
                0x08025c58       0x14 c:/program files (x86)/gnu tools arm embedded/4.8 2013q4/bin/../lib/gcc/arm-none-eabi/4.8.3/../../../../arm-none-eabi/lib/armv7e-m\libstdc++.a(stdexcept.o)
                0x08025c58                typeinfo name for std::overflow_error
 .rodata._ZTISt11range_error
                0x08025c6c        0xc c:/program files (x86)/gnu tools arm embedded/4.8 2013q4/bin/../lib/gcc/arm-none-eabi/4.8.3/../../../../arm-none-eabi/lib/armv7e-m\libstdc++.a(stdexcept.o)
                0x08025c6c                typeinfo for std::range_error
 .rodata._ZTSSt16invalid_argument
                0x08025c78       0x18 c:/program files (x86)/gnu tools arm embedded/4.8 2013q4/bin/../lib/gcc/arm-none-eabi/4.8.3/../../../../arm-none-eabi/lib/armv7e-m\libstdc++.a(stdexcept.o)
                0x08025c78                typeinfo name for std::invalid_argument
 .rodata._ZTSSt12out_of_range
                0x08025c90       0x14 c:/program files (x86)/gnu tools arm embedded/4.8 2013q4/bin/../lib/gcc/arm-none-eabi/4.8.3/../../../../arm-none-eabi/lib/armv7e-m\libstdc++.a(stdexcept.o)
                0x08025c90                typeinfo name for std::out_of_range
 *fill*         0x08025ca4        0x4 
 .rodata._ZTVSt11range_error
                0x08025ca8       0x18 c:/program files (x86)/gnu tools arm embedded/4.8 2013q4/bin/../lib/gcc/arm-none-eabi/4.8.3/../../../../arm-none-eabi/lib/armv7e-m\libstdc++.a(stdexcept.o)
                0x08025ca8                vtable for std::range_error
 .rodata._ZTSSt11logic_error
                0x08025cc0       0x10 c:/program files (x86)/gnu tools arm embedded/4.8 2013q4/bin/../lib/gcc/arm-none-eabi/4.8.3/../../../../arm-none-eabi/lib/armv7e-m\libstdc++.a(stdexcept.o)
                0x08025cc0                typeinfo name for std::logic_error
 .rodata._ZTVSt12out_of_range
                0x08025cd0       0x18 c:/program files (x86)/gnu tools arm embedded/4.8 2013q4/bin/../lib/gcc/arm-none-eabi/4.8.3/../../../../arm-none-eabi/lib/armv7e-m\libstdc++.a(stdexcept.o)
                0x08025cd0                vtable for std::out_of_range
 .rodata._ZTISt15underflow_error
                0x08025ce8        0xc c:/program files (x86)/gnu tools arm embedded/4.8 2013q4/bin/../lib/gcc/arm-none-eabi/4.8.3/../../../../arm-none-eabi/lib/armv7e-m\libstdc++.a(stdexcept.o)
                0x08025ce8                typeinfo for std::underflow_error
 .rodata._ZTSSt11range_error
                0x08025cf4       0x10 c:/program files (x86)/gnu tools arm embedded/4.8 2013q4/bin/../lib/gcc/arm-none-eabi/4.8.3/../../../../arm-none-eabi/lib/armv7e-m\libstdc++.a(stdexcept.o)
                0x08025cf4                typeinfo name for std::range_error
 .rodata._ZTISt16invalid_argument
                0x08025d04        0xc c:/program files (x86)/gnu tools arm embedded/4.8 2013q4/bin/../lib/gcc/arm-none-eabi/4.8.3/../../../../arm-none-eabi/lib/armv7e-m\libstdc++.a(stdexcept.o)
                0x08025d04                typeinfo for std::invalid_argument
 .rodata._ZTVSt11logic_error
                0x08025d10       0x18 c:/program files (x86)/gnu tools arm embedded/4.8 2013q4/bin/../lib/gcc/arm-none-eabi/4.8.3/../../../../arm-none-eabi/lib/armv7e-m\libstdc++.a(stdexcept.o)
                0x08025d10                vtable for std::logic_error
 .rodata._ZTISt12out_of_range
                0x08025d28        0xc c:/program files (x86)/gnu tools arm embedded/4.8 2013q4/bin/../lib/gcc/arm-none-eabi/4.8.3/../../../../arm-none-eabi/lib/armv7e-m\libstdc++.a(stdexcept.o)
                0x08025d28                typeinfo for std::out_of_range
 .rodata._ZTSSt12domain_error
                0x08025d34       0x14 c:/program files (x86)/gnu tools arm embedded/4.8 2013q4/bin/../lib/gcc/arm-none-eabi/4.8.3/../../../../arm-none-eabi/lib/armv7e-m\libstdc++.a(stdexcept.o)
                0x08025d34                typeinfo name for std::domain_error
 .rodata._ZTVSt16invalid_argument
                0x08025d48       0x18 c:/program files (x86)/gnu tools arm embedded/4.8 2013q4/bin/../lib/gcc/arm-none-eabi/4.8.3/../../../../arm-none-eabi/lib/armv7e-m\libstdc++.a(stdexcept.o)
                0x08025d48                vtable for std::invalid_argument
 .rodata._ZTVSt12domain_error
                0x08025d60       0x18 c:/program files (x86)/gnu tools arm embedded/4.8 2013q4/bin/../lib/gcc/arm-none-eabi/4.8.3/../../../../arm-none-eabi/lib/armv7e-m\libstdc++.a(stdexcept.o)
                0x08025d60                vtable for std::domain_error
 .rodata._ZTSSt12length_error
                0x08025d78       0x14 c:/program files (x86)/gnu tools arm embedded/4.8 2013q4/bin/../lib/gcc/arm-none-eabi/4.8.3/../../../../arm-none-eabi/lib/armv7e-m\libstdc++.a(stdexcept.o)
                0x08025d78                typeinfo name for std::length_error
 *fill*         0x08025d8c        0x4 
 .rodata._ZTVSt14overflow_error
                0x08025d90       0x18 c:/program files (x86)/gnu tools arm embedded/4.8 2013q4/bin/../lib/gcc/arm-none-eabi/4.8.3/../../../../arm-none-eabi/lib/armv7e-m\libstdc++.a(stdexcept.o)
                0x08025d90                vtable for std::overflow_error
 .rodata._ZTISt14overflow_error
                0x08025da8        0xc c:/program files (x86)/gnu tools arm embedded/4.8 2013q4/bin/../lib/gcc/arm-none-eabi/4.8.3/../../../../arm-none-eabi/lib/armv7e-m\libstdc++.a(stdexcept.o)
                0x08025da8                typeinfo for std::overflow_error
 .rodata._ZTISt12length_error
                0x08025db4        0xc c:/program files (x86)/gnu tools arm embedded/4.8 2013q4/bin/../lib/gcc/arm-none-eabi/4.8.3/../../../../arm-none-eabi/lib/armv7e-m\libstdc++.a(stdexcept.o)
                0x08025db4                typeinfo for std::length_error
 .rodata._ZTVSt12length_error
                0x08025dc0       0x18 c:/program files (x86)/gnu tools arm embedded/4.8 2013q4/bin/../lib/gcc/arm-none-eabi/4.8.3/../../../../arm-none-eabi/lib/armv7e-m\libstdc++.a(stdexcept.o)
                0x08025dc0                vtable for std::length_error
 .rodata._ZTSSt15underflow_error
                0x08025dd8       0x14 c:/program files (x86)/gnu tools arm embedded/4.8 2013q4/bin/../lib/gcc/arm-none-eabi/4.8.3/../../../../arm-none-eabi/lib/armv7e-m\libstdc++.a(stdexcept.o)
                0x08025dd8                typeinfo name for std::underflow_error
 .rodata._ZTISt12domain_error
                0x08025dec        0xc c:/program files (x86)/gnu tools arm embedded/4.8 2013q4/bin/../lib/gcc/arm-none-eabi/4.8.3/../../../../arm-none-eabi/lib/armv7e-m\libstdc++.a(stdexcept.o)
                0x08025dec                typeinfo for std::domain_error
 .rodata._ZTVSt12system_error
                0x08025df8       0x18 c:/program files (x86)/gnu tools arm embedded/4.8 2013q4/bin/../lib/gcc/arm-none-eabi/4.8.3/../../../../arm-none-eabi/lib/armv7e-m\libstdc++.a(system_error.o)
                0x08025df8                vtable for std::system_error
 .rodata._ZTSN12_GLOBAL__N_121system_error_categoryE
                0x08025e10       0x2c c:/program files (x86)/gnu tools arm embedded/4.8 2013q4/bin/../lib/gcc/arm-none-eabi/4.8.3/../../../../arm-none-eabi/lib/armv7e-m\libstdc++.a(system_error.o)
 *fill*         0x08025e3c        0x4 
 .rodata._ZTVSt14error_category
                0x08025e40       0x28 c:/program files (x86)/gnu tools arm embedded/4.8 2013q4/bin/../lib/gcc/arm-none-eabi/4.8.3/../../../../arm-none-eabi/lib/armv7e-m\libstdc++.a(system_error.o)
                0x08025e40                vtable for std::error_category
 .rodata._ZTVN12_GLOBAL__N_121system_error_categoryE
                0x08025e68       0x28 c:/program files (x86)/gnu tools arm embedded/4.8 2013q4/bin/../lib/gcc/arm-none-eabi/4.8.3/../../../../arm-none-eabi/lib/armv7e-m\libstdc++.a(system_error.o)
 .rodata._ZTSSt14error_category
                0x08025e90       0x14 c:/program files (x86)/gnu tools arm embedded/4.8 2013q4/bin/../lib/gcc/arm-none-eabi/4.8.3/../../../../arm-none-eabi/lib/armv7e-m\libstdc++.a(system_error.o)
                0x08025e90                typeinfo name for std::error_category
 *fill*         0x08025ea4        0x4 
 .rodata._ZTVN12_GLOBAL__N_122generic_error_categoryE
                0x08025ea8       0x28 c:/program files (x86)/gnu tools arm embedded/4.8 2013q4/bin/../lib/gcc/arm-none-eabi/4.8.3/../../../../arm-none-eabi/lib/armv7e-m\libstdc++.a(system_error.o)
 .rodata._ZTISt12system_error
                0x08025ed0        0xc c:/program files (x86)/gnu tools arm embedded/4.8 2013q4/bin/../lib/gcc/arm-none-eabi/4.8.3/../../../../arm-none-eabi/lib/armv7e-m\libstdc++.a(system_error.o)
                0x08025ed0                typeinfo for std::system_error
 .rodata.str1.4
                0x08025edc        0xf c:/program files (x86)/gnu tools arm embedded/4.8 2013q4/bin/../lib/gcc/arm-none-eabi/4.8.3/../../../../arm-none-eabi/lib/armv7e-m\libstdc++.a(system_error.o)
                                 0x10 (size before relaxing)
 *fill*         0x08025eeb        0x1 
 .rodata._ZTISt14error_category
                0x08025eec        0x8 c:/program files (x86)/gnu tools arm embedded/4.8 2013q4/bin/../lib/gcc/arm-none-eabi/4.8.3/../../../../arm-none-eabi/lib/armv7e-m\libstdc++.a(system_error.o)
                0x08025eec                typeinfo for std::error_category
 .rodata._ZTSN12_GLOBAL__N_122generic_error_categoryE
                0x08025ef4       0x2c c:/program files (x86)/gnu tools arm embedded/4.8 2013q4/bin/../lib/gcc/arm-none-eabi/4.8.3/../../../../arm-none-eabi/lib/armv7e-m\libstdc++.a(system_error.o)
 .rodata._ZTIN12_GLOBAL__N_121system_error_categoryE
                0x08025f20        0xc c:/program files (x86)/gnu tools arm embedded/4.8 2013q4/bin/../lib/gcc/arm-none-eabi/4.8.3/../../../../arm-none-eabi/lib/armv7e-m\libstdc++.a(system_error.o)
 .rodata._ZTIN12_GLOBAL__N_122generic_error_categoryE
                0x08025f2c        0xc c:/program files (x86)/gnu tools arm embedded/4.8 2013q4/bin/../lib/gcc/arm-none-eabi/4.8.3/../../../../arm-none-eabi/lib/armv7e-m\libstdc++.a(system_error.o)
 .rodata._ZTSSt12system_error
                0x08025f38       0x14 c:/program files (x86)/gnu tools arm embedded/4.8 2013q4/bin/../lib/gcc/arm-none-eabi/4.8.3/../../../../arm-none-eabi/lib/armv7e-m\libstdc++.a(system_error.o)
                0x08025f38                typeinfo name for std::system_error
 .rodata._ZTIN12_GLOBAL__N_121future_error_categoryE
                0x08025f4c        0xc c:/program files (x86)/gnu tools arm embedded/4.8 2013q4/bin/../lib/gcc/arm-none-eabi/4.8.3/../../../../arm-none-eabi/lib/armv7e-m\libstdc++.a(future.o)
 .rodata._ZTVN12_GLOBAL__N_121future_error_categoryE
                0x08025f58       0x28 c:/program files (x86)/gnu tools arm embedded/4.8 2013q4/bin/../lib/gcc/arm-none-eabi/4.8.3/../../../../arm-none-eabi/lib/armv7e-m\libstdc++.a(future.o)
 .rodata._ZTISt12future_error
                0x08025f80        0xc c:/program files (x86)/gnu tools arm embedded/4.8 2013q4/bin/../lib/gcc/arm-none-eabi/4.8.3/../../../../arm-none-eabi/lib/armv7e-m\libstdc++.a(future.o)
                0x08025f80                typeinfo for std::future_error
 .rodata.str1.4
                0x08025f8c       0x72 c:/program files (x86)/gnu tools arm embedded/4.8 2013q4/bin/../lib/gcc/arm-none-eabi/4.8.3/../../../../arm-none-eabi/lib/armv7e-m\libstdc++.a(future.o)
                                 0x74 (size before relaxing)
 *fill*         0x08025ffe        0x2 
 .rodata._ZTSSt12future_error
                0x08026000       0x14 c:/program files (x86)/gnu tools arm embedded/4.8 2013q4/bin/../lib/gcc/arm-none-eabi/4.8.3/../../../../arm-none-eabi/lib/armv7e-m\libstdc++.a(future.o)
                0x08026000                typeinfo name for std::future_error
 .rodata._ZTSN12_GLOBAL__N_121future_error_categoryE
                0x08026014       0x2c c:/program files (x86)/gnu tools arm embedded/4.8 2013q4/bin/../lib/gcc/arm-none-eabi/4.8.3/../../../../arm-none-eabi/lib/armv7e-m\libstdc++.a(future.o)
 .rodata._ZTVSt12future_error
                0x08026040       0x18 c:/program files (x86)/gnu tools arm embedded/4.8 2013q4/bin/../lib/gcc/arm-none-eabi/4.8.3/../../../../arm-none-eabi/lib/armv7e-m\libstdc++.a(future.o)
                0x08026040                vtable for std::future_error
 .rodata._ZTVSt11regex_error
                0x08026058       0x18 c:/program files (x86)/gnu tools arm embedded/4.8 2013q4/bin/../lib/gcc/arm-none-eabi/4.8.3/../../../../arm-none-eabi/lib/armv7e-m\libstdc++.a(regex.o)
                0x08026058                vtable for std::regex_error
 .rodata._ZTSSt11regex_error
                0x08026070       0x10 c:/program files (x86)/gnu tools arm embedded/4.8 2013q4/bin/../lib/gcc/arm-none-eabi/4.8.3/../../../../arm-none-eabi/lib/armv7e-m\libstdc++.a(regex.o)
                0x08026070                typeinfo name for std::regex_error
 .rodata.str1.4
                0x08026080        0xc c:/program files (x86)/gnu tools arm embedded/4.8 2013q4/bin/../lib/gcc/arm-none-eabi/4.8.3/../../../../arm-none-eabi/lib/armv7e-m\libstdc++.a(regex.o)
 .rodata._ZTISt11regex_error
                0x0802608c        0xc c:/program files (x86)/gnu tools arm embedded/4.8 2013q4/bin/../lib/gcc/arm-none-eabi/4.8.3/../../../../arm-none-eabi/lib/armv7e-m\libstdc++.a(regex.o)
                0x0802608c                typeinfo for std::regex_error
 .rodata.str1.4
                0x08026098      0x7e6 c:/program files (x86)/gnu tools arm embedded/4.8 2013q4/bin/../lib/gcc/arm-none-eabi/4.8.3/../../../../arm-none-eabi/lib/armv7e-m\libstdc++.a(cp-demangle.o)
                                0x840 (size before relaxing)
 *fill*         0x0802687e        0x2 
 .rodata._ZTIN9__gnu_cxx20recursive_init_errorE
                0x08026880        0xc c:/program files (x86)/gnu tools arm embedded/4.8 2013q4/bin/../lib/gcc/arm-none-eabi/4.8.3/../../../../arm-none-eabi/lib/armv7e-m\libstdc++.a(guard_error.o)
                0x08026880                typeinfo for __gnu_cxx::recursive_init_error
 .rodata._ZTSN9__gnu_cxx20recursive_init_errorE
                0x0802688c       0x24 c:/program files (x86)/gnu tools arm embedded/4.8 2013q4/bin/../lib/gcc/arm-none-eabi/4.8.3/../../../../arm-none-eabi/lib/armv7e-m\libstdc++.a(guard_error.o)
                0x0802688c                typeinfo name for __gnu_cxx::recursive_init_error
 .rodata._ZTVN9__gnu_cxx20recursive_init_errorE
                0x080268b0       0x18 c:/program files (x86)/gnu tools arm embedded/4.8 2013q4/bin/../lib/gcc/arm-none-eabi/4.8.3/../../../../arm-none-eabi/lib/armv7e-m\libstdc++.a(guard_error.o)
                0x080268b0                vtable for __gnu_cxx::recursive_init_error
 .rodata.str1.4
                0x080268c8       0x3f c:/program files (x86)/gnu tools arm embedded/4.8 2013q4/bin/../lib/gcc/arm-none-eabi/4.8.3/../../../../arm-none-eabi/lib/armv7e-m\libc.a(lib_a-assert.o)
                                 0x44 (size before relaxing)
 *fill*         0x08026907        0x1 
 .rodata._ctype_
                0x08026908      0x104 c:/program files (x86)/gnu tools arm embedded/4.8 2013q4/bin/../lib/gcc/arm-none-eabi/4.8.3/../../../../arm-none-eabi/lib/armv7e-m\libc.a(lib_a-ctype_.o)
                0x08026908                _ctype_
 .rodata.str1.4
                0x08026a0c        0x2 c:/program files (x86)/gnu tools arm embedded/4.8 2013q4/bin/../lib/gcc/arm-none-eabi/4.8.3/../../../../arm-none-eabi/lib/armv7e-m\libc.a(lib_a-impure.o)
                                  0x4 (size before relaxing)
 *fill*         0x08026a0e        0x2 
 .rodata._global_impure_ptr
                0x08026a10        0x4 c:/program files (x86)/gnu tools arm embedded/4.8 2013q4/bin/../lib/gcc/arm-none-eabi/4.8.3/../../../../arm-none-eabi/lib/armv7e-m\libc.a(lib_a-impure.o)
                0x08026a10                _global_impure_ptr
 .rodata.str1.4
                0x00000000        0x2 c:/program files (x86)/gnu tools arm embedded/4.8 2013q4/bin/../lib/gcc/arm-none-eabi/4.8.3/../../../../arm-none-eabi/lib/armv7e-m\libc.a(lib_a-puts.o)
                                  0x4 (size before relaxing)
 .rodata.str1.4
                0x08026a14      0x635 c:/program files (x86)/gnu tools arm embedded/4.8 2013q4/bin/../lib/gcc/arm-none-eabi/4.8.3/../../../../arm-none-eabi/lib/armv7e-m\libc.a(lib_a-strerror.o)
                                0x63c (size before relaxing)
 *fill*         0x08027049        0x3 
 .rodata.blanks.6743
                0x0802704c       0x10 c:/program files (x86)/gnu tools arm embedded/4.8 2013q4/bin/../lib/gcc/arm-none-eabi/4.8.3/../../../../arm-none-eabi/lib/armv7e-m\libc.a(lib_a-svfprintf.o)
 .rodata.str1.4
                0x0802705c       0x42 c:/program files (x86)/gnu tools arm embedded/4.8 2013q4/bin/../lib/gcc/arm-none-eabi/4.8.3/../../../../arm-none-eabi/lib/armv7e-m\libc.a(lib_a-svfprintf.o)
                                 0x44 (size before relaxing)
 *fill*         0x0802709e        0x2 
 .rodata.zeroes.6744
                0x080270a0       0x10 c:/program files (x86)/gnu tools arm embedded/4.8 2013q4/bin/../lib/gcc/arm-none-eabi/4.8.3/../../../../arm-none-eabi/lib/armv7e-m\libc.a(lib_a-svfprintf.o)
 .rodata.zeroes.6702
                0x080270b0       0x10 c:/program files (x86)/gnu tools arm embedded/4.8 2013q4/bin/../lib/gcc/arm-none-eabi/4.8.3/../../../../arm-none-eabi/lib/armv7e-m\libc.a(lib_a-vfiprintf.o)
 .rodata.str1.4
                0x00000000       0x30 c:/program files (x86)/gnu tools arm embedded/4.8 2013q4/bin/../lib/gcc/arm-none-eabi/4.8.3/../../../../arm-none-eabi/lib/armv7e-m\libc.a(lib_a-vfiprintf.o)
 .rodata.blanks.6701
                0x080270c0       0x10 c:/program files (x86)/gnu tools arm embedded/4.8 2013q4/bin/../lib/gcc/arm-none-eabi/4.8.3/../../../../arm-none-eabi/lib/armv7e-m\libc.a(lib_a-vfiprintf.o)
 .rodata.zeroes.6759
                0x080270d0       0x10 c:/program files (x86)/gnu tools arm embedded/4.8 2013q4/bin/../lib/gcc/arm-none-eabi/4.8.3/../../../../arm-none-eabi/lib/armv7e-m\libc.a(lib_a-vfprintf.o)
 .rodata.str1.4
                0x00000000       0x44 c:/program files (x86)/gnu tools arm embedded/4.8 2013q4/bin/../lib/gcc/arm-none-eabi/4.8.3/../../../../arm-none-eabi/lib/armv7e-m\libc.a(lib_a-vfprintf.o)
 .rodata.blanks.6758
                0x080270e0       0x10 c:/program files (x86)/gnu tools arm embedded/4.8 2013q4/bin/../lib/gcc/arm-none-eabi/4.8.3/../../../../arm-none-eabi/lib/armv7e-m\libc.a(lib_a-vfprintf.o)
 .rodata.str1.4
                0x080270f0       0x10 c:/program files (x86)/gnu tools arm embedded/4.8 2013q4/bin/../lib/gcc/arm-none-eabi/4.8.3/../../../../arm-none-eabi/lib/armv7e-m\libc.a(lib_a-dtoa.o)
                                 0x14 (size before relaxing)
 .rodata.str1.4
                0x08027100        0x8 c:/program files (x86)/gnu tools arm embedded/4.8 2013q4/bin/../lib/gcc/arm-none-eabi/4.8.3/../../../../arm-none-eabi/lib/armv7e-m\libc.a(lib_a-locale.o)
                                 0x14 (size before relaxing)
 .rodata.p05.5288
                0x08027108        0xc c:/program files (x86)/gnu tools arm embedded/4.8 2013q4/bin/../lib/gcc/arm-none-eabi/4.8.3/../../../../arm-none-eabi/lib/armv7e-m\libc.a(lib_a-mprec.o)
 *fill*         0x08027114        0x4 
 .rodata.__mprec_tens
                0x08027118       0xc8 c:/program files (x86)/gnu tools arm embedded/4.8 2013q4/bin/../lib/gcc/arm-none-eabi/4.8.3/../../../../arm-none-eabi/lib/armv7e-m\libc.a(lib_a-mprec.o)
                0x08027118                __mprec_tens
 .rodata.__mprec_bigtens
                0x080271e0       0x28 c:/program files (x86)/gnu tools arm embedded/4.8 2013q4/bin/../lib/gcc/arm-none-eabi/4.8.3/../../../../arm-none-eabi/lib/armv7e-m\libc.a(lib_a-mprec.o)
                0x080271e0                __mprec_bigtens
 .rodata.__mprec_tinytens
                0x08027208       0x28 c:/program files (x86)/gnu tools arm embedded/4.8 2013q4/bin/../lib/gcc/arm-none-eabi/4.8.3/../../../../arm-none-eabi/lib/armv7e-m\libc.a(lib_a-mprec.o)
                0x08027208                __mprec_tinytens
 .rodata.blanks.6687
                0x08027230       0x10 c:/program files (x86)/gnu tools arm embedded/4.8 2013q4/bin/../lib/gcc/arm-none-eabi/4.8.3/../../../../arm-none-eabi/lib/armv7e-m\libc.a(lib_a-svfiprintf.o)
 .rodata.str1.4
                0x00000000       0x30 c:/program files (x86)/gnu tools arm embedded/4.8 2013q4/bin/../lib/gcc/arm-none-eabi/4.8.3/../../../../arm-none-eabi/lib/armv7e-m\libc.a(lib_a-svfiprintf.o)
 .rodata.zeroes.6688
                0x08027240       0x10 c:/program files (x86)/gnu tools arm embedded/4.8 2013q4/bin/../lib/gcc/arm-none-eabi/4.8.3/../../../../arm-none-eabi/lib/armv7e-m\libc.a(lib_a-svfiprintf.o)
                0x08027250                . = ALIGN (0x4)

.ARM.extab      0x08027250      0x594
 *(.ARM.extab* .gnu.linkonce.armextab.*)
 .ARM.extab     0x08027250        0x0 c:/program files (x86)/gnu tools arm embedded/4.8 2013q4/bin/../lib/gcc/arm-none-eabi/4.8.3/../../../../arm-none-eabi/lib/armv7e-m/crt0.o
 .ARM.extab.text._ZNK3osc9Exception4whatEv
                0x08027250        0x0 ../build/obj/oscreceivedelements.o
 .ARM.extab     0x08027250       0xa8 ../build/obj/oscreceivedelements.o
 .ARM.extab.text._ZN3osc9ExceptionD2Ev
                0x080272f8        0x0 ../build/obj/oscreceivedelements.o
 .ARM.extab.text._ZN3osc24MissingArgumentExceptionD2Ev
                0x080272f8        0x0 ../build/obj/oscreceivedelements.o
 .ARM.extab.text._ZN3osc26WrongArgumentTypeExceptionD2Ev
                0x080272f8        0x0 ../build/obj/oscreceivedelements.o
 .ARM.extab.text._ZN3osc24MalformedBundleExceptionD2Ev
                0x080272f8        0x0 ../build/obj/oscreceivedelements.o
 .ARM.extab.text._ZN3osc25MalformedMessageExceptionD2Ev
                0x080272f8        0x0 ../build/obj/oscreceivedelements.o
 .ARM.extab.text._ZN3osc9ExceptionD0Ev
                0x080272f8        0x0 ../build/obj/oscreceivedelements.o
 .ARM.extab.text._ZN3osc24MissingArgumentExceptionD0Ev
                0x080272f8        0x0 ../build/obj/oscreceivedelements.o
 .ARM.extab.text._ZN3osc26WrongArgumentTypeExceptionD0Ev
                0x080272f8        0x0 ../build/obj/oscreceivedelements.o
 .ARM.extab.text._ZN3osc24MalformedBundleExceptionD0Ev
                0x080272f8        0x0 ../build/obj/oscreceivedelements.o
 .ARM.extab.text._ZN3osc25MalformedMessageExceptionD0Ev
                0x080272f8        0x0 ../build/obj/oscreceivedelements.o
 .ARM.extab.text._ZNK10__cxxabiv119__pointer_type_info14__is_pointer_pEv
                0x080272f8        0x0 c:/program files (x86)/gnu tools arm embedded/4.8 2013q4/bin/../lib/gcc/arm-none-eabi/4.8.3/../../../../arm-none-eabi/lib/armv7e-m\libstdc++.a(pointer_type_info.o)
 .ARM.extab.text._ZN10__cxxabiv119__pointer_type_infoD2Ev
                0x080272f8        0x0 c:/program files (x86)/gnu tools arm embedded/4.8 2013q4/bin/../lib/gcc/arm-none-eabi/4.8.3/../../../../arm-none-eabi/lib/armv7e-m\libstdc++.a(pointer_type_info.o)
 .ARM.extab.text._ZN10__cxxabiv119__pointer_type_infoD0Ev
                0x080272f8        0x0 c:/program files (x86)/gnu tools arm embedded/4.8 2013q4/bin/../lib/gcc/arm-none-eabi/4.8.3/../../../../arm-none-eabi/lib/armv7e-m\libstdc++.a(pointer_type_info.o)
 .ARM.extab.text._ZNK10__cxxabiv119__pointer_type_info15__pointer_catchEPKNS_17__pbase_type_infoEPPvj
                0x080272f8        0x0 c:/program files (x86)/gnu tools arm embedded/4.8 2013q4/bin/../lib/gcc/arm-none-eabi/4.8.3/../../../../arm-none-eabi/lib/armv7e-m\libstdc++.a(pointer_type_info.o)
 .ARM.extab.text._ZN10__cxxabiv123__fundamental_type_infoD2Ev
                0x080272f8        0x0 c:/program files (x86)/gnu tools arm embedded/4.8 2013q4/bin/../lib/gcc/arm-none-eabi/4.8.3/../../../../arm-none-eabi/lib/armv7e-m\libstdc++.a(fundamental_type_info.o)
 .ARM.extab.text._ZN10__cxxabiv123__fundamental_type_infoD0Ev
                0x080272f8        0x0 c:/program files (x86)/gnu tools arm embedded/4.8 2013q4/bin/../lib/gcc/arm-none-eabi/4.8.3/../../../../arm-none-eabi/lib/armv7e-m\libstdc++.a(fundamental_type_info.o)
 .ARM.extab.text._ZN10__cxxabiv120__si_class_type_infoD2Ev
                0x080272f8        0x0 c:/program files (x86)/gnu tools arm embedded/4.8 2013q4/bin/../lib/gcc/arm-none-eabi/4.8.3/../../../../arm-none-eabi/lib/armv7e-m\libstdc++.a(si_class_type_info.o)
 .ARM.extab.text._ZN10__cxxabiv120__si_class_type_infoD0Ev
                0x080272f8        0x0 c:/program files (x86)/gnu tools arm embedded/4.8 2013q4/bin/../lib/gcc/arm-none-eabi/4.8.3/../../../../arm-none-eabi/lib/armv7e-m\libstdc++.a(si_class_type_info.o)
 .ARM.extab.text._ZNK10__cxxabiv120__si_class_type_info20__do_find_public_srcEiPKvPKNS_17__class_type_infoES2_
                0x080272f8        0x0 c:/program files (x86)/gnu tools arm embedded/4.8 2013q4/bin/../lib/gcc/arm-none-eabi/4.8.3/../../../../arm-none-eabi/lib/armv7e-m\libstdc++.a(si_class_type_info.o)
 .ARM.extab.text._ZNK10__cxxabiv120__si_class_type_info12__do_dyncastEiNS_17__class_type_info10__sub_kindEPKS1_PKvS4_S6_RNS1_16__dyncast_resultE
                0x080272f8        0x0 c:/program files (x86)/gnu tools arm embedded/4.8 2013q4/bin/../lib/gcc/arm-none-eabi/4.8.3/../../../../arm-none-eabi/lib/armv7e-m\libstdc++.a(si_class_type_info.o)
 .ARM.extab.text._ZNK10__cxxabiv120__si_class_type_info11__do_upcastEPKNS_17__class_type_infoEPKvRNS1_15__upcast_resultE
                0x080272f8        0x0 c:/program files (x86)/gnu tools arm embedded/4.8 2013q4/bin/../lib/gcc/arm-none-eabi/4.8.3/../../../../arm-none-eabi/lib/armv7e-m\libstdc++.a(si_class_type_info.o)
 .ARM.extab.text.__cxa_pure_virtual
                0x080272f8        0xc c:/program files (x86)/gnu tools arm embedded/4.8 2013q4/bin/../lib/gcc/arm-none-eabi/4.8.3/../../../../arm-none-eabi/lib/armv7e-m\libstdc++.a(pure.o)
 .ARM.extab.text.__cxa_deleted_virtual
                0x08027304        0xc c:/program files (x86)/gnu tools arm embedded/4.8 2013q4/bin/../lib/gcc/arm-none-eabi/4.8.3/../../../../arm-none-eabi/lib/armv7e-m\libstdc++.a(pure.o)
 .ARM.extab.text._ZNK10__cxxabiv117__pbase_type_info15__pointer_catchEPKS0_PPvj
                0x08027310        0x0 c:/program files (x86)/gnu tools arm embedded/4.8 2013q4/bin/../lib/gcc/arm-none-eabi/4.8.3/../../../../arm-none-eabi/lib/armv7e-m\libstdc++.a(pbase_type_info.o)
 .ARM.extab.text._ZN10__cxxabiv117__pbase_type_infoD2Ev
                0x08027310        0x0 c:/program files (x86)/gnu tools arm embedded/4.8 2013q4/bin/../lib/gcc/arm-none-eabi/4.8.3/../../../../arm-none-eabi/lib/armv7e-m\libstdc++.a(pbase_type_info.o)
 .ARM.extab.text._ZN10__cxxabiv117__pbase_type_infoD0Ev
                0x08027310        0x0 c:/program files (x86)/gnu tools arm embedded/4.8 2013q4/bin/../lib/gcc/arm-none-eabi/4.8.3/../../../../arm-none-eabi/lib/armv7e-m\libstdc++.a(pbase_type_info.o)
 .ARM.extab.text._ZNK10__cxxabiv117__pbase_type_info10__do_catchEPKSt9type_infoPPvj
                0x08027310        0x0 c:/program files (x86)/gnu tools arm embedded/4.8 2013q4/bin/../lib/gcc/arm-none-eabi/4.8.3/../../../../arm-none-eabi/lib/armv7e-m\libstdc++.a(pbase_type_info.o)
 .ARM.extab.text._ZNSt9exceptionD2Ev
                0x08027310        0x0 c:/program files (x86)/gnu tools arm embedded/4.8 2013q4/bin/../lib/gcc/arm-none-eabi/4.8.3/../../../../arm-none-eabi/lib/armv7e-m\libstdc++.a(eh_exception.o)
 .ARM.extab.text._ZNSt13bad_exceptionD2Ev
                0x08027310        0x0 c:/program files (x86)/gnu tools arm embedded/4.8 2013q4/bin/../lib/gcc/arm-none-eabi/4.8.3/../../../../arm-none-eabi/lib/armv7e-m\libstdc++.a(eh_exception.o)
 .ARM.extab.text._ZN10__cxxabiv115__forced_unwindD2Ev
                0x08027310        0x0 c:/program files (x86)/gnu tools arm embedded/4.8 2013q4/bin/../lib/gcc/arm-none-eabi/4.8.3/../../../../arm-none-eabi/lib/armv7e-m\libstdc++.a(eh_exception.o)
 .ARM.extab.text._ZN10__cxxabiv119__foreign_exceptionD2Ev
                0x08027310        0x0 c:/program files (x86)/gnu tools arm embedded/4.8 2013q4/bin/../lib/gcc/arm-none-eabi/4.8.3/../../../../arm-none-eabi/lib/armv7e-m\libstdc++.a(eh_exception.o)
 .ARM.extab.text._ZNKSt9exception4whatEv
                0x08027310        0x0 c:/program files (x86)/gnu tools arm embedded/4.8 2013q4/bin/../lib/gcc/arm-none-eabi/4.8.3/../../../../arm-none-eabi/lib/armv7e-m\libstdc++.a(eh_exception.o)
 .ARM.extab.text._ZNKSt13bad_exception4whatEv
                0x08027310        0x0 c:/program files (x86)/gnu tools arm embedded/4.8 2013q4/bin/../lib/gcc/arm-none-eabi/4.8.3/../../../../arm-none-eabi/lib/armv7e-m\libstdc++.a(eh_exception.o)
 .ARM.extab.text._ZNSt9exceptionD0Ev
                0x08027310        0x0 c:/program files (x86)/gnu tools arm embedded/4.8 2013q4/bin/../lib/gcc/arm-none-eabi/4.8.3/../../../../arm-none-eabi/lib/armv7e-m\libstdc++.a(eh_exception.o)
 .ARM.extab.text._ZNSt13bad_exceptionD0Ev
                0x08027310        0x0 c:/program files (x86)/gnu tools arm embedded/4.8 2013q4/bin/../lib/gcc/arm-none-eabi/4.8.3/../../../../arm-none-eabi/lib/armv7e-m\libstdc++.a(eh_exception.o)
 .ARM.extab.text._ZN10__cxxabiv115__forced_unwindD0Ev
                0x08027310        0x0 c:/program files (x86)/gnu tools arm embedded/4.8 2013q4/bin/../lib/gcc/arm-none-eabi/4.8.3/../../../../arm-none-eabi/lib/armv7e-m\libstdc++.a(eh_exception.o)
 .ARM.extab.text._ZN10__cxxabiv119__foreign_exceptionD0Ev
                0x08027310        0x0 c:/program files (x86)/gnu tools arm embedded/4.8 2013q4/bin/../lib/gcc/arm-none-eabi/4.8.3/../../../../arm-none-eabi/lib/armv7e-m\libstdc++.a(eh_exception.o)
 .ARM.extab.text._ZdlPv
                0x08027310        0x0 c:/program files (x86)/gnu tools arm embedded/4.8 2013q4/bin/../lib/gcc/arm-none-eabi/4.8.3/../../../../arm-none-eabi/lib/armv7e-m\libstdc++.a(del_op.o)
 .ARM.extab.text._ZNK10__cxxabiv117__class_type_info11__do_upcastEPKS0_PPv
                0x08027310        0x0 c:/program files (x86)/gnu tools arm embedded/4.8 2013q4/bin/../lib/gcc/arm-none-eabi/4.8.3/../../../../arm-none-eabi/lib/armv7e-m\libstdc++.a(class_type_info.o)
 .ARM.extab.text._ZNK10__cxxabiv117__class_type_info20__do_find_public_srcEiPKvPKS0_S2_
                0x08027310        0x0 c:/program files (x86)/gnu tools arm embedded/4.8 2013q4/bin/../lib/gcc/arm-none-eabi/4.8.3/../../../../arm-none-eabi/lib/armv7e-m\libstdc++.a(class_type_info.o)
 .ARM.extab.text._ZN10__cxxabiv117__class_type_infoD2Ev
                0x08027310        0x0 c:/program files (x86)/gnu tools arm embedded/4.8 2013q4/bin/../lib/gcc/arm-none-eabi/4.8.3/../../../../arm-none-eabi/lib/armv7e-m\libstdc++.a(class_type_info.o)
 .ARM.extab.text._ZN10__cxxabiv117__class_type_infoD0Ev
                0x08027310        0x0 c:/program files (x86)/gnu tools arm embedded/4.8 2013q4/bin/../lib/gcc/arm-none-eabi/4.8.3/../../../../arm-none-eabi/lib/armv7e-m\libstdc++.a(class_type_info.o)
 .ARM.extab.text._ZNK10__cxxabiv117__class_type_info11__do_upcastEPKS0_PKvRNS0_15__upcast_resultE
                0x08027310        0x0 c:/program files (x86)/gnu tools arm embedded/4.8 2013q4/bin/../lib/gcc/arm-none-eabi/4.8.3/../../../../arm-none-eabi/lib/armv7e-m\libstdc++.a(class_type_info.o)
 .ARM.extab.text._ZNK10__cxxabiv117__class_type_info10__do_catchEPKSt9type_infoPPvj
                0x08027310        0x0 c:/program files (x86)/gnu tools arm embedded/4.8 2013q4/bin/../lib/gcc/arm-none-eabi/4.8.3/../../../../arm-none-eabi/lib/armv7e-m\libstdc++.a(class_type_info.o)
 .ARM.extab.text._ZNK10__cxxabiv117__class_type_info12__do_dyncastEiNS0_10__sub_kindEPKS0_PKvS3_S5_RNS0_16__dyncast_resultE
                0x08027310        0x0 c:/program files (x86)/gnu tools arm embedded/4.8 2013q4/bin/../lib/gcc/arm-none-eabi/4.8.3/../../../../arm-none-eabi/lib/armv7e-m\libstdc++.a(class_type_info.o)
 .ARM.extab.text.__aeabi_atexit
                0x08027310        0x0 c:/program files (x86)/gnu tools arm embedded/4.8 2013q4/bin/../lib/gcc/arm-none-eabi/4.8.3/../../../../arm-none-eabi/lib/armv7e-m\libstdc++.a(atexit_arm.o)
 .ARM.extab.text._ZL23__gxx_exception_cleanup19_Unwind_Reason_CodeP21_Unwind_Control_Block
                0x08027310        0x0 c:/program files (x86)/gnu tools arm embedded/4.8 2013q4/bin/../lib/gcc/arm-none-eabi/4.8.3/../../../../arm-none-eabi/lib/armv7e-m\libstdc++.a(eh_throw.o)
 .ARM.extab.text.__cxa_throw
                0x08027310        0x0 c:/program files (x86)/gnu tools arm embedded/4.8 2013q4/bin/../lib/gcc/arm-none-eabi/4.8.3/../../../../arm-none-eabi/lib/armv7e-m\libstdc++.a(eh_throw.o)
 .ARM.extab.text.__cxa_rethrow
                0x08027310        0x0 c:/program files (x86)/gnu tools arm embedded/4.8 2013q4/bin/../lib/gcc/arm-none-eabi/4.8.3/../../../../arm-none-eabi/lib/armv7e-m\libstdc++.a(eh_throw.o)
 .ARM.extab.text._Znwj
                0x08027310       0x20 c:/program files (x86)/gnu tools arm embedded/4.8 2013q4/bin/../lib/gcc/arm-none-eabi/4.8.3/../../../../arm-none-eabi/lib/armv7e-m\libstdc++.a(new_op.o)
 .ARM.extab.text._ZL12read_sleb128PKhPl
                0x08027330        0x0 c:/program files (x86)/gnu tools arm embedded/4.8 2013q4/bin/../lib/gcc/arm-none-eabi/4.8.3/../../../../arm-none-eabi/lib/armv7e-m\libstdc++.a(eh_personality.o)
 .ARM.extab.text._ZL28read_encoded_value_with_basehjPKhPj
                0x08027330        0x0 c:/program files (x86)/gnu tools arm embedded/4.8 2013q4/bin/../lib/gcc/arm-none-eabi/4.8.3/../../../../arm-none-eabi/lib/armv7e-m\libstdc++.a(eh_personality.o)
 .ARM.extab.text._ZL21base_of_encoded_valuehP15_Unwind_Context
                0x08027330        0xc c:/program files (x86)/gnu tools arm embedded/4.8 2013q4/bin/../lib/gcc/arm-none-eabi/4.8.3/../../../../arm-none-eabi/lib/armv7e-m\libstdc++.a(eh_personality.o)
 .ARM.extab.text._ZL17parse_lsda_headerP15_Unwind_ContextPKhP16lsda_header_info
                0x0802733c        0x0 c:/program files (x86)/gnu tools arm embedded/4.8 2013q4/bin/../lib/gcc/arm-none-eabi/4.8.3/../../../../arm-none-eabi/lib/armv7e-m\libstdc++.a(eh_personality.o)
 .ARM.extab.text.__gxx_personality_v0
                0x0802733c       0x20 c:/program files (x86)/gnu tools arm embedded/4.8 2013q4/bin/../lib/gcc/arm-none-eabi/4.8.3/../../../../arm-none-eabi/lib/armv7e-m\libstdc++.a(eh_personality.o)
 .ARM.extab.text.__cxa_allocate_exception
                0x0802735c        0x0 c:/program files (x86)/gnu tools arm embedded/4.8 2013q4/bin/../lib/gcc/arm-none-eabi/4.8.3/../../../../arm-none-eabi/lib/armv7e-m\libstdc++.a(eh_alloc.o)
 .ARM.extab.text.__cxa_free_exception
                0x0802735c        0x0 c:/program files (x86)/gnu tools arm embedded/4.8 2013q4/bin/../lib/gcc/arm-none-eabi/4.8.3/../../../../arm-none-eabi/lib/armv7e-m\libstdc++.a(eh_alloc.o)
 .ARM.extab.text.__cxa_allocate_dependent_exception
                0x0802735c        0x0 c:/program files (x86)/gnu tools arm embedded/4.8 2013q4/bin/../lib/gcc/arm-none-eabi/4.8.3/../../../../arm-none-eabi/lib/armv7e-m\libstdc++.a(eh_alloc.o)
 .ARM.extab.text.__cxa_free_dependent_exception
                0x0802735c        0x0 c:/program files (x86)/gnu tools arm embedded/4.8 2013q4/bin/../lib/gcc/arm-none-eabi/4.8.3/../../../../arm-none-eabi/lib/armv7e-m\libstdc++.a(eh_alloc.o)
 .ARM.extab.text._ZNK10__cxxabiv120__function_type_info15__is_function_pEv
                0x0802735c        0x0 c:/program files (x86)/gnu tools arm embedded/4.8 2013q4/bin/../lib/gcc/arm-none-eabi/4.8.3/../../../../arm-none-eabi/lib/armv7e-m\libstdc++.a(function_type_info.o)
 .ARM.extab.text._ZN10__cxxabiv120__function_type_infoD2Ev
                0x0802735c        0x0 c:/program files (x86)/gnu tools arm embedded/4.8 2013q4/bin/../lib/gcc/arm-none-eabi/4.8.3/../../../../arm-none-eabi/lib/armv7e-m\libstdc++.a(function_type_info.o)
 .ARM.extab.text._ZN10__cxxabiv120__function_type_infoD0Ev
                0x0802735c        0x0 c:/program files (x86)/gnu tools arm embedded/4.8 2013q4/bin/../lib/gcc/arm-none-eabi/4.8.3/../../../../arm-none-eabi/lib/armv7e-m\libstdc++.a(function_type_info.o)
 .ARM.extab.text._ZN10__cxxabiv111__terminateEPFvvE
                0x0802735c       0x2c c:/program files (x86)/gnu tools arm embedded/4.8 2013q4/bin/../lib/gcc/arm-none-eabi/4.8.3/../../../../arm-none-eabi/lib/armv7e-m\libstdc++.a(eh_terminate.o)
 .ARM.extab.text._ZSt9terminatev
                0x08027388        0x0 c:/program files (x86)/gnu tools arm embedded/4.8 2013q4/bin/../lib/gcc/arm-none-eabi/4.8.3/../../../../arm-none-eabi/lib/armv7e-m\libstdc++.a(eh_terminate.o)
 .ARM.extab.text._ZN10__cxxabiv112__unexpectedEPFvvE
                0x08027388        0xc c:/program files (x86)/gnu tools arm embedded/4.8 2013q4/bin/../lib/gcc/arm-none-eabi/4.8.3/../../../../arm-none-eabi/lib/armv7e-m\libstdc++.a(eh_terminate.o)
 .ARM.extab.text._ZSt10unexpectedv
                0x08027394        0xc c:/program files (x86)/gnu tools arm embedded/4.8 2013q4/bin/../lib/gcc/arm-none-eabi/4.8.3/../../../../arm-none-eabi/lib/armv7e-m\libstdc++.a(eh_terminate.o)
 .ARM.extab.text._ZSt13set_terminatePFvvE
                0x080273a0        0x0 c:/program files (x86)/gnu tools arm embedded/4.8 2013q4/bin/../lib/gcc/arm-none-eabi/4.8.3/../../../../arm-none-eabi/lib/armv7e-m\libstdc++.a(eh_terminate.o)
 .ARM.extab.text._ZSt14set_unexpectedPFvvE
                0x080273a0        0x0 c:/program files (x86)/gnu tools arm embedded/4.8 2013q4/bin/../lib/gcc/arm-none-eabi/4.8.3/../../../../arm-none-eabi/lib/armv7e-m\libstdc++.a(eh_terminate.o)
 .ARM.extab.text._ZNSt9type_infoD2Ev
                0x080273a0        0x0 c:/program files (x86)/gnu tools arm embedded/4.8 2013q4/bin/../lib/gcc/arm-none-eabi/4.8.3/../../../../arm-none-eabi/lib/armv7e-m\libstdc++.a(tinfo.o)
 .ARM.extab.text._ZNKSt9type_info14__is_pointer_pEv
                0x080273a0        0x0 c:/program files (x86)/gnu tools arm embedded/4.8 2013q4/bin/../lib/gcc/arm-none-eabi/4.8.3/../../../../arm-none-eabi/lib/armv7e-m\libstdc++.a(tinfo.o)
 .ARM.extab.text._ZNKSt9type_info15__is_function_pEv
                0x080273a0        0x0 c:/program files (x86)/gnu tools arm embedded/4.8 2013q4/bin/../lib/gcc/arm-none-eabi/4.8.3/../../../../arm-none-eabi/lib/armv7e-m\libstdc++.a(tinfo.o)
 .ARM.extab.text._ZNKSt9type_info11__do_upcastEPKN10__cxxabiv117__class_type_infoEPPv
                0x080273a0        0x0 c:/program files (x86)/gnu tools arm embedded/4.8 2013q4/bin/../lib/gcc/arm-none-eabi/4.8.3/../../../../arm-none-eabi/lib/armv7e-m\libstdc++.a(tinfo.o)
 .ARM.extab.text._ZNSt9type_infoD0Ev
                0x080273a0        0x0 c:/program files (x86)/gnu tools arm embedded/4.8 2013q4/bin/../lib/gcc/arm-none-eabi/4.8.3/../../../../arm-none-eabi/lib/armv7e-m\libstdc++.a(tinfo.o)
 .ARM.extab.text._ZNKSt9type_infoeqERKS_
                0x080273a0        0x0 c:/program files (x86)/gnu tools arm embedded/4.8 2013q4/bin/../lib/gcc/arm-none-eabi/4.8.3/../../../../arm-none-eabi/lib/armv7e-m\libstdc++.a(tinfo.o)
 .ARM.extab.text._ZNKSt9type_info10__do_catchEPKS_PPvj
                0x080273a0        0x0 c:/program files (x86)/gnu tools arm embedded/4.8 2013q4/bin/../lib/gcc/arm-none-eabi/4.8.3/../../../../arm-none-eabi/lib/armv7e-m\libstdc++.a(tinfo.o)
 .ARM.extab.text._ZNKSs4dataEv
                0x080273a0        0x0 c:/program files (x86)/gnu tools arm embedded/4.8 2013q4/bin/../lib/gcc/arm-none-eabi/4.8.3/../../../../arm-none-eabi/lib/armv7e-m\libstdc++.a(string-inst.o)
 .ARM.extab.text._ZNKSs6lengthEv
                0x080273a0        0x0 c:/program files (x86)/gnu tools arm embedded/4.8 2013q4/bin/../lib/gcc/arm-none-eabi/4.8.3/../../../../arm-none-eabi/lib/armv7e-m\libstdc++.a(string-inst.o)
 .ARM.extab.text._ZNKSs7_M_dataEv
                0x080273a0        0x0 c:/program files (x86)/gnu tools arm embedded/4.8 2013q4/bin/../lib/gcc/arm-none-eabi/4.8.3/../../../../arm-none-eabi/lib/armv7e-m\libstdc++.a(string-inst.o)
 .ARM.extab.text._ZNSs7_M_dataEPc
                0x080273a0        0x0 c:/program files (x86)/gnu tools arm embedded/4.8 2013q4/bin/../lib/gcc/arm-none-eabi/4.8.3/../../../../arm-none-eabi/lib/armv7e-m\libstdc++.a(string-inst.o)
 .ARM.extab.text._ZNKSs6_M_repEv
                0x080273a0        0x0 c:/program files (x86)/gnu tools arm embedded/4.8 2013q4/bin/../lib/gcc/arm-none-eabi/4.8.3/../../../../arm-none-eabi/lib/armv7e-m\libstdc++.a(string-inst.o)
 .ARM.extab.text._ZNKSs9_M_ibeginEv
                0x080273a0        0x0 c:/program files (x86)/gnu tools arm embedded/4.8 2013q4/bin/../lib/gcc/arm-none-eabi/4.8.3/../../../../arm-none-eabi/lib/armv7e-m\libstdc++.a(string-inst.o)
 .ARM.extab.text._ZNKSs7_M_iendEv
                0x080273a0        0x0 c:/program files (x86)/gnu tools arm embedded/4.8 2013q4/bin/../lib/gcc/arm-none-eabi/4.8.3/../../../../arm-none-eabi/lib/armv7e-m\libstdc++.a(string-inst.o)
 .ARM.extab.text._ZNKSs8_M_checkEjPKc
                0x080273a0        0xc c:/program files (x86)/gnu tools arm embedded/4.8 2013q4/bin/../lib/gcc/arm-none-eabi/4.8.3/../../../../arm-none-eabi/lib/armv7e-m\libstdc++.a(string-inst.o)
 .ARM.extab.text._ZNKSs15_M_check_lengthEjjPKc
                0x080273ac        0x0 c:/program files (x86)/gnu tools arm embedded/4.8 2013q4/bin/../lib/gcc/arm-none-eabi/4.8.3/../../../../arm-none-eabi/lib/armv7e-m\libstdc++.a(string-inst.o)
 .ARM.extab.text._ZNKSs8_M_limitEjj
                0x080273ac        0x0 c:/program files (x86)/gnu tools arm embedded/4.8 2013q4/bin/../lib/gcc/arm-none-eabi/4.8.3/../../../../arm-none-eabi/lib/armv7e-m\libstdc++.a(string-inst.o)
 .ARM.extab.text._ZNKSs11_M_disjunctEPKc
                0x080273ac        0x0 c:/program files (x86)/gnu tools arm embedded/4.8 2013q4/bin/../lib/gcc/arm-none-eabi/4.8.3/../../../../arm-none-eabi/lib/armv7e-m\libstdc++.a(string-inst.o)
 .ARM.extab.text._ZNSs7_M_copyEPcPKcj
                0x080273ac        0x0 c:/program files (x86)/gnu tools arm embedded/4.8 2013q4/bin/../lib/gcc/arm-none-eabi/4.8.3/../../../../arm-none-eabi/lib/armv7e-m\libstdc++.a(string-inst.o)
 .ARM.extab.text._ZNSs7_M_moveEPcPKcj
                0x080273ac        0x0 c:/program files (x86)/gnu tools arm embedded/4.8 2013q4/bin/../lib/gcc/arm-none-eabi/4.8.3/../../../../arm-none-eabi/lib/armv7e-m\libstdc++.a(string-inst.o)
 .ARM.extab.text._ZNSs9_M_assignEPcjc
                0x080273ac        0x0 c:/program files (x86)/gnu tools arm embedded/4.8 2013q4/bin/../lib/gcc/arm-none-eabi/4.8.3/../../../../arm-none-eabi/lib/armv7e-m\libstdc++.a(string-inst.o)
 .ARM.extab.text._ZNSs13_S_copy_charsEPcN9__gnu_cxx17__normal_iteratorIS_SsEES2_
                0x080273ac        0x0 c:/program files (x86)/gnu tools arm embedded/4.8 2013q4/bin/../lib/gcc/arm-none-eabi/4.8.3/../../../../arm-none-eabi/lib/armv7e-m\libstdc++.a(string-inst.o)
 .ARM.extab.text._ZNSs13_S_copy_charsEPcN9__gnu_cxx17__normal_iteratorIPKcSsEES4_
                0x080273ac        0x0 c:/program files (x86)/gnu tools arm embedded/4.8 2013q4/bin/../lib/gcc/arm-none-eabi/4.8.3/../../../../arm-none-eabi/lib/armv7e-m\libstdc++.a(string-inst.o)
 .ARM.extab.text._ZNSs13_S_copy_charsEPcS_S_
                0x080273ac        0x0 c:/program files (x86)/gnu tools arm embedded/4.8 2013q4/bin/../lib/gcc/arm-none-eabi/4.8.3/../../../../arm-none-eabi/lib/armv7e-m\libstdc++.a(string-inst.o)
 .ARM.extab.text._ZNSs13_S_copy_charsEPcPKcS1_
                0x080273ac        0x0 c:/program files (x86)/gnu tools arm embedded/4.8 2013q4/bin/../lib/gcc/arm-none-eabi/4.8.3/../../../../arm-none-eabi/lib/armv7e-m\libstdc++.a(string-inst.o)
 .ARM.extab.text._ZNSs10_S_compareEjj
                0x080273ac        0x0 c:/program files (x86)/gnu tools arm embedded/4.8 2013q4/bin/../lib/gcc/arm-none-eabi/4.8.3/../../../../arm-none-eabi/lib/armv7e-m\libstdc++.a(string-inst.o)
 .ARM.extab.text._ZNSs12_S_empty_repEv
                0x080273ac        0x0 c:/program files (x86)/gnu tools arm embedded/4.8 2013q4/bin/../lib/gcc/arm-none-eabi/4.8.3/../../../../arm-none-eabi/lib/armv7e-m\libstdc++.a(string-inst.o)
 .ARM.extab.text._ZNSsC2Ev
                0x080273ac        0x0 c:/program files (x86)/gnu tools arm embedded/4.8 2013q4/bin/../lib/gcc/arm-none-eabi/4.8.3/../../../../arm-none-eabi/lib/armv7e-m\libstdc++.a(string-inst.o)
 .ARM.extab.text._ZNSsC2EOSs
                0x080273ac        0x0 c:/program files (x86)/gnu tools arm embedded/4.8 2013q4/bin/../lib/gcc/arm-none-eabi/4.8.3/../../../../arm-none-eabi/lib/armv7e-m\libstdc++.a(string-inst.o)
 .ARM.extab.text._ZNKSs5beginEv
                0x080273ac        0x0 c:/program files (x86)/gnu tools arm embedded/4.8 2013q4/bin/../lib/gcc/arm-none-eabi/4.8.3/../../../../arm-none-eabi/lib/armv7e-m\libstdc++.a(string-inst.o)
 .ARM.extab.text._ZNKSs3endEv
                0x080273ac        0x0 c:/program files (x86)/gnu tools arm embedded/4.8 2013q4/bin/../lib/gcc/arm-none-eabi/4.8.3/../../../../arm-none-eabi/lib/armv7e-m\libstdc++.a(string-inst.o)
 .ARM.extab.text._ZNKSs6rbeginEv
                0x080273ac        0x0 c:/program files (x86)/gnu tools arm embedded/4.8 2013q4/bin/../lib/gcc/arm-none-eabi/4.8.3/../../../../arm-none-eabi/lib/armv7e-m\libstdc++.a(string-inst.o)
 .ARM.extab.text._ZNKSs4rendEv
                0x080273ac        0x0 c:/program files (x86)/gnu tools arm embedded/4.8 2013q4/bin/../lib/gcc/arm-none-eabi/4.8.3/../../../../arm-none-eabi/lib/armv7e-m\libstdc++.a(string-inst.o)
 .ARM.extab.text._ZNKSs6cbeginEv
                0x080273ac        0x0 c:/program files (x86)/gnu tools arm embedded/4.8 2013q4/bin/../lib/gcc/arm-none-eabi/4.8.3/../../../../arm-none-eabi/lib/armv7e-m\libstdc++.a(string-inst.o)
 .ARM.extab.text._ZNKSs4cendEv
                0x080273ac        0x0 c:/program files (x86)/gnu tools arm embedded/4.8 2013q4/bin/../lib/gcc/arm-none-eabi/4.8.3/../../../../arm-none-eabi/lib/armv7e-m\libstdc++.a(string-inst.o)
 .ARM.extab.text._ZNKSs7crbeginEv
                0x080273ac        0x0 c:/program files (x86)/gnu tools arm embedded/4.8 2013q4/bin/../lib/gcc/arm-none-eabi/4.8.3/../../../../arm-none-eabi/lib/armv7e-m\libstdc++.a(string-inst.o)
 .ARM.extab.text._ZNKSs5crendEv
                0x080273ac        0x0 c:/program files (x86)/gnu tools arm embedded/4.8 2013q4/bin/../lib/gcc/arm-none-eabi/4.8.3/../../../../arm-none-eabi/lib/armv7e-m\libstdc++.a(string-inst.o)
 .ARM.extab.text._ZNKSs4sizeEv
                0x080273ac        0x0 c:/program files (x86)/gnu tools arm embedded/4.8 2013q4/bin/../lib/gcc/arm-none-eabi/4.8.3/../../../../arm-none-eabi/lib/armv7e-m\libstdc++.a(string-inst.o)
 .ARM.extab.text._ZNKSs8max_sizeEv
                0x080273ac        0x0 c:/program files (x86)/gnu tools arm embedded/4.8 2013q4/bin/../lib/gcc/arm-none-eabi/4.8.3/../../../../arm-none-eabi/lib/armv7e-m\libstdc++.a(string-inst.o)
 .ARM.extab.text._ZNKSs8capacityEv
                0x080273ac        0x0 c:/program files (x86)/gnu tools arm embedded/4.8 2013q4/bin/../lib/gcc/arm-none-eabi/4.8.3/../../../../arm-none-eabi/lib/armv7e-m\libstdc++.a(string-inst.o)
 .ARM.extab.text._ZNKSs5emptyEv
                0x080273ac        0x0 c:/program files (x86)/gnu tools arm embedded/4.8 2013q4/bin/../lib/gcc/arm-none-eabi/4.8.3/../../../../arm-none-eabi/lib/armv7e-m\libstdc++.a(string-inst.o)
 .ARM.extab.text._ZNKSsixEj
                0x080273ac        0x0 c:/program files (x86)/gnu tools arm embedded/4.8 2013q4/bin/../lib/gcc/arm-none-eabi/4.8.3/../../../../arm-none-eabi/lib/armv7e-m\libstdc++.a(string-inst.o)
 .ARM.extab.text._ZNKSs2atEj
                0x080273ac        0xc c:/program files (x86)/gnu tools arm embedded/4.8 2013q4/bin/../lib/gcc/arm-none-eabi/4.8.3/../../../../arm-none-eabi/lib/armv7e-m\libstdc++.a(string-inst.o)
 .ARM.extab.text._ZNKSs5frontEv
                0x080273b8        0x0 c:/program files (x86)/gnu tools arm embedded/4.8 2013q4/bin/../lib/gcc/arm-none-eabi/4.8.3/../../../../arm-none-eabi/lib/armv7e-m\libstdc++.a(string-inst.o)
 .ARM.extab.text._ZNKSs4backEv
                0x080273b8        0x0 c:/program files (x86)/gnu tools arm embedded/4.8 2013q4/bin/../lib/gcc/arm-none-eabi/4.8.3/../../../../arm-none-eabi/lib/armv7e-m\libstdc++.a(string-inst.o)
 .ARM.extab.text._ZNKSs4copyEPcjj
                0x080273b8        0x0 c:/program files (x86)/gnu tools arm embedded/4.8 2013q4/bin/../lib/gcc/arm-none-eabi/4.8.3/../../../../arm-none-eabi/lib/armv7e-m\libstdc++.a(string-inst.o)
 .ARM.extab.text._ZNSs4swapERSs
                0x080273b8        0x0 c:/program files (x86)/gnu tools arm embedded/4.8 2013q4/bin/../lib/gcc/arm-none-eabi/4.8.3/../../../../arm-none-eabi/lib/armv7e-m\libstdc++.a(string-inst.o)
 .ARM.extab.text._ZNSsaSEOSs
                0x080273b8        0x0 c:/program files (x86)/gnu tools arm embedded/4.8 2013q4/bin/../lib/gcc/arm-none-eabi/4.8.3/../../../../arm-none-eabi/lib/armv7e-m\libstdc++.a(string-inst.o)
 .ARM.extab.text._ZNSs6assignEOSs
                0x080273b8        0x0 c:/program files (x86)/gnu tools arm embedded/4.8 2013q4/bin/../lib/gcc/arm-none-eabi/4.8.3/../../../../arm-none-eabi/lib/armv7e-m\libstdc++.a(string-inst.o)
 .ARM.extab.text._ZNKSs5c_strEv
                0x080273b8        0x0 c:/program files (x86)/gnu tools arm embedded/4.8 2013q4/bin/../lib/gcc/arm-none-eabi/4.8.3/../../../../arm-none-eabi/lib/armv7e-m\libstdc++.a(string-inst.o)
 .ARM.extab.text._ZNKSs13get_allocatorEv
                0x080273b8        0x0 c:/program files (x86)/gnu tools arm embedded/4.8 2013q4/bin/../lib/gcc/arm-none-eabi/4.8.3/../../../../arm-none-eabi/lib/armv7e-m\libstdc++.a(string-inst.o)
 .ARM.extab.text._ZNKSs4findEPKcjj
                0x080273b8        0x0 c:/program files (x86)/gnu tools arm embedded/4.8 2013q4/bin/../lib/gcc/arm-none-eabi/4.8.3/../../../../arm-none-eabi/lib/armv7e-m\libstdc++.a(string-inst.o)
 .ARM.extab.text._ZNKSs4findERKSsj
                0x080273b8       0x10 c:/program files (x86)/gnu tools arm embedded/4.8 2013q4/bin/../lib/gcc/arm-none-eabi/4.8.3/../../../../arm-none-eabi/lib/armv7e-m\libstdc++.a(string-inst.o)
 .ARM.extab.text._ZNKSs4findEPKcj
                0x080273c8        0x0 c:/program files (x86)/gnu tools arm embedded/4.8 2013q4/bin/../lib/gcc/arm-none-eabi/4.8.3/../../../../arm-none-eabi/lib/armv7e-m\libstdc++.a(string-inst.o)
 .ARM.extab.text._ZNKSs4findEcj
                0x080273c8        0x0 c:/program files (x86)/gnu tools arm embedded/4.8 2013q4/bin/../lib/gcc/arm-none-eabi/4.8.3/../../../../arm-none-eabi/lib/armv7e-m\libstdc++.a(string-inst.o)
 .ARM.extab.text._ZNKSs5rfindEPKcjj
                0x080273c8        0x0 c:/program files (x86)/gnu tools arm embedded/4.8 2013q4/bin/../lib/gcc/arm-none-eabi/4.8.3/../../../../arm-none-eabi/lib/armv7e-m\libstdc++.a(string-inst.o)
 .ARM.extab.text._ZNKSs5rfindERKSsj
                0x080273c8       0x10 c:/program files (x86)/gnu tools arm embedded/4.8 2013q4/bin/../lib/gcc/arm-none-eabi/4.8.3/../../../../arm-none-eabi/lib/armv7e-m\libstdc++.a(string-inst.o)
 .ARM.extab.text._ZNKSs5rfindEPKcj
                0x080273d8        0x0 c:/program files (x86)/gnu tools arm embedded/4.8 2013q4/bin/../lib/gcc/arm-none-eabi/4.8.3/../../../../arm-none-eabi/lib/armv7e-m\libstdc++.a(string-inst.o)
 .ARM.extab.text._ZNKSs5rfindEcj
                0x080273d8        0x0 c:/program files (x86)/gnu tools arm embedded/4.8 2013q4/bin/../lib/gcc/arm-none-eabi/4.8.3/../../../../arm-none-eabi/lib/armv7e-m\libstdc++.a(string-inst.o)
 .ARM.extab.text._ZNKSs13find_first_ofEPKcjj
                0x080273d8        0x0 c:/program files (x86)/gnu tools arm embedded/4.8 2013q4/bin/../lib/gcc/arm-none-eabi/4.8.3/../../../../arm-none-eabi/lib/armv7e-m\libstdc++.a(string-inst.o)
 .ARM.extab.text._ZNKSs13find_first_ofERKSsj
                0x080273d8       0x10 c:/program files (x86)/gnu tools arm embedded/4.8 2013q4/bin/../lib/gcc/arm-none-eabi/4.8.3/../../../../arm-none-eabi/lib/armv7e-m\libstdc++.a(string-inst.o)
 .ARM.extab.text._ZNKSs13find_first_ofEPKcj
                0x080273e8        0x0 c:/program files (x86)/gnu tools arm embedded/4.8 2013q4/bin/../lib/gcc/arm-none-eabi/4.8.3/../../../../arm-none-eabi/lib/armv7e-m\libstdc++.a(string-inst.o)
 .ARM.extab.text._ZNKSs13find_first_ofEcj
                0x080273e8        0x0 c:/program files (x86)/gnu tools arm embedded/4.8 2013q4/bin/../lib/gcc/arm-none-eabi/4.8.3/../../../../arm-none-eabi/lib/armv7e-m\libstdc++.a(string-inst.o)
 .ARM.extab.text._ZNKSs12find_last_ofEPKcjj
                0x080273e8        0x0 c:/program files (x86)/gnu tools arm embedded/4.8 2013q4/bin/../lib/gcc/arm-none-eabi/4.8.3/../../../../arm-none-eabi/lib/armv7e-m\libstdc++.a(string-inst.o)
 .ARM.extab.text._ZNKSs12find_last_ofERKSsj
                0x080273e8       0x10 c:/program files (x86)/gnu tools arm embedded/4.8 2013q4/bin/../lib/gcc/arm-none-eabi/4.8.3/../../../../arm-none-eabi/lib/armv7e-m\libstdc++.a(string-inst.o)
 .ARM.extab.text._ZNKSs12find_last_ofEPKcj
                0x080273f8        0x0 c:/program files (x86)/gnu tools arm embedded/4.8 2013q4/bin/../lib/gcc/arm-none-eabi/4.8.3/../../../../arm-none-eabi/lib/armv7e-m\libstdc++.a(string-inst.o)
 .ARM.extab.text._ZNKSs12find_last_ofEcj
                0x080273f8        0x0 c:/program files (x86)/gnu tools arm embedded/4.8 2013q4/bin/../lib/gcc/arm-none-eabi/4.8.3/../../../../arm-none-eabi/lib/armv7e-m\libstdc++.a(string-inst.o)
 .ARM.extab.text._ZNKSs17find_first_not_ofEPKcjj
                0x080273f8        0x0 c:/program files (x86)/gnu tools arm embedded/4.8 2013q4/bin/../lib/gcc/arm-none-eabi/4.8.3/../../../../arm-none-eabi/lib/armv7e-m\libstdc++.a(string-inst.o)
 .ARM.extab.text._ZNKSs17find_first_not_ofERKSsj
                0x080273f8       0x10 c:/program files (x86)/gnu tools arm embedded/4.8 2013q4/bin/../lib/gcc/arm-none-eabi/4.8.3/../../../../arm-none-eabi/lib/armv7e-m\libstdc++.a(string-inst.o)
 .ARM.extab.text._ZNKSs17find_first_not_ofEPKcj
                0x08027408        0x0 c:/program files (x86)/gnu tools arm embedded/4.8 2013q4/bin/../lib/gcc/arm-none-eabi/4.8.3/../../../../arm-none-eabi/lib/armv7e-m\libstdc++.a(string-inst.o)
 .ARM.extab.text._ZNKSs17find_first_not_ofEcj
                0x08027408        0x0 c:/program files (x86)/gnu tools arm embedded/4.8 2013q4/bin/../lib/gcc/arm-none-eabi/4.8.3/../../../../arm-none-eabi/lib/armv7e-m\libstdc++.a(string-inst.o)
 .ARM.extab.text._ZNKSs16find_last_not_ofEPKcjj
                0x08027408        0x0 c:/program files (x86)/gnu tools arm embedded/4.8 2013q4/bin/../lib/gcc/arm-none-eabi/4.8.3/../../../../arm-none-eabi/lib/armv7e-m\libstdc++.a(string-inst.o)
 .ARM.extab.text._ZNKSs16find_last_not_ofERKSsj
                0x08027408       0x10 c:/program files (x86)/gnu tools arm embedded/4.8 2013q4/bin/../lib/gcc/arm-none-eabi/4.8.3/../../../../arm-none-eabi/lib/armv7e-m\libstdc++.a(string-inst.o)
 .ARM.extab.text._ZNKSs16find_last_not_ofEPKcj
                0x08027418        0x0 c:/program files (x86)/gnu tools arm embedded/4.8 2013q4/bin/../lib/gcc/arm-none-eabi/4.8.3/../../../../arm-none-eabi/lib/armv7e-m\libstdc++.a(string-inst.o)
 .ARM.extab.text._ZNKSs16find_last_not_ofEcj
                0x08027418        0x0 c:/program files (x86)/gnu tools arm embedded/4.8 2013q4/bin/../lib/gcc/arm-none-eabi/4.8.3/../../../../arm-none-eabi/lib/armv7e-m\libstdc++.a(string-inst.o)
 .ARM.extab.text._ZNKSs7compareERKSs
                0x08027418        0x0 c:/program files (x86)/gnu tools arm embedded/4.8 2013q4/bin/../lib/gcc/arm-none-eabi/4.8.3/../../../../arm-none-eabi/lib/armv7e-m\libstdc++.a(string-inst.o)
 .ARM.extab.text._ZNKSs7compareEjjRKSs
                0x08027418        0x0 c:/program files (x86)/gnu tools arm embedded/4.8 2013q4/bin/../lib/gcc/arm-none-eabi/4.8.3/../../../../arm-none-eabi/lib/armv7e-m\libstdc++.a(string-inst.o)
 .ARM.extab.text._ZNKSs7compareEjjRKSsjj
                0x08027418        0x0 c:/program files (x86)/gnu tools arm embedded/4.8 2013q4/bin/../lib/gcc/arm-none-eabi/4.8.3/../../../../arm-none-eabi/lib/armv7e-m\libstdc++.a(string-inst.o)
 .ARM.extab.text._ZNKSs7compareEPKc
                0x08027418        0x0 c:/program files (x86)/gnu tools arm embedded/4.8 2013q4/bin/../lib/gcc/arm-none-eabi/4.8.3/../../../../arm-none-eabi/lib/armv7e-m\libstdc++.a(string-inst.o)
 .ARM.extab.text._ZNKSs7compareEjjPKc
                0x08027418        0x0 c:/program files (x86)/gnu tools arm embedded/4.8 2013q4/bin/../lib/gcc/arm-none-eabi/4.8.3/../../../../arm-none-eabi/lib/armv7e-m\libstdc++.a(string-inst.o)
 .ARM.extab.text._ZNKSs7compareEjjPKcj
                0x08027418        0x0 c:/program files (x86)/gnu tools arm embedded/4.8 2013q4/bin/../lib/gcc/arm-none-eabi/4.8.3/../../../../arm-none-eabi/lib/armv7e-m\libstdc++.a(string-inst.o)
 .ARM.extab.text._ZNSs12_Alloc_hiderC2EPcRKSaIcE
                0x08027418        0x0 c:/program files (x86)/gnu tools arm embedded/4.8 2013q4/bin/../lib/gcc/arm-none-eabi/4.8.3/../../../../arm-none-eabi/lib/armv7e-m\libstdc++.a(string-inst.o)
 .ARM.extab.text._ZNSs4_Rep12_S_empty_repEv
                0x08027418        0x0 c:/program files (x86)/gnu tools arm embedded/4.8 2013q4/bin/../lib/gcc/arm-none-eabi/4.8.3/../../../../arm-none-eabi/lib/armv7e-m\libstdc++.a(string-inst.o)
 .ARM.extab.text._ZNKSs4_Rep12_M_is_leakedEv
                0x08027418        0x0 c:/program files (x86)/gnu tools arm embedded/4.8 2013q4/bin/../lib/gcc/arm-none-eabi/4.8.3/../../../../arm-none-eabi/lib/armv7e-m\libstdc++.a(string-inst.o)
 .ARM.extab.text._ZNKSs4_Rep12_M_is_sharedEv
                0x08027418        0x0 c:/program files (x86)/gnu tools arm embedded/4.8 2013q4/bin/../lib/gcc/arm-none-eabi/4.8.3/../../../../arm-none-eabi/lib/armv7e-m\libstdc++.a(string-inst.o)
 .ARM.extab.text._ZNSs4_Rep13_M_set_leakedEv
                0x08027418        0x0 c:/program files (x86)/gnu tools arm embedded/4.8 2013q4/bin/../lib/gcc/arm-none-eabi/4.8.3/../../../../arm-none-eabi/lib/armv7e-m\libstdc++.a(string-inst.o)
 .ARM.extab.text._ZNSs4_Rep15_M_set_sharableEv
                0x08027418        0x0 c:/program files (x86)/gnu tools arm embedded/4.8 2013q4/bin/../lib/gcc/arm-none-eabi/4.8.3/../../../../arm-none-eabi/lib/armv7e-m\libstdc++.a(string-inst.o)
 .ARM.extab.text._ZNSs4_Rep26_M_set_length_and_sharableEj
                0x08027418        0x0 c:/program files (x86)/gnu tools arm embedded/4.8 2013q4/bin/../lib/gcc/arm-none-eabi/4.8.3/../../../../arm-none-eabi/lib/armv7e-m\libstdc++.a(string-inst.o)
 .ARM.extab.text._ZNSs4_Rep10_M_refdataEv
                0x08027418        0x0 c:/program files (x86)/gnu tools arm embedded/4.8 2013q4/bin/../lib/gcc/arm-none-eabi/4.8.3/../../../../arm-none-eabi/lib/armv7e-m\libstdc++.a(string-inst.o)
 .ARM.extab.text._ZNSs4_Rep9_S_createEjjRKSaIcE
                0x08027418        0x0 c:/program files (x86)/gnu tools arm embedded/4.8 2013q4/bin/../lib/gcc/arm-none-eabi/4.8.3/../../../../arm-none-eabi/lib/armv7e-m\libstdc++.a(string-inst.o)
 .ARM.extab.text._ZNSs12_S_constructEjcRKSaIcE
                0x08027418        0x0 c:/program files (x86)/gnu tools arm embedded/4.8 2013q4/bin/../lib/gcc/arm-none-eabi/4.8.3/../../../../arm-none-eabi/lib/armv7e-m\libstdc++.a(string-inst.o)
 .ARM.extab.text._ZNSsC2ERKSaIcE
                0x08027418        0x0 c:/program files (x86)/gnu tools arm embedded/4.8 2013q4/bin/../lib/gcc/arm-none-eabi/4.8.3/../../../../arm-none-eabi/lib/armv7e-m\libstdc++.a(string-inst.o)
 .ARM.extab.text._ZNSsC2EjcRKSaIcE
                0x08027418        0x0 c:/program files (x86)/gnu tools arm embedded/4.8 2013q4/bin/../lib/gcc/arm-none-eabi/4.8.3/../../../../arm-none-eabi/lib/armv7e-m\libstdc++.a(string-inst.o)
 .ARM.extab.text._ZNSs18_S_construct_aux_2EjcRKSaIcE
                0x08027418        0xc c:/program files (x86)/gnu tools arm embedded/4.8 2013q4/bin/../lib/gcc/arm-none-eabi/4.8.3/../../../../arm-none-eabi/lib/armv7e-m\libstdc++.a(string-inst.o)
 .ARM.extab.text._ZNSs4_Rep10_M_destroyERKSaIcE
                0x08027424        0x0 c:/program files (x86)/gnu tools arm embedded/4.8 2013q4/bin/../lib/gcc/arm-none-eabi/4.8.3/../../../../arm-none-eabi/lib/armv7e-m\libstdc++.a(string-inst.o)
 .ARM.extab.text.unlikely._ZNSs4_Rep10_M_disposeERKSaIcE.part.11
                0x08027424        0x0 c:/program files (x86)/gnu tools arm embedded/4.8 2013q4/bin/../lib/gcc/arm-none-eabi/4.8.3/../../../../arm-none-eabi/lib/armv7e-m\libstdc++.a(string-inst.o)
 .ARM.extab.text._ZNSs4_Rep10_M_disposeERKSaIcE
                0x08027424        0x0 c:/program files (x86)/gnu tools arm embedded/4.8 2013q4/bin/../lib/gcc/arm-none-eabi/4.8.3/../../../../arm-none-eabi/lib/armv7e-m\libstdc++.a(string-inst.o)
 .ARM.extab.text._ZNSsD2Ev
                0x08027424        0x0 c:/program files (x86)/gnu tools arm embedded/4.8 2013q4/bin/../lib/gcc/arm-none-eabi/4.8.3/../../../../arm-none-eabi/lib/armv7e-m\libstdc++.a(string-inst.o)
 .ARM.extab.text._ZNSs9_M_mutateEjjj
                0x08027424        0x0 c:/program files (x86)/gnu tools arm embedded/4.8 2013q4/bin/../lib/gcc/arm-none-eabi/4.8.3/../../../../arm-none-eabi/lib/armv7e-m\libstdc++.a(string-inst.o)
 .ARM.extab.text._ZNSs12_M_leak_hardEv
                0x08027424        0x0 c:/program files (x86)/gnu tools arm embedded/4.8 2013q4/bin/../lib/gcc/arm-none-eabi/4.8.3/../../../../arm-none-eabi/lib/armv7e-m\libstdc++.a(string-inst.o)
 .ARM.extab.text._ZNSs7_M_leakEv
                0x08027424        0xc c:/program files (x86)/gnu tools arm embedded/4.8 2013q4/bin/../lib/gcc/arm-none-eabi/4.8.3/../../../../arm-none-eabi/lib/armv7e-m\libstdc++.a(string-inst.o)
 .ARM.extab.text._ZNSs5beginEv
                0x08027430        0xc c:/program files (x86)/gnu tools arm embedded/4.8 2013q4/bin/../lib/gcc/arm-none-eabi/4.8.3/../../../../arm-none-eabi/lib/armv7e-m\libstdc++.a(string-inst.o)
 .ARM.extab.text._ZNSs4rendEv
                0x0802743c        0xc c:/program files (x86)/gnu tools arm embedded/4.8 2013q4/bin/../lib/gcc/arm-none-eabi/4.8.3/../../../../arm-none-eabi/lib/armv7e-m\libstdc++.a(string-inst.o)
 .ARM.extab.text._ZNSs3endEv
                0x08027448        0xc c:/program files (x86)/gnu tools arm embedded/4.8 2013q4/bin/../lib/gcc/arm-none-eabi/4.8.3/../../../../arm-none-eabi/lib/armv7e-m\libstdc++.a(string-inst.o)
 .ARM.extab.text._ZNSsixEj
                0x08027454        0x0 c:/program files (x86)/gnu tools arm embedded/4.8 2013q4/bin/../lib/gcc/arm-none-eabi/4.8.3/../../../../arm-none-eabi/lib/armv7e-m\libstdc++.a(string-inst.o)
 .ARM.extab.text._ZNSs5frontEv
                0x08027454        0x0 c:/program files (x86)/gnu tools arm embedded/4.8 2013q4/bin/../lib/gcc/arm-none-eabi/4.8.3/../../../../arm-none-eabi/lib/armv7e-m\libstdc++.a(string-inst.o)
 .ARM.extab.text._ZNSs4backEv
                0x08027454        0x0 c:/program files (x86)/gnu tools arm embedded/4.8 2013q4/bin/../lib/gcc/arm-none-eabi/4.8.3/../../../../arm-none-eabi/lib/armv7e-m\libstdc++.a(string-inst.o)
 .ARM.extab.text._ZNSs2atEj
                0x08027454        0x0 c:/program files (x86)/gnu tools arm embedded/4.8 2013q4/bin/../lib/gcc/arm-none-eabi/4.8.3/../../../../arm-none-eabi/lib/armv7e-m\libstdc++.a(string-inst.o)
 .ARM.extab.text._ZNSs6rbeginEv
                0x08027454        0xc c:/program files (x86)/gnu tools arm embedded/4.8 2013q4/bin/../lib/gcc/arm-none-eabi/4.8.3/../../../../arm-none-eabi/lib/armv7e-m\libstdc++.a(string-inst.o)
 .ARM.extab.text._ZNSs5clearEv
                0x08027460       0x10 c:/program files (x86)/gnu tools arm embedded/4.8 2013q4/bin/../lib/gcc/arm-none-eabi/4.8.3/../../../../arm-none-eabi/lib/armv7e-m\libstdc++.a(string-inst.o)
 .ARM.extab.text._ZNSs5eraseEjj
                0x08027470        0x0 c:/program files (x86)/gnu tools arm embedded/4.8 2013q4/bin/../lib/gcc/arm-none-eabi/4.8.3/../../../../arm-none-eabi/lib/armv7e-m\libstdc++.a(string-inst.o)
 .ARM.extab.text._ZNSs5eraseEN9__gnu_cxx17__normal_iteratorIPcSsEE
                0x08027470        0x0 c:/program files (x86)/gnu tools arm embedded/4.8 2013q4/bin/../lib/gcc/arm-none-eabi/4.8.3/../../../../arm-none-eabi/lib/armv7e-m\libstdc++.a(string-inst.o)
 .ARM.extab.text._ZNSs5eraseEN9__gnu_cxx17__normal_iteratorIPcSsEES2_
                0x08027470        0x0 c:/program files (x86)/gnu tools arm embedded/4.8 2013q4/bin/../lib/gcc/arm-none-eabi/4.8.3/../../../../arm-none-eabi/lib/armv7e-m\libstdc++.a(string-inst.o)
 .ARM.extab.text._ZNSs14_M_replace_auxEjjjc
                0x08027470        0x0 c:/program files (x86)/gnu tools arm embedded/4.8 2013q4/bin/../lib/gcc/arm-none-eabi/4.8.3/../../../../arm-none-eabi/lib/armv7e-m\libstdc++.a(string-inst.o)
 .ARM.extab.text._ZNSs6assignEjc
                0x08027470        0x0 c:/program files (x86)/gnu tools arm embedded/4.8 2013q4/bin/../lib/gcc/arm-none-eabi/4.8.3/../../../../arm-none-eabi/lib/armv7e-m\libstdc++.a(string-inst.o)
 .ARM.extab.text._ZNSsaSEc
                0x08027470        0x0 c:/program files (x86)/gnu tools arm embedded/4.8 2013q4/bin/../lib/gcc/arm-none-eabi/4.8.3/../../../../arm-none-eabi/lib/armv7e-m\libstdc++.a(string-inst.o)
 .ARM.extab.text._ZNSs6insertEjjc
                0x08027470        0x0 c:/program files (x86)/gnu tools arm embedded/4.8 2013q4/bin/../lib/gcc/arm-none-eabi/4.8.3/../../../../arm-none-eabi/lib/armv7e-m\libstdc++.a(string-inst.o)
 .ARM.extab.text._ZNSs6insertEN9__gnu_cxx17__normal_iteratorIPcSsEEc
                0x08027470        0x0 c:/program files (x86)/gnu tools arm embedded/4.8 2013q4/bin/../lib/gcc/arm-none-eabi/4.8.3/../../../../arm-none-eabi/lib/armv7e-m\libstdc++.a(string-inst.o)
 .ARM.extab.text._ZNSs7replaceEjjjc
                0x08027470        0x0 c:/program files (x86)/gnu tools arm embedded/4.8 2013q4/bin/../lib/gcc/arm-none-eabi/4.8.3/../../../../arm-none-eabi/lib/armv7e-m\libstdc++.a(string-inst.o)
 .ARM.extab.text._ZNSs7replaceEN9__gnu_cxx17__normal_iteratorIPcSsEES2_jc
                0x08027470        0x0 c:/program files (x86)/gnu tools arm embedded/4.8 2013q4/bin/../lib/gcc/arm-none-eabi/4.8.3/../../../../arm-none-eabi/lib/armv7e-m\libstdc++.a(string-inst.o)
 .ARM.extab.text._ZNSs6insertEN9__gnu_cxx17__normal_iteratorIPcSsEEjc
                0x08027470        0x0 c:/program files (x86)/gnu tools arm embedded/4.8 2013q4/bin/../lib/gcc/arm-none-eabi/4.8.3/../../../../arm-none-eabi/lib/armv7e-m\libstdc++.a(string-inst.o)
 .ARM.extab.text._ZNSs15_M_replace_safeEjjPKcj
                0x08027470        0x0 c:/program files (x86)/gnu tools arm embedded/4.8 2013q4/bin/../lib/gcc/arm-none-eabi/4.8.3/../../../../arm-none-eabi/lib/armv7e-m\libstdc++.a(string-inst.o)
 .ARM.extab.text._ZNSs6assignEPKcj
                0x08027470        0x0 c:/program files (x86)/gnu tools arm embedded/4.8 2013q4/bin/../lib/gcc/arm-none-eabi/4.8.3/../../../../arm-none-eabi/lib/armv7e-m\libstdc++.a(string-inst.o)
 .ARM.extab.text._ZNSsaSESt16initializer_listIcE
                0x08027470        0x0 c:/program files (x86)/gnu tools arm embedded/4.8 2013q4/bin/../lib/gcc/arm-none-eabi/4.8.3/../../../../arm-none-eabi/lib/armv7e-m\libstdc++.a(string-inst.o)
 .ARM.extab.text._ZNSs6assignERKSsjj
                0x08027470        0x0 c:/program files (x86)/gnu tools arm embedded/4.8 2013q4/bin/../lib/gcc/arm-none-eabi/4.8.3/../../../../arm-none-eabi/lib/armv7e-m\libstdc++.a(string-inst.o)
 .ARM.extab.text._ZNSs6assignEPKc
                0x08027470        0x0 c:/program files (x86)/gnu tools arm embedded/4.8 2013q4/bin/../lib/gcc/arm-none-eabi/4.8.3/../../../../arm-none-eabi/lib/armv7e-m\libstdc++.a(string-inst.o)
 .ARM.extab.text._ZNSs6assignESt16initializer_listIcE
                0x08027470        0x0 c:/program files (x86)/gnu tools arm embedded/4.8 2013q4/bin/../lib/gcc/arm-none-eabi/4.8.3/../../../../arm-none-eabi/lib/armv7e-m\libstdc++.a(string-inst.o)
 .ARM.extab.text._ZNSsaSEPKc
                0x08027470        0x0 c:/program files (x86)/gnu tools arm embedded/4.8 2013q4/bin/../lib/gcc/arm-none-eabi/4.8.3/../../../../arm-none-eabi/lib/armv7e-m\libstdc++.a(string-inst.o)
 .ARM.extab.text._ZNSs6insertEjPKcj
                0x08027470        0x0 c:/program files (x86)/gnu tools arm embedded/4.8 2013q4/bin/../lib/gcc/arm-none-eabi/4.8.3/../../../../arm-none-eabi/lib/armv7e-m\libstdc++.a(string-inst.o)
 .ARM.extab.text._ZNSs6insertEN9__gnu_cxx17__normal_iteratorIPcSsEESt16initializer_listIcE
                0x08027470        0x0 c:/program files (x86)/gnu tools arm embedded/4.8 2013q4/bin/../lib/gcc/arm-none-eabi/4.8.3/../../../../arm-none-eabi/lib/armv7e-m\libstdc++.a(string-inst.o)
 .ARM.extab.text._ZNSs6insertEjRKSsjj
                0x08027470        0x0 c:/program files (x86)/gnu tools arm embedded/4.8 2013q4/bin/../lib/gcc/arm-none-eabi/4.8.3/../../../../arm-none-eabi/lib/armv7e-m\libstdc++.a(string-inst.o)
 .ARM.extab.text._ZNSs6insertEjPKc
                0x08027470        0x0 c:/program files (x86)/gnu tools arm embedded/4.8 2013q4/bin/../lib/gcc/arm-none-eabi/4.8.3/../../../../arm-none-eabi/lib/armv7e-m\libstdc++.a(string-inst.o)
 .ARM.extab.text._ZNSs6insertEjRKSs
                0x08027470        0xc c:/program files (x86)/gnu tools arm embedded/4.8 2013q4/bin/../lib/gcc/arm-none-eabi/4.8.3/../../../../arm-none-eabi/lib/armv7e-m\libstdc++.a(string-inst.o)
 .ARM.extab.text._ZNSs8pop_backEv
                0x0802747c        0xc c:/program files (x86)/gnu tools arm embedded/4.8 2013q4/bin/../lib/gcc/arm-none-eabi/4.8.3/../../../../arm-none-eabi/lib/armv7e-m\libstdc++.a(string-inst.o)
 .ARM.extab.text._ZNSs4_Rep10_M_refcopyEv
                0x08027488        0x0 c:/program files (x86)/gnu tools arm embedded/4.8 2013q4/bin/../lib/gcc/arm-none-eabi/4.8.3/../../../../arm-none-eabi/lib/armv7e-m\libstdc++.a(string-inst.o)
 .ARM.extab.text._ZNSs4_Rep8_M_cloneERKSaIcEj
                0x08027488        0x0 c:/program files (x86)/gnu tools arm embedded/4.8 2013q4/bin/../lib/gcc/arm-none-eabi/4.8.3/../../../../arm-none-eabi/lib/armv7e-m\libstdc++.a(string-inst.o)
 .ARM.extab.text._ZNSs7reserveEj
                0x08027488        0x0 c:/program files (x86)/gnu tools arm embedded/4.8 2013q4/bin/../lib/gcc/arm-none-eabi/4.8.3/../../../../arm-none-eabi/lib/armv7e-m\libstdc++.a(string-inst.o)
 .ARM.extab.text._ZNSs13shrink_to_fitEv
                0x08027488       0x20 c:/program files (x86)/gnu tools arm embedded/4.8 2013q4/bin/../lib/gcc/arm-none-eabi/4.8.3/../../../../arm-none-eabi/lib/armv7e-m\libstdc++.a(string-inst.o)
 .ARM.extab.text._ZNSs6appendERKSs
                0x080274a8        0x0 c:/program files (x86)/gnu tools arm embedded/4.8 2013q4/bin/../lib/gcc/arm-none-eabi/4.8.3/../../../../arm-none-eabi/lib/armv7e-m\libstdc++.a(string-inst.o)
 .ARM.extab.text._ZNSspLERKSs
                0x080274a8        0xc c:/program files (x86)/gnu tools arm embedded/4.8 2013q4/bin/../lib/gcc/arm-none-eabi/4.8.3/../../../../arm-none-eabi/lib/armv7e-m\libstdc++.a(string-inst.o)
 .ARM.extab.text._ZNSs6appendERKSsjj
                0x080274b4        0x0 c:/program files (x86)/gnu tools arm embedded/4.8 2013q4/bin/../lib/gcc/arm-none-eabi/4.8.3/../../../../arm-none-eabi/lib/armv7e-m\libstdc++.a(string-inst.o)
 .ARM.extab.text._ZNSs6appendEPKcj
                0x080274b4        0x0 c:/program files (x86)/gnu tools arm embedded/4.8 2013q4/bin/../lib/gcc/arm-none-eabi/4.8.3/../../../../arm-none-eabi/lib/armv7e-m\libstdc++.a(string-inst.o)
 .ARM.extab.text._ZNSspLESt16initializer_listIcE
                0x080274b4        0x0 c:/program files (x86)/gnu tools arm embedded/4.8 2013q4/bin/../lib/gcc/arm-none-eabi/4.8.3/../../../../arm-none-eabi/lib/armv7e-m\libstdc++.a(string-inst.o)
 .ARM.extab.text._ZNSs6appendEPKc
                0x080274b4        0x0 c:/program files (x86)/gnu tools arm embedded/4.8 2013q4/bin/../lib/gcc/arm-none-eabi/4.8.3/../../../../arm-none-eabi/lib/armv7e-m\libstdc++.a(string-inst.o)
 .ARM.extab.text._ZNSs6appendESt16initializer_listIcE
                0x080274b4        0x0 c:/program files (x86)/gnu tools arm embedded/4.8 2013q4/bin/../lib/gcc/arm-none-eabi/4.8.3/../../../../arm-none-eabi/lib/armv7e-m\libstdc++.a(string-inst.o)
 .ARM.extab.text._ZNSspLEPKc
                0x080274b4        0x0 c:/program files (x86)/gnu tools arm embedded/4.8 2013q4/bin/../lib/gcc/arm-none-eabi/4.8.3/../../../../arm-none-eabi/lib/armv7e-m\libstdc++.a(string-inst.o)
 .ARM.extab.text._ZNSs6appendEjc
                0x080274b4        0x0 c:/program files (x86)/gnu tools arm embedded/4.8 2013q4/bin/../lib/gcc/arm-none-eabi/4.8.3/../../../../arm-none-eabi/lib/armv7e-m\libstdc++.a(string-inst.o)
 .ARM.extab.text._ZNSs6resizeEjc
                0x080274b4        0x0 c:/program files (x86)/gnu tools arm embedded/4.8 2013q4/bin/../lib/gcc/arm-none-eabi/4.8.3/../../../../arm-none-eabi/lib/armv7e-m\libstdc++.a(string-inst.o)
 .ARM.extab.text._ZNSs6resizeEj
                0x080274b4        0xc c:/program files (x86)/gnu tools arm embedded/4.8 2013q4/bin/../lib/gcc/arm-none-eabi/4.8.3/../../../../arm-none-eabi/lib/armv7e-m\libstdc++.a(string-inst.o)
 .ARM.extab.text._ZNSs9push_backEc
                0x080274c0        0x0 c:/program files (x86)/gnu tools arm embedded/4.8 2013q4/bin/../lib/gcc/arm-none-eabi/4.8.3/../../../../arm-none-eabi/lib/armv7e-m\libstdc++.a(string-inst.o)
 .ARM.extab.text._ZNSspLEc
                0x080274c0        0x0 c:/program files (x86)/gnu tools arm embedded/4.8 2013q4/bin/../lib/gcc/arm-none-eabi/4.8.3/../../../../arm-none-eabi/lib/armv7e-m\libstdc++.a(string-inst.o)
 .ARM.extab.text._ZNSs4_Rep7_M_grabERKSaIcES2_
                0x080274c0        0xc c:/program files (x86)/gnu tools arm embedded/4.8 2013q4/bin/../lib/gcc/arm-none-eabi/4.8.3/../../../../arm-none-eabi/lib/armv7e-m\libstdc++.a(string-inst.o)
 .ARM.extab.text._ZNSsC2ERKSs
                0x080274cc        0x0 c:/program files (x86)/gnu tools arm embedded/4.8 2013q4/bin/../lib/gcc/arm-none-eabi/4.8.3/../../../../arm-none-eabi/lib/armv7e-m\libstdc++.a(string-inst.o)
 .ARM.extab.text._ZNSs6assignERKSs
                0x080274cc        0x0 c:/program files (x86)/gnu tools arm embedded/4.8 2013q4/bin/../lib/gcc/arm-none-eabi/4.8.3/../../../../arm-none-eabi/lib/armv7e-m\libstdc++.a(string-inst.o)
 .ARM.extab.text._ZNSsaSERKSs
                0x080274cc        0xc c:/program files (x86)/gnu tools arm embedded/4.8 2013q4/bin/../lib/gcc/arm-none-eabi/4.8.3/../../../../arm-none-eabi/lib/armv7e-m\libstdc++.a(string-inst.o)
 .ARM.extab.text._ZStplIcSt11char_traitsIcESaIcEESbIT_T0_T1_EPKS3_RKS6_
                0x080274d8       0x14 c:/program files (x86)/gnu tools arm embedded/4.8 2013q4/bin/../lib/gcc/arm-none-eabi/4.8.3/../../../../arm-none-eabi/lib/armv7e-m\libstdc++.a(string-inst.o)
 .ARM.extab.text._ZStplIcSt11char_traitsIcESaIcEESbIT_T0_T1_ES3_RKS6_
                0x080274ec       0x14 c:/program files (x86)/gnu tools arm embedded/4.8 2013q4/bin/../lib/gcc/arm-none-eabi/4.8.3/../../../../arm-none-eabi/lib/armv7e-m\libstdc++.a(string-inst.o)
 .ARM.extab.text._ZStplIcSt11char_traitsIcESaIcEESbIT_T0_T1_ERKS6_S8_
                0x08027500       0x18 c:/program files (x86)/gnu tools arm embedded/4.8 2013q4/bin/../lib/gcc/arm-none-eabi/4.8.3/../../../../arm-none-eabi/lib/armv7e-m\libstdc++.a(string-inst.o)
 .ARM.extab.text._ZNSs12_S_constructIN9__gnu_cxx17__normal_iteratorIPcSsEEEES2_T_S4_RKSaIcESt20forward_iterator_tag
                0x08027518        0x0 c:/program files (x86)/gnu tools arm embedded/4.8 2013q4/bin/../lib/gcc/arm-none-eabi/4.8.3/../../../../arm-none-eabi/lib/armv7e-m\libstdc++.a(string-inst.o)
 .ARM.extab.text._ZNSsC2IN9__gnu_cxx17__normal_iteratorIPcSsEEEET_S4_RKSaIcE
                0x08027518        0x0 c:/program files (x86)/gnu tools arm embedded/4.8 2013q4/bin/../lib/gcc/arm-none-eabi/4.8.3/../../../../arm-none-eabi/lib/armv7e-m\libstdc++.a(string-inst.o)
 .ARM.extab.text._ZNSs12_S_constructIPcEES0_T_S1_RKSaIcESt20forward_iterator_tag
                0x08027518        0x0 c:/program files (x86)/gnu tools arm embedded/4.8 2013q4/bin/../lib/gcc/arm-none-eabi/4.8.3/../../../../arm-none-eabi/lib/armv7e-m\libstdc++.a(string-inst.o)
 .ARM.extab.text._ZNSsC2ERKSsjj
                0x08027518        0x0 c:/program files (x86)/gnu tools arm embedded/4.8 2013q4/bin/../lib/gcc/arm-none-eabi/4.8.3/../../../../arm-none-eabi/lib/armv7e-m\libstdc++.a(string-inst.o)
 .ARM.extab.text._ZNKSs6substrEjj
                0x08027518        0x0 c:/program files (x86)/gnu tools arm embedded/4.8 2013q4/bin/../lib/gcc/arm-none-eabi/4.8.3/../../../../arm-none-eabi/lib/armv7e-m\libstdc++.a(string-inst.o)
 .ARM.extab.text._ZNSsC2ERKSsjjRKSaIcE
                0x08027518        0x0 c:/program files (x86)/gnu tools arm embedded/4.8 2013q4/bin/../lib/gcc/arm-none-eabi/4.8.3/../../../../arm-none-eabi/lib/armv7e-m\libstdc++.a(string-inst.o)
 .ARM.extab.text._ZNSsC2IPcEET_S1_RKSaIcE
                0x08027518        0x0 c:/program files (x86)/gnu tools arm embedded/4.8 2013q4/bin/../lib/gcc/arm-none-eabi/4.8.3/../../../../arm-none-eabi/lib/armv7e-m\libstdc++.a(string-inst.o)
 .ARM.extab.text._ZNSs12_S_constructIPKcEEPcT_S3_RKSaIcESt20forward_iterator_tag
                0x08027518        0x0 c:/program files (x86)/gnu tools arm embedded/4.8 2013q4/bin/../lib/gcc/arm-none-eabi/4.8.3/../../../../arm-none-eabi/lib/armv7e-m\libstdc++.a(string-inst.o)
 .ARM.extab.text._ZNSsC2EPKcjRKSaIcE
                0x08027518        0x0 c:/program files (x86)/gnu tools arm embedded/4.8 2013q4/bin/../lib/gcc/arm-none-eabi/4.8.3/../../../../arm-none-eabi/lib/armv7e-m\libstdc++.a(string-inst.o)
 .ARM.extab.text._ZNSs7replaceEjjPKcj
                0x08027518       0x1c c:/program files (x86)/gnu tools arm embedded/4.8 2013q4/bin/../lib/gcc/arm-none-eabi/4.8.3/../../../../arm-none-eabi/lib/armv7e-m\libstdc++.a(string-inst.o)
 .ARM.extab.text._ZNSs7replaceEjjRKSs
                0x08027534        0x0 c:/program files (x86)/gnu tools arm embedded/4.8 2013q4/bin/../lib/gcc/arm-none-eabi/4.8.3/../../../../arm-none-eabi/lib/armv7e-m\libstdc++.a(string-inst.o)
 .ARM.extab.text._ZNSs7replaceEjjRKSsjj
                0x08027534        0x0 c:/program files (x86)/gnu tools arm embedded/4.8 2013q4/bin/../lib/gcc/arm-none-eabi/4.8.3/../../../../arm-none-eabi/lib/armv7e-m\libstdc++.a(string-inst.o)
 .ARM.extab.text._ZNSs7replaceEjjPKc
                0x08027534        0x0 c:/program files (x86)/gnu tools arm embedded/4.8 2013q4/bin/../lib/gcc/arm-none-eabi/4.8.3/../../../../arm-none-eabi/lib/armv7e-m\libstdc++.a(string-inst.o)
 .ARM.extab.text._ZNSs7replaceEN9__gnu_cxx17__normal_iteratorIPcSsEES2_PKcj
                0x08027534        0x0 c:/program files (x86)/gnu tools arm embedded/4.8 2013q4/bin/../lib/gcc/arm-none-eabi/4.8.3/../../../../arm-none-eabi/lib/armv7e-m\libstdc++.a(string-inst.o)
 .ARM.extab.text._ZNSs7replaceEN9__gnu_cxx17__normal_iteratorIPcSsEES2_RKSs
                0x08027534        0x0 c:/program files (x86)/gnu tools arm embedded/4.8 2013q4/bin/../lib/gcc/arm-none-eabi/4.8.3/../../../../arm-none-eabi/lib/armv7e-m\libstdc++.a(string-inst.o)
 .ARM.extab.text._ZNSs7replaceEN9__gnu_cxx17__normal_iteratorIPcSsEES2_PKc
                0x08027534        0x0 c:/program files (x86)/gnu tools arm embedded/4.8 2013q4/bin/../lib/gcc/arm-none-eabi/4.8.3/../../../../arm-none-eabi/lib/armv7e-m\libstdc++.a(string-inst.o)
 .ARM.extab.text._ZNSs7replaceEN9__gnu_cxx17__normal_iteratorIPcSsEES2_S1_S1_
                0x08027534        0x0 c:/program files (x86)/gnu tools arm embedded/4.8 2013q4/bin/../lib/gcc/arm-none-eabi/4.8.3/../../../../arm-none-eabi/lib/armv7e-m\libstdc++.a(string-inst.o)
 .ARM.extab.text._ZNSs7replaceEN9__gnu_cxx17__normal_iteratorIPcSsEES2_PKcS4_
                0x08027534        0x0 c:/program files (x86)/gnu tools arm embedded/4.8 2013q4/bin/../lib/gcc/arm-none-eabi/4.8.3/../../../../arm-none-eabi/lib/armv7e-m\libstdc++.a(string-inst.o)
 .ARM.extab.text._ZNSs7replaceEN9__gnu_cxx17__normal_iteratorIPcSsEES2_St16initializer_listIcE
                0x08027534        0x0 c:/program files (x86)/gnu tools arm embedded/4.8 2013q4/bin/../lib/gcc/arm-none-eabi/4.8.3/../../../../arm-none-eabi/lib/armv7e-m\libstdc++.a(string-inst.o)
 .ARM.extab.text._ZNSs7replaceEN9__gnu_cxx17__normal_iteratorIPcSsEES2_S2_S2_
                0x08027534        0x0 c:/program files (x86)/gnu tools arm embedded/4.8 2013q4/bin/../lib/gcc/arm-none-eabi/4.8.3/../../../../arm-none-eabi/lib/armv7e-m\libstdc++.a(string-inst.o)
 .ARM.extab.text._ZNSs7replaceEN9__gnu_cxx17__normal_iteratorIPcSsEES2_NS0_IPKcSsEES5_
                0x08027534        0x0 c:/program files (x86)/gnu tools arm embedded/4.8 2013q4/bin/../lib/gcc/arm-none-eabi/4.8.3/../../../../arm-none-eabi/lib/armv7e-m\libstdc++.a(string-inst.o)
 .ARM.extab.text._ZNSsC2EPKcRKSaIcE
                0x08027534        0x0 c:/program files (x86)/gnu tools arm embedded/4.8 2013q4/bin/../lib/gcc/arm-none-eabi/4.8.3/../../../../arm-none-eabi/lib/armv7e-m\libstdc++.a(string-inst.o)
 .ARM.extab.text._ZNSsC2ESt16initializer_listIcERKSaIcE
                0x08027534        0x0 c:/program files (x86)/gnu tools arm embedded/4.8 2013q4/bin/../lib/gcc/arm-none-eabi/4.8.3/../../../../arm-none-eabi/lib/armv7e-m\libstdc++.a(string-inst.o)
 .ARM.extab.text._ZNSsC2IPKcEET_S2_RKSaIcE
                0x08027534        0x0 c:/program files (x86)/gnu tools arm embedded/4.8 2013q4/bin/../lib/gcc/arm-none-eabi/4.8.3/../../../../arm-none-eabi/lib/armv7e-m\libstdc++.a(string-inst.o)
 .ARM.extab.text._ZN9__gnu_cxxeqIPcSsEEbRKNS_17__normal_iteratorIT_T0_EES7_
                0x08027534        0x0 c:/program files (x86)/gnu tools arm embedded/4.8 2013q4/bin/../lib/gcc/arm-none-eabi/4.8.3/../../../../arm-none-eabi/lib/armv7e-m\libstdc++.a(string-inst.o)
 .ARM.extab.text._ZN9__gnu_cxxeqIPKcSsEEbRKNS_17__normal_iteratorIT_T0_EES8_
                0x08027534        0x0 c:/program files (x86)/gnu tools arm embedded/4.8 2013q4/bin/../lib/gcc/arm-none-eabi/4.8.3/../../../../arm-none-eabi/lib/armv7e-m\libstdc++.a(string-inst.o)
 .ARM.extab.text._ZNKSt8__detail20_Prime_rehash_policy11_M_next_bktEj
                0x08027534        0x0 c:/program files (x86)/gnu tools arm embedded/4.8 2013q4/bin/../lib/gcc/arm-none-eabi/4.8.3/../../../../arm-none-eabi/lib/armv7e-m\libstdc++.a(hashtable_c++0x.o)
 .ARM.extab.text._ZNKSt8__detail20_Prime_rehash_policy14_M_need_rehashEjjj
                0x08027534        0x0 c:/program files (x86)/gnu tools arm embedded/4.8 2013q4/bin/../lib/gcc/arm-none-eabi/4.8.3/../../../../arm-none-eabi/lib/armv7e-m\libstdc++.a(hashtable_c++0x.o)
 .ARM.extab.text._ZSt21__throw_bad_exceptionv
                0x08027534        0xc c:/program files (x86)/gnu tools arm embedded/4.8 2013q4/bin/../lib/gcc/arm-none-eabi/4.8.3/../../../../arm-none-eabi/lib/armv7e-m\libstdc++.a(functexcept.o)
 .ARM.extab.text._ZSt17__throw_bad_allocv
                0x08027540        0xc c:/program files (x86)/gnu tools arm embedded/4.8 2013q4/bin/../lib/gcc/arm-none-eabi/4.8.3/../../../../arm-none-eabi/lib/armv7e-m\libstdc++.a(functexcept.o)
 .ARM.extab.text._ZSt16__throw_bad_castv
                0x0802754c        0xc c:/program files (x86)/gnu tools arm embedded/4.8 2013q4/bin/../lib/gcc/arm-none-eabi/4.8.3/../../../../arm-none-eabi/lib/armv7e-m\libstdc++.a(functexcept.o)
 .ARM.extab.text._ZSt18__throw_bad_typeidv
                0x08027558        0xc c:/program files (x86)/gnu tools arm embedded/4.8 2013q4/bin/../lib/gcc/arm-none-eabi/4.8.3/../../../../arm-none-eabi/lib/armv7e-m\libstdc++.a(functexcept.o)
 .ARM.extab.text._ZSt19__throw_logic_errorPKc
                0x08027564       0x18 c:/program files (x86)/gnu tools arm embedded/4.8 2013q4/bin/../lib/gcc/arm-none-eabi/4.8.3/../../../../arm-none-eabi/lib/armv7e-m\libstdc++.a(functexcept.o)
 .ARM.extab.text._ZSt20__throw_domain_errorPKc
                0x0802757c       0x18 c:/program files (x86)/gnu tools arm embedded/4.8 2013q4/bin/../lib/gcc/arm-none-eabi/4.8.3/../../../../arm-none-eabi/lib/armv7e-m\libstdc++.a(functexcept.o)
 .ARM.extab.text._ZSt24__throw_invalid_argumentPKc
                0x08027594       0x18 c:/program files (x86)/gnu tools arm embedded/4.8 2013q4/bin/../lib/gcc/arm-none-eabi/4.8.3/../../../../arm-none-eabi/lib/armv7e-m\libstdc++.a(functexcept.o)
 .ARM.extab.text._ZSt20__throw_length_errorPKc
                0x080275ac       0x18 c:/program files (x86)/gnu tools arm embedded/4.8 2013q4/bin/../lib/gcc/arm-none-eabi/4.8.3/../../../../arm-none-eabi/lib/armv7e-m\libstdc++.a(functexcept.o)
 .ARM.extab.text._ZSt20__throw_out_of_rangePKc
                0x080275c4       0x18 c:/program files (x86)/gnu tools arm embedded/4.8 2013q4/bin/../lib/gcc/arm-none-eabi/4.8.3/../../../../arm-none-eabi/lib/armv7e-m\libstdc++.a(functexcept.o)
 .ARM.extab.text._ZSt21__throw_runtime_errorPKc
                0x080275dc       0x18 c:/program files (x86)/gnu tools arm embedded/4.8 2013q4/bin/../lib/gcc/arm-none-eabi/4.8.3/../../../../arm-none-eabi/lib/armv7e-m\libstdc++.a(functexcept.o)
 .ARM.extab.text._ZSt19__throw_range_errorPKc
                0x080275f4       0x18 c:/program files (x86)/gnu tools arm embedded/4.8 2013q4/bin/../lib/gcc/arm-none-eabi/4.8.3/../../../../arm-none-eabi/lib/armv7e-m\libstdc++.a(functexcept.o)
 .ARM.extab.text._ZSt22__throw_overflow_errorPKc
                0x0802760c       0x18 c:/program files (x86)/gnu tools arm embedded/4.8 2013q4/bin/../lib/gcc/arm-none-eabi/4.8.3/../../../../arm-none-eabi/lib/armv7e-m\libstdc++.a(functexcept.o)
 .ARM.extab.text._ZSt23__throw_underflow_errorPKc
                0x08027624       0x18 c:/program files (x86)/gnu tools arm embedded/4.8 2013q4/bin/../lib/gcc/arm-none-eabi/4.8.3/../../../../arm-none-eabi/lib/armv7e-m\libstdc++.a(functexcept.o)
 .ARM.extab.text._ZSt19__throw_ios_failurePKc
                0x0802763c       0x14 c:/program files (x86)/gnu tools arm embedded/4.8 2013q4/bin/../lib/gcc/arm-none-eabi/4.8.3/../../../../arm-none-eabi/lib/armv7e-m\libstdc++.a(functexcept.o)
 .ARM.extab.text._ZSt20__throw_system_errori
                0x08027650       0x18 c:/program files (x86)/gnu tools arm embedded/4.8 2013q4/bin/../lib/gcc/arm-none-eabi/4.8.3/../../../../arm-none-eabi/lib/armv7e-m\libstdc++.a(functexcept.o)
 .ARM.extab.text._ZSt20__throw_future_errori
                0x08027668       0x18 c:/program files (x86)/gnu tools arm embedded/4.8 2013q4/bin/../lib/gcc/arm-none-eabi/4.8.3/../../../../arm-none-eabi/lib/armv7e-m\libstdc++.a(functexcept.o)
 .ARM.extab.text._ZSt25__throw_bad_function_callv
                0x08027680        0xc c:/program files (x86)/gnu tools arm embedded/4.8 2013q4/bin/../lib/gcc/arm-none-eabi/4.8.3/../../../../arm-none-eabi/lib/armv7e-m\libstdc++.a(functexcept.o)
 .ARM.extab.text._ZSt19__throw_regex_errorNSt15regex_constants10error_typeE
                0x0802768c       0x14 c:/program files (x86)/gnu tools arm embedded/4.8 2013q4/bin/../lib/gcc/arm-none-eabi/4.8.3/../../../../arm-none-eabi/lib/armv7e-m\libstdc++.a(functexcept.o)
 .ARM.extab.text._ZNKSt17bad_function_call4whatEv
                0x080276a0        0x0 c:/program files (x86)/gnu tools arm embedded/4.8 2013q4/bin/../lib/gcc/arm-none-eabi/4.8.3/../../../../arm-none-eabi/lib/armv7e-m\libstdc++.a(functional.o)
 .ARM.extab.text._ZNSt17bad_function_callD2Ev
                0x080276a0        0x0 c:/program files (x86)/gnu tools arm embedded/4.8 2013q4/bin/../lib/gcc/arm-none-eabi/4.8.3/../../../../arm-none-eabi/lib/armv7e-m\libstdc++.a(functional.o)
 .ARM.extab.text._ZNSt17bad_function_callD0Ev
                0x080276a0        0x0 c:/program files (x86)/gnu tools arm embedded/4.8 2013q4/bin/../lib/gcc/arm-none-eabi/4.8.3/../../../../arm-none-eabi/lib/armv7e-m\libstdc++.a(functional.o)
 .ARM.extab.text._ZN10__cxxabiv1L24__is_gxx_exception_classEPc
                0x080276a0        0x0 c:/program files (x86)/gnu tools arm embedded/4.8 2013q4/bin/../lib/gcc/arm-none-eabi/4.8.3/../../../../arm-none-eabi/lib/armv7e-m\libstdc++.a(eh_call.o)
 .ARM.extab.text.__cxa_call_terminate
                0x080276a0        0x0 c:/program files (x86)/gnu tools arm embedded/4.8 2013q4/bin/../lib/gcc/arm-none-eabi/4.8.3/../../../../arm-none-eabi/lib/armv7e-m\libstdc++.a(eh_call.o)
 .ARM.extab.text.__cxa_call_unexpected
                0x080276a0       0x28 c:/program files (x86)/gnu tools arm embedded/4.8 2013q4/bin/../lib/gcc/arm-none-eabi/4.8.3/../../../../arm-none-eabi/lib/armv7e-m\libstdc++.a(eh_call.o)
 .ARM.extab.text.__cxa_type_match
                0x080276c8        0x0 c:/program files (x86)/gnu tools arm embedded/4.8 2013q4/bin/../lib/gcc/arm-none-eabi/4.8.3/../../../../arm-none-eabi/lib/armv7e-m\libstdc++.a(eh_arm.o)
 .ARM.extab.text.__cxa_begin_cleanup
                0x080276c8        0x0 c:/program files (x86)/gnu tools arm embedded/4.8 2013q4/bin/../lib/gcc/arm-none-eabi/4.8.3/../../../../arm-none-eabi/lib/armv7e-m\libstdc++.a(eh_arm.o)
 .ARM.extab.text.__gnu_end_cleanup
                0x080276c8        0x0 c:/program files (x86)/gnu tools arm embedded/4.8 2013q4/bin/../lib/gcc/arm-none-eabi/4.8.3/../../../../arm-none-eabi/lib/armv7e-m\libstdc++.a(eh_arm.o)
 .ARM.extab.text._ZSt15set_new_handlerPFvvE
                0x080276c8        0x0 c:/program files (x86)/gnu tools arm embedded/4.8 2013q4/bin/../lib/gcc/arm-none-eabi/4.8.3/../../../../arm-none-eabi/lib/armv7e-m\libstdc++.a(new_handler.o)
 .ARM.extab.text._ZNKSt9bad_alloc4whatEv
                0x080276c8        0x0 c:/program files (x86)/gnu tools arm embedded/4.8 2013q4/bin/../lib/gcc/arm-none-eabi/4.8.3/../../../../arm-none-eabi/lib/armv7e-m\libstdc++.a(bad_alloc.o)
 .ARM.extab.text._ZNSt9bad_allocD2Ev
                0x080276c8        0x0 c:/program files (x86)/gnu tools arm embedded/4.8 2013q4/bin/../lib/gcc/arm-none-eabi/4.8.3/../../../../arm-none-eabi/lib/armv7e-m\libstdc++.a(bad_alloc.o)
 .ARM.extab.text._ZNSt9bad_allocD0Ev
                0x080276c8        0x0 c:/program files (x86)/gnu tools arm embedded/4.8 2013q4/bin/../lib/gcc/arm-none-eabi/4.8.3/../../../../arm-none-eabi/lib/armv7e-m\libstdc++.a(bad_alloc.o)
 .ARM.extab.text.__cxa_bad_cast
                0x080276c8        0xc c:/program files (x86)/gnu tools arm embedded/4.8 2013q4/bin/../lib/gcc/arm-none-eabi/4.8.3/../../../../arm-none-eabi/lib/armv7e-m\libstdc++.a(eh_aux_runtime.o)
 .ARM.extab.text.__cxa_bad_typeid
                0x080276d4        0xc c:/program files (x86)/gnu tools arm embedded/4.8 2013q4/bin/../lib/gcc/arm-none-eabi/4.8.3/../../../../arm-none-eabi/lib/armv7e-m\libstdc++.a(eh_aux_runtime.o)
 .ARM.extab.text.__cxa_get_globals_fast
                0x080276e0        0x0 c:/program files (x86)/gnu tools arm embedded/4.8 2013q4/bin/../lib/gcc/arm-none-eabi/4.8.3/../../../../arm-none-eabi/lib/armv7e-m\libstdc++.a(eh_globals.o)
 .ARM.extab.text.__cxa_get_globals
                0x080276e0        0x0 c:/program files (x86)/gnu tools arm embedded/4.8 2013q4/bin/../lib/gcc/arm-none-eabi/4.8.3/../../../../arm-none-eabi/lib/armv7e-m\libstdc++.a(eh_globals.o)
 .ARM.extab.text._ZNKSt8bad_cast4whatEv
                0x080276e0        0x0 c:/program files (x86)/gnu tools arm embedded/4.8 2013q4/bin/../lib/gcc/arm-none-eabi/4.8.3/../../../../arm-none-eabi/lib/armv7e-m\libstdc++.a(bad_cast.o)
 .ARM.extab.text._ZNSt8bad_castD2Ev
                0x080276e0        0x0 c:/program files (x86)/gnu tools arm embedded/4.8 2013q4/bin/../lib/gcc/arm-none-eabi/4.8.3/../../../../arm-none-eabi/lib/armv7e-m\libstdc++.a(bad_cast.o)
 .ARM.extab.text._ZNSt8bad_castD0Ev
                0x080276e0        0x0 c:/program files (x86)/gnu tools arm embedded/4.8 2013q4/bin/../lib/gcc/arm-none-eabi/4.8.3/../../../../arm-none-eabi/lib/armv7e-m\libstdc++.a(bad_cast.o)
 .ARM.extab.text.__cxa_get_exception_ptr
                0x080276e0        0x0 c:/program files (x86)/gnu tools arm embedded/4.8 2013q4/bin/../lib/gcc/arm-none-eabi/4.8.3/../../../../arm-none-eabi/lib/armv7e-m\libstdc++.a(eh_catch.o)
 .ARM.extab.text.__cxa_begin_catch
                0x080276e0       0x20 c:/program files (x86)/gnu tools arm embedded/4.8 2013q4/bin/../lib/gcc/arm-none-eabi/4.8.3/../../../../arm-none-eabi/lib/armv7e-m\libstdc++.a(eh_catch.o)
 .ARM.extab.text.__cxa_end_catch
                0x08027700        0x0 c:/program files (x86)/gnu tools arm embedded/4.8 2013q4/bin/../lib/gcc/arm-none-eabi/4.8.3/../../../../arm-none-eabi/lib/armv7e-m\libstdc++.a(eh_catch.o)
 .ARM.extab.text._ZSt18uncaught_exceptionv
                0x08027700        0x0 c:/program files (x86)/gnu tools arm embedded/4.8 2013q4/bin/../lib/gcc/arm-none-eabi/4.8.3/../../../../arm-none-eabi/lib/armv7e-m\libstdc++.a(eh_catch.o)
 .ARM.extab.text._ZN9__gnu_cxx27__verbose_terminate_handlerEv
                0x08027700       0x34 c:/program files (x86)/gnu tools arm embedded/4.8 2013q4/bin/../lib/gcc/arm-none-eabi/4.8.3/../../../../arm-none-eabi/lib/armv7e-m\libstdc++.a(vterminate.o)
 .ARM.extab.text.__cxa_current_exception_type
                0x08027734        0x0 c:/program files (x86)/gnu tools arm embedded/4.8 2013q4/bin/../lib/gcc/arm-none-eabi/4.8.3/../../../../arm-none-eabi/lib/armv7e-m\libstdc++.a(eh_type.o)
 .ARM.extab.text._ZNKSt10bad_typeid4whatEv
                0x08027734        0x0 c:/program files (x86)/gnu tools arm embedded/4.8 2013q4/bin/../lib/gcc/arm-none-eabi/4.8.3/../../../../arm-none-eabi/lib/armv7e-m\libstdc++.a(bad_typeid.o)
 .ARM.extab.text._ZNSt10bad_typeidD2Ev
                0x08027734        0x0 c:/program files (x86)/gnu tools arm embedded/4.8 2013q4/bin/../lib/gcc/arm-none-eabi/4.8.3/../../../../arm-none-eabi/lib/armv7e-m\libstdc++.a(bad_typeid.o)
 .ARM.extab.text._ZNSt10bad_typeidD0Ev
                0x08027734        0x0 c:/program files (x86)/gnu tools arm embedded/4.8 2013q4/bin/../lib/gcc/arm-none-eabi/4.8.3/../../../../arm-none-eabi/lib/armv7e-m\libstdc++.a(bad_typeid.o)
 .ARM.extab.text._ZNKSt8ios_base7failure4whatEv
                0x08027734        0x0 c:/program files (x86)/gnu tools arm embedded/4.8 2013q4/bin/../lib/gcc/arm-none-eabi/4.8.3/../../../../arm-none-eabi/lib/armv7e-m\libstdc++.a(ios_failure.o)
 .ARM.extab.text._ZNSt8ios_base7failureD2Ev
                0x08027734        0x0 c:/program files (x86)/gnu tools arm embedded/4.8 2013q4/bin/../lib/gcc/arm-none-eabi/4.8.3/../../../../arm-none-eabi/lib/armv7e-m\libstdc++.a(ios_failure.o)
 .ARM.extab.text._ZNSt8ios_base7failureD0Ev
                0x08027734        0x0 c:/program files (x86)/gnu tools arm embedded/4.8 2013q4/bin/../lib/gcc/arm-none-eabi/4.8.3/../../../../arm-none-eabi/lib/armv7e-m\libstdc++.a(ios_failure.o)
 .ARM.extab.text._ZNSt8ios_base7failureC2ERKSs
                0x08027734       0x20 c:/program files (x86)/gnu tools arm embedded/4.8 2013q4/bin/../lib/gcc/arm-none-eabi/4.8.3/../../../../arm-none-eabi/lib/armv7e-m\libstdc++.a(ios_failure.o)
 .ARM.extab.text._ZNKSt11logic_error4whatEv
                0x08027754        0x0 c:/program files (x86)/gnu tools arm embedded/4.8 2013q4/bin/../lib/gcc/arm-none-eabi/4.8.3/../../../../arm-none-eabi/lib/armv7e-m\libstdc++.a(stdexcept.o)
 .ARM.extab.text._ZNKSt13runtime_error4whatEv
                0x08027754        0x0 c:/program files (x86)/gnu tools arm embedded/4.8 2013q4/bin/../lib/gcc/arm-none-eabi/4.8.3/../../../../arm-none-eabi/lib/armv7e-m\libstdc++.a(stdexcept.o)
 .ARM.extab.text._ZNSt11logic_errorD2Ev
                0x08027754        0x0 c:/program files (x86)/gnu tools arm embedded/4.8 2013q4/bin/../lib/gcc/arm-none-eabi/4.8.3/../../../../arm-none-eabi/lib/armv7e-m\libstdc++.a(stdexcept.o)
 .ARM.extab.text._ZNSt11logic_errorD0Ev
                0x08027754        0x0 c:/program files (x86)/gnu tools arm embedded/4.8 2013q4/bin/../lib/gcc/arm-none-eabi/4.8.3/../../../../arm-none-eabi/lib/armv7e-m\libstdc++.a(stdexcept.o)
 .ARM.extab.text._ZNSt12domain_errorD2Ev
                0x08027754        0x0 c:/program files (x86)/gnu tools arm embedded/4.8 2013q4/bin/../lib/gcc/arm-none-eabi/4.8.3/../../../../arm-none-eabi/lib/armv7e-m\libstdc++.a(stdexcept.o)
 .ARM.extab.text._ZNSt12domain_errorD0Ev
                0x08027754        0x0 c:/program files (x86)/gnu tools arm embedded/4.8 2013q4/bin/../lib/gcc/arm-none-eabi/4.8.3/../../../../arm-none-eabi/lib/armv7e-m\libstdc++.a(stdexcept.o)
 .ARM.extab.text._ZNSt16invalid_argumentD2Ev
                0x08027754        0x0 c:/program files (x86)/gnu tools arm embedded/4.8 2013q4/bin/../lib/gcc/arm-none-eabi/4.8.3/../../../../arm-none-eabi/lib/armv7e-m\libstdc++.a(stdexcept.o)
 .ARM.extab.text._ZNSt16invalid_argumentD0Ev
                0x08027754        0x0 c:/program files (x86)/gnu tools arm embedded/4.8 2013q4/bin/../lib/gcc/arm-none-eabi/4.8.3/../../../../arm-none-eabi/lib/armv7e-m\libstdc++.a(stdexcept.o)
 .ARM.extab.text._ZNSt12length_errorD2Ev
                0x08027754        0x0 c:/program files (x86)/gnu tools arm embedded/4.8 2013q4/bin/../lib/gcc/arm-none-eabi/4.8.3/../../../../arm-none-eabi/lib/armv7e-m\libstdc++.a(stdexcept.o)
 .ARM.extab.text._ZNSt12length_errorD0Ev
                0x08027754        0x0 c:/program files (x86)/gnu tools arm embedded/4.8 2013q4/bin/../lib/gcc/arm-none-eabi/4.8.3/../../../../arm-none-eabi/lib/armv7e-m\libstdc++.a(stdexcept.o)
 .ARM.extab.text._ZNSt12out_of_rangeD2Ev
                0x08027754        0x0 c:/program files (x86)/gnu tools arm embedded/4.8 2013q4/bin/../lib/gcc/arm-none-eabi/4.8.3/../../../../arm-none-eabi/lib/armv7e-m\libstdc++.a(stdexcept.o)
 .ARM.extab.text._ZNSt12out_of_rangeD0Ev
                0x08027754        0x0 c:/program files (x86)/gnu tools arm embedded/4.8 2013q4/bin/../lib/gcc/arm-none-eabi/4.8.3/../../../../arm-none-eabi/lib/armv7e-m\libstdc++.a(stdexcept.o)
 .ARM.extab.text._ZNSt13runtime_errorD2Ev
                0x08027754        0x0 c:/program files (x86)/gnu tools arm embedded/4.8 2013q4/bin/../lib/gcc/arm-none-eabi/4.8.3/../../../../arm-none-eabi/lib/armv7e-m\libstdc++.a(stdexcept.o)
 .ARM.extab.text._ZNSt13runtime_errorD0Ev
                0x08027754        0x0 c:/program files (x86)/gnu tools arm embedded/4.8 2013q4/bin/../lib/gcc/arm-none-eabi/4.8.3/../../../../arm-none-eabi/lib/armv7e-m\libstdc++.a(stdexcept.o)
 .ARM.extab.text._ZNSt11range_errorD2Ev
                0x08027754        0x0 c:/program files (x86)/gnu tools arm embedded/4.8 2013q4/bin/../lib/gcc/arm-none-eabi/4.8.3/../../../../arm-none-eabi/lib/armv7e-m\libstdc++.a(stdexcept.o)
 .ARM.extab.text._ZNSt11range_errorD0Ev
                0x08027754        0x0 c:/program files (x86)/gnu tools arm embedded/4.8 2013q4/bin/../lib/gcc/arm-none-eabi/4.8.3/../../../../arm-none-eabi/lib/armv7e-m\libstdc++.a(stdexcept.o)
 .ARM.extab.text._ZNSt14overflow_errorD2Ev
                0x08027754        0x0 c:/program files (x86)/gnu tools arm embedded/4.8 2013q4/bin/../lib/gcc/arm-none-eabi/4.8.3/../../../../arm-none-eabi/lib/armv7e-m\libstdc++.a(stdexcept.o)
 .ARM.extab.text._ZNSt14overflow_errorD0Ev
                0x08027754        0x0 c:/program files (x86)/gnu tools arm embedded/4.8 2013q4/bin/../lib/gcc/arm-none-eabi/4.8.3/../../../../arm-none-eabi/lib/armv7e-m\libstdc++.a(stdexcept.o)
 .ARM.extab.text._ZNSt15underflow_errorD2Ev
                0x08027754        0x0 c:/program files (x86)/gnu tools arm embedded/4.8 2013q4/bin/../lib/gcc/arm-none-eabi/4.8.3/../../../../arm-none-eabi/lib/armv7e-m\libstdc++.a(stdexcept.o)
 .ARM.extab.text._ZNSt15underflow_errorD0Ev
                0x08027754        0x0 c:/program files (x86)/gnu tools arm embedded/4.8 2013q4/bin/../lib/gcc/arm-none-eabi/4.8.3/../../../../arm-none-eabi/lib/armv7e-m\libstdc++.a(stdexcept.o)
 .ARM.extab.text._ZNSt11logic_errorC2ERKSs
                0x08027754       0x14 c:/program files (x86)/gnu tools arm embedded/4.8 2013q4/bin/../lib/gcc/arm-none-eabi/4.8.3/../../../../arm-none-eabi/lib/armv7e-m\libstdc++.a(stdexcept.o)
 .ARM.extab.text._ZNSt12domain_errorC2ERKSs
                0x08027768        0x0 c:/program files (x86)/gnu tools arm embedded/4.8 2013q4/bin/../lib/gcc/arm-none-eabi/4.8.3/../../../../arm-none-eabi/lib/armv7e-m\libstdc++.a(stdexcept.o)
 .ARM.extab.text._ZNSt16invalid_argumentC2ERKSs
                0x08027768        0x0 c:/program files (x86)/gnu tools arm embedded/4.8 2013q4/bin/../lib/gcc/arm-none-eabi/4.8.3/../../../../arm-none-eabi/lib/armv7e-m\libstdc++.a(stdexcept.o)
 .ARM.extab.text._ZNSt12length_errorC2ERKSs
                0x08027768        0x0 c:/program files (x86)/gnu tools arm embedded/4.8 2013q4/bin/../lib/gcc/arm-none-eabi/4.8.3/../../../../arm-none-eabi/lib/armv7e-m\libstdc++.a(stdexcept.o)
 .ARM.extab.text._ZNSt12out_of_rangeC2ERKSs
                0x08027768        0x0 c:/program files (x86)/gnu tools arm embedded/4.8 2013q4/bin/../lib/gcc/arm-none-eabi/4.8.3/../../../../arm-none-eabi/lib/armv7e-m\libstdc++.a(stdexcept.o)
 .ARM.extab.text._ZNSt13runtime_errorC2ERKSs
                0x08027768       0x14 c:/program files (x86)/gnu tools arm embedded/4.8 2013q4/bin/../lib/gcc/arm-none-eabi/4.8.3/../../../../arm-none-eabi/lib/armv7e-m\libstdc++.a(stdexcept.o)
 .ARM.extab.text._ZNSt11range_errorC2ERKSs
                0x0802777c        0x0 c:/program files (x86)/gnu tools arm embedded/4.8 2013q4/bin/../lib/gcc/arm-none-eabi/4.8.3/../../../../arm-none-eabi/lib/armv7e-m\libstdc++.a(stdexcept.o)
 .ARM.extab.text._ZNSt14overflow_errorC2ERKSs
                0x0802777c        0x0 c:/program files (x86)/gnu tools arm embedded/4.8 2013q4/bin/../lib/gcc/arm-none-eabi/4.8.3/../../../../arm-none-eabi/lib/armv7e-m\libstdc++.a(stdexcept.o)
 .ARM.extab.text._ZNSt15underflow_errorC2ERKSs
                0x0802777c        0x0 c:/program files (x86)/gnu tools arm embedded/4.8 2013q4/bin/../lib/gcc/arm-none-eabi/4.8.3/../../../../arm-none-eabi/lib/armv7e-m\libstdc++.a(stdexcept.o)
 .ARM.extab.text._ZNK12_GLOBAL__N_122generic_error_category4nameEv
                0x0802777c        0x0 c:/program files (x86)/gnu tools arm embedded/4.8 2013q4/bin/../lib/gcc/arm-none-eabi/4.8.3/../../../../arm-none-eabi/lib/armv7e-m\libstdc++.a(system_error.o)
 .ARM.extab.text._ZNK12_GLOBAL__N_121system_error_category4nameEv
                0x0802777c        0x0 c:/program files (x86)/gnu tools arm embedded/4.8 2013q4/bin/../lib/gcc/arm-none-eabi/4.8.3/../../../../arm-none-eabi/lib/armv7e-m\libstdc++.a(system_error.o)
 .ARM.extab.text._ZNSt14error_categoryD2Ev
                0x0802777c        0x0 c:/program files (x86)/gnu tools arm embedded/4.8 2013q4/bin/../lib/gcc/arm-none-eabi/4.8.3/../../../../arm-none-eabi/lib/armv7e-m\libstdc++.a(system_error.o)
 .ARM.extab.text._ZNKSt14error_category23default_error_conditionEi
                0x0802777c        0x0 c:/program files (x86)/gnu tools arm embedded/4.8 2013q4/bin/../lib/gcc/arm-none-eabi/4.8.3/../../../../arm-none-eabi/lib/armv7e-m\libstdc++.a(system_error.o)
 .ARM.extab.text._ZNKSt14error_category10equivalentEiRKSt15error_condition
                0x0802777c        0x0 c:/program files (x86)/gnu tools arm embedded/4.8 2013q4/bin/../lib/gcc/arm-none-eabi/4.8.3/../../../../arm-none-eabi/lib/armv7e-m\libstdc++.a(system_error.o)
 .ARM.extab.text._ZNKSt14error_category10equivalentERKSt10error_codei
                0x0802777c        0x0 c:/program files (x86)/gnu tools arm embedded/4.8 2013q4/bin/../lib/gcc/arm-none-eabi/4.8.3/../../../../arm-none-eabi/lib/armv7e-m\libstdc++.a(system_error.o)
 .ARM.extab.text._ZN12_GLOBAL__N_121system_error_categoryD2Ev
                0x0802777c        0x0 c:/program files (x86)/gnu tools arm embedded/4.8 2013q4/bin/../lib/gcc/arm-none-eabi/4.8.3/../../../../arm-none-eabi/lib/armv7e-m\libstdc++.a(system_error.o)
 .ARM.extab.text._ZN12_GLOBAL__N_122generic_error_categoryD2Ev
                0x0802777c        0x0 c:/program files (x86)/gnu tools arm embedded/4.8 2013q4/bin/../lib/gcc/arm-none-eabi/4.8.3/../../../../arm-none-eabi/lib/armv7e-m\libstdc++.a(system_error.o)
 .ARM.extab.text._ZNSt14error_categoryD0Ev
                0x0802777c        0x0 c:/program files (x86)/gnu tools arm embedded/4.8 2013q4/bin/../lib/gcc/arm-none-eabi/4.8.3/../../../../arm-none-eabi/lib/armv7e-m\libstdc++.a(system_error.o)
 .ARM.extab.text._ZN12_GLOBAL__N_121system_error_categoryD0Ev
                0x0802777c        0x0 c:/program files (x86)/gnu tools arm embedded/4.8 2013q4/bin/../lib/gcc/arm-none-eabi/4.8.3/../../../../arm-none-eabi/lib/armv7e-m\libstdc++.a(system_error.o)
 .ARM.extab.text._ZN12_GLOBAL__N_122generic_error_categoryD0Ev
                0x0802777c        0x0 c:/program files (x86)/gnu tools arm embedded/4.8 2013q4/bin/../lib/gcc/arm-none-eabi/4.8.3/../../../../arm-none-eabi/lib/armv7e-m\libstdc++.a(system_error.o)
 .ARM.extab.text._ZNSt12system_errorD2Ev
                0x0802777c        0x0 c:/program files (x86)/gnu tools arm embedded/4.8 2013q4/bin/../lib/gcc/arm-none-eabi/4.8.3/../../../../arm-none-eabi/lib/armv7e-m\libstdc++.a(system_error.o)
 .ARM.extab.text._ZNSt12system_errorD0Ev
                0x0802777c        0x0 c:/program files (x86)/gnu tools arm embedded/4.8 2013q4/bin/../lib/gcc/arm-none-eabi/4.8.3/../../../../arm-none-eabi/lib/armv7e-m\libstdc++.a(system_error.o)
 .ARM.extab.text._ZNK12_GLOBAL__N_121system_error_category7messageEi
                0x0802777c        0x0 c:/program files (x86)/gnu tools arm embedded/4.8 2013q4/bin/../lib/gcc/arm-none-eabi/4.8.3/../../../../arm-none-eabi/lib/armv7e-m\libstdc++.a(system_error.o)
 .ARM.extab.text._ZNK12_GLOBAL__N_122generic_error_category7messageEi
                0x0802777c        0x0 c:/program files (x86)/gnu tools arm embedded/4.8 2013q4/bin/../lib/gcc/arm-none-eabi/4.8.3/../../../../arm-none-eabi/lib/armv7e-m\libstdc++.a(system_error.o)
 .ARM.extab.text._ZNSt14error_categoryC2Ev
                0x0802777c        0x0 c:/program files (x86)/gnu tools arm embedded/4.8 2013q4/bin/../lib/gcc/arm-none-eabi/4.8.3/../../../../arm-none-eabi/lib/armv7e-m\libstdc++.a(system_error.o)
 .ARM.extab.text._ZSt15system_categoryv
                0x0802777c        0x0 c:/program files (x86)/gnu tools arm embedded/4.8 2013q4/bin/../lib/gcc/arm-none-eabi/4.8.3/../../../../arm-none-eabi/lib/armv7e-m\libstdc++.a(system_error.o)
 .ARM.extab.text._ZSt16generic_categoryv
                0x0802777c        0x0 c:/program files (x86)/gnu tools arm embedded/4.8 2013q4/bin/../lib/gcc/arm-none-eabi/4.8.3/../../../../arm-none-eabi/lib/armv7e-m\libstdc++.a(system_error.o)
 .ARM.extab.text._ZNKSt10error_code23default_error_conditionEv
                0x0802777c        0x0 c:/program files (x86)/gnu tools arm embedded/4.8 2013q4/bin/../lib/gcc/arm-none-eabi/4.8.3/../../../../arm-none-eabi/lib/armv7e-m\libstdc++.a(system_error.o)
 .ARM.extab.text.startup._GLOBAL__sub_I__ZNSt14error_categoryC2Ev
                0x0802777c        0x0 c:/program files (x86)/gnu tools arm embedded/4.8 2013q4/bin/../lib/gcc/arm-none-eabi/4.8.3/../../../../arm-none-eabi/lib/armv7e-m\libstdc++.a(system_error.o)
 .ARM.extab.text._ZNK12_GLOBAL__N_121future_error_category4nameEv
                0x0802777c        0x0 c:/program files (x86)/gnu tools arm embedded/4.8 2013q4/bin/../lib/gcc/arm-none-eabi/4.8.3/../../../../arm-none-eabi/lib/armv7e-m\libstdc++.a(future.o)
 .ARM.extab.text._ZN12_GLOBAL__N_121future_error_categoryD2Ev
                0x0802777c        0x0 c:/program files (x86)/gnu tools arm embedded/4.8 2013q4/bin/../lib/gcc/arm-none-eabi/4.8.3/../../../../arm-none-eabi/lib/armv7e-m\libstdc++.a(future.o)
 .ARM.extab.text._ZN12_GLOBAL__N_121future_error_categoryD0Ev
                0x0802777c        0x0 c:/program files (x86)/gnu tools arm embedded/4.8 2013q4/bin/../lib/gcc/arm-none-eabi/4.8.3/../../../../arm-none-eabi/lib/armv7e-m\libstdc++.a(future.o)
 .ARM.extab.text._ZNSt12future_errorD2Ev
                0x0802777c        0x0 c:/program files (x86)/gnu tools arm embedded/4.8 2013q4/bin/../lib/gcc/arm-none-eabi/4.8.3/../../../../arm-none-eabi/lib/armv7e-m\libstdc++.a(future.o)
 .ARM.extab.text._ZNSt12future_errorD0Ev
                0x0802777c        0x0 c:/program files (x86)/gnu tools arm embedded/4.8 2013q4/bin/../lib/gcc/arm-none-eabi/4.8.3/../../../../arm-none-eabi/lib/armv7e-m\libstdc++.a(future.o)
 .ARM.extab.text._ZNKSt12future_error4whatEv
                0x0802777c        0xc c:/program files (x86)/gnu tools arm embedded/4.8 2013q4/bin/../lib/gcc/arm-none-eabi/4.8.3/../../../../arm-none-eabi/lib/armv7e-m\libstdc++.a(future.o)
 .ARM.extab.text._ZNK12_GLOBAL__N_121future_error_category7messageEi
                0x08027788       0x14 c:/program files (x86)/gnu tools arm embedded/4.8 2013q4/bin/../lib/gcc/arm-none-eabi/4.8.3/../../../../arm-none-eabi/lib/armv7e-m\libstdc++.a(future.o)
 .ARM.extab.text._ZSt15future_categoryv
                0x0802779c        0x0 c:/program files (x86)/gnu tools arm embedded/4.8 2013q4/bin/../lib/gcc/arm-none-eabi/4.8.3/../../../../arm-none-eabi/lib/armv7e-m\libstdc++.a(future.o)
 .ARM.extab.text._ZNSt11regex_errorD2Ev
                0x0802779c        0x0 c:/program files (x86)/gnu tools arm embedded/4.8 2013q4/bin/../lib/gcc/arm-none-eabi/4.8.3/../../../../arm-none-eabi/lib/armv7e-m\libstdc++.a(regex.o)
 .ARM.extab.text._ZNSt11regex_errorD0Ev
                0x0802779c        0x0 c:/program files (x86)/gnu tools arm embedded/4.8 2013q4/bin/../lib/gcc/arm-none-eabi/4.8.3/../../../../arm-none-eabi/lib/armv7e-m\libstdc++.a(regex.o)
 .ARM.extab.text._ZNSt11regex_errorC2ENSt15regex_constants10error_typeE
                0x0802779c       0x18 c:/program files (x86)/gnu tools arm embedded/4.8 2013q4/bin/../lib/gcc/arm-none-eabi/4.8.3/../../../../arm-none-eabi/lib/armv7e-m\libstdc++.a(regex.o)
 .ARM.extab.text.__cxa_guard_acquire
                0x080277b4        0xc c:/program files (x86)/gnu tools arm embedded/4.8 2013q4/bin/../lib/gcc/arm-none-eabi/4.8.3/../../../../arm-none-eabi/lib/armv7e-m\libstdc++.a(guard.o)
 .ARM.extab.text.__cxa_guard_abort
                0x080277c0        0x0 c:/program files (x86)/gnu tools arm embedded/4.8 2013q4/bin/../lib/gcc/arm-none-eabi/4.8.3/../../../../arm-none-eabi/lib/armv7e-m\libstdc++.a(guard.o)
 .ARM.extab.text.__cxa_guard_release
                0x080277c0        0x0 c:/program files (x86)/gnu tools arm embedded/4.8 2013q4/bin/../lib/gcc/arm-none-eabi/4.8.3/../../../../arm-none-eabi/lib/armv7e-m\libstdc++.a(guard.o)
 .ARM.extab.text._ZN9__gnu_cxx20recursive_init_errorD2Ev
                0x080277c0        0x0 c:/program files (x86)/gnu tools arm embedded/4.8 2013q4/bin/../lib/gcc/arm-none-eabi/4.8.3/../../../../arm-none-eabi/lib/armv7e-m\libstdc++.a(guard_error.o)
 .ARM.extab.text._ZN9__gnu_cxx20recursive_init_errorD0Ev
                0x080277c0        0x0 c:/program files (x86)/gnu tools arm embedded/4.8 2013q4/bin/../lib/gcc/arm-none-eabi/4.8.3/../../../../arm-none-eabi/lib/armv7e-m\libstdc++.a(guard_error.o)
 .ARM.extab     0x080277c0        0xc c:/program files (x86)/gnu tools arm embedded/4.8 2013q4/bin/../lib/gcc/arm-none-eabi/4.8.3/armv7e-m\libgcc.a(unwind-arm.o)
 .ARM.extab     0x080277cc       0x18 c:/program files (x86)/gnu tools arm embedded/4.8 2013q4/bin/../lib/gcc/arm-none-eabi/4.8.3/armv7e-m\libgcc.a(pr-support.o)
 .ARM.extab     0x080277e4        0x0 c:/program files (x86)/gnu tools arm embedded/4.8 2013q4/bin/../lib/gcc/arm-none-eabi/4.8.3/armv7e-m\libgcc.a(_divdi3.o)
 .ARM.extab     0x080277e4        0x0 c:/program files (x86)/gnu tools arm embedded/4.8 2013q4/bin/../lib/gcc/arm-none-eabi/4.8.3/armv7e-m\libgcc.a(_udivdi3.o)

.ARM            0x080277e4      0x7c0
                0x080277e4                __exidx_start = .
 *(.ARM.exidx*)
 .ARM.exidx     0x080277e4        0x8 c:/program files (x86)/gnu tools arm embedded/4.8 2013q4/bin/../lib/gcc/arm-none-eabi/4.8.3/../../../../arm-none-eabi/lib/armv7e-m/crt0.o
 .ARM.exidx.text._ZNK3osc9Exception4whatEv
                0x080279a4        0x0 ../build/obj/oscreceivedelements.o
                                  0x8 (size before relaxing)
 .ARM.exidx     0x080277ec       0xf8 ../build/obj/oscreceivedelements.o
                                0x130 (size before relaxing)
 .ARM.exidx.text._ZN3osc9ExceptionD2Ev
                0x080279a4        0x0 ../build/obj/oscreceivedelements.o
                                  0x8 (size before relaxing)
 .ARM.exidx.text._ZN3osc24MissingArgumentExceptionD2Ev
                0x080279a4        0x0 ../build/obj/oscreceivedelements.o
                                  0x8 (size before relaxing)
 .ARM.exidx.text._ZN3osc26WrongArgumentTypeExceptionD2Ev
                0x080279a4        0x0 ../build/obj/oscreceivedelements.o
                                  0x8 (size before relaxing)
 .ARM.exidx.text._ZN3osc24MalformedBundleExceptionD2Ev
                0x080279a4        0x0 ../build/obj/oscreceivedelements.o
                                  0x8 (size before relaxing)
 .ARM.exidx.text._ZN3osc25MalformedMessageExceptionD2Ev
                0x080279a4        0x0 ../build/obj/oscreceivedelements.o
                                  0x8 (size before relaxing)
 .ARM.exidx.text._ZN3osc9ExceptionD0Ev
                0x080279a4        0x0 ../build/obj/oscreceivedelements.o
                                  0x8 (size before relaxing)
 .ARM.exidx.text._ZN3osc24MissingArgumentExceptionD0Ev
                0x080279a4        0x0 ../build/obj/oscreceivedelements.o
                                  0x8 (size before relaxing)
 .ARM.exidx.text._ZN3osc26WrongArgumentTypeExceptionD0Ev
                0x080279a4        0x0 ../build/obj/oscreceivedelements.o
                                  0x8 (size before relaxing)
 .ARM.exidx.text._ZN3osc24MalformedBundleExceptionD0Ev
                0x080279a4        0x0 ../build/obj/oscreceivedelements.o
                                  0x8 (size before relaxing)
 .ARM.exidx.text._ZN3osc25MalformedMessageExceptionD0Ev
                0x080279a4        0x0 ../build/obj/oscreceivedelements.o
                                  0x8 (size before relaxing)
 .ARM.exidx.text._ZNK10__cxxabiv119__pointer_type_info14__is_pointer_pEv
                0x080279a4        0x0 c:/program files (x86)/gnu tools arm embedded/4.8 2013q4/bin/../lib/gcc/arm-none-eabi/4.8.3/../../../../arm-none-eabi/lib/armv7e-m\libstdc++.a(pointer_type_info.o)
                                  0x8 (size before relaxing)
 .ARM.exidx.text._ZN10__cxxabiv119__pointer_type_infoD2Ev
                0x080279a4        0x8 c:/program files (x86)/gnu tools arm embedded/4.8 2013q4/bin/../lib/gcc/arm-none-eabi/4.8.3/../../../../arm-none-eabi/lib/armv7e-m\libstdc++.a(pointer_type_info.o)
 .ARM.exidx.text._ZN10__cxxabiv119__pointer_type_infoD0Ev
                0x080279ac        0x0 c:/program files (x86)/gnu tools arm embedded/4.8 2013q4/bin/../lib/gcc/arm-none-eabi/4.8.3/../../../../arm-none-eabi/lib/armv7e-m\libstdc++.a(pointer_type_info.o)
                                  0x8 (size before relaxing)
 .ARM.exidx.text._ZNK10__cxxabiv119__pointer_type_info15__pointer_catchEPKNS_17__pbase_type_infoEPPvj
                0x080279ac        0x8 c:/program files (x86)/gnu tools arm embedded/4.8 2013q4/bin/../lib/gcc/arm-none-eabi/4.8.3/../../../../arm-none-eabi/lib/armv7e-m\libstdc++.a(pointer_type_info.o)
 .ARM.exidx.text._ZN10__cxxabiv123__fundamental_type_infoD2Ev
                0x080279b4        0x8 c:/program files (x86)/gnu tools arm embedded/4.8 2013q4/bin/../lib/gcc/arm-none-eabi/4.8.3/../../../../arm-none-eabi/lib/armv7e-m\libstdc++.a(fundamental_type_info.o)
 .ARM.exidx.text._ZN10__cxxabiv123__fundamental_type_infoD0Ev
                0x080279bc        0x0 c:/program files (x86)/gnu tools arm embedded/4.8 2013q4/bin/../lib/gcc/arm-none-eabi/4.8.3/../../../../arm-none-eabi/lib/armv7e-m\libstdc++.a(fundamental_type_info.o)
                                  0x8 (size before relaxing)
 .ARM.exidx.text._ZN10__cxxabiv120__si_class_type_infoD2Ev
                0x080279bc        0x0 c:/program files (x86)/gnu tools arm embedded/4.8 2013q4/bin/../lib/gcc/arm-none-eabi/4.8.3/../../../../arm-none-eabi/lib/armv7e-m\libstdc++.a(si_class_type_info.o)
                                  0x8 (size before relaxing)
 .ARM.exidx.text._ZN10__cxxabiv120__si_class_type_infoD0Ev
                0x080279bc        0x0 c:/program files (x86)/gnu tools arm embedded/4.8 2013q4/bin/../lib/gcc/arm-none-eabi/4.8.3/../../../../arm-none-eabi/lib/armv7e-m\libstdc++.a(si_class_type_info.o)
                                  0x8 (size before relaxing)
 .ARM.exidx.text._ZNK10__cxxabiv120__si_class_type_info20__do_find_public_srcEiPKvPKNS_17__class_type_infoES2_
                0x080279bc        0x8 c:/program files (x86)/gnu tools arm embedded/4.8 2013q4/bin/../lib/gcc/arm-none-eabi/4.8.3/../../../../arm-none-eabi/lib/armv7e-m\libstdc++.a(si_class_type_info.o)
 .ARM.exidx.text._ZNK10__cxxabiv120__si_class_type_info12__do_dyncastEiNS_17__class_type_info10__sub_kindEPKS1_PKvS4_S6_RNS1_16__dyncast_resultE
                0x080279c4        0x8 c:/program files (x86)/gnu tools arm embedded/4.8 2013q4/bin/../lib/gcc/arm-none-eabi/4.8.3/../../../../arm-none-eabi/lib/armv7e-m\libstdc++.a(si_class_type_info.o)
 .ARM.exidx.text._ZNK10__cxxabiv120__si_class_type_info11__do_upcastEPKNS_17__class_type_infoEPKvRNS1_15__upcast_resultE
                0x080279cc        0x8 c:/program files (x86)/gnu tools arm embedded/4.8 2013q4/bin/../lib/gcc/arm-none-eabi/4.8.3/../../../../arm-none-eabi/lib/armv7e-m\libstdc++.a(si_class_type_info.o)
 .ARM.exidx.text.__cxa_pure_virtual
                0x080279d4        0x8 c:/program files (x86)/gnu tools arm embedded/4.8 2013q4/bin/../lib/gcc/arm-none-eabi/4.8.3/../../../../arm-none-eabi/lib/armv7e-m\libstdc++.a(pure.o)
 .ARM.exidx.text.__cxa_deleted_virtual
                0x080279dc        0x8 c:/program files (x86)/gnu tools arm embedded/4.8 2013q4/bin/../lib/gcc/arm-none-eabi/4.8.3/../../../../arm-none-eabi/lib/armv7e-m\libstdc++.a(pure.o)
 .ARM.exidx.text._ZNK10__cxxabiv117__pbase_type_info15__pointer_catchEPKS0_PPvj
                0x080279e4        0x8 c:/program files (x86)/gnu tools arm embedded/4.8 2013q4/bin/../lib/gcc/arm-none-eabi/4.8.3/../../../../arm-none-eabi/lib/armv7e-m\libstdc++.a(pbase_type_info.o)
 .ARM.exidx.text._ZN10__cxxabiv117__pbase_type_infoD2Ev
                0x080279ec        0x0 c:/program files (x86)/gnu tools arm embedded/4.8 2013q4/bin/../lib/gcc/arm-none-eabi/4.8.3/../../../../arm-none-eabi/lib/armv7e-m\libstdc++.a(pbase_type_info.o)
                                  0x8 (size before relaxing)
 .ARM.exidx.text._ZN10__cxxabiv117__pbase_type_infoD0Ev
                0x080279ec        0x0 c:/program files (x86)/gnu tools arm embedded/4.8 2013q4/bin/../lib/gcc/arm-none-eabi/4.8.3/../../../../arm-none-eabi/lib/armv7e-m\libstdc++.a(pbase_type_info.o)
                                  0x8 (size before relaxing)
 .ARM.exidx.text._ZNK10__cxxabiv117__pbase_type_info10__do_catchEPKSt9type_infoPPvj
                0x080279ec        0x8 c:/program files (x86)/gnu tools arm embedded/4.8 2013q4/bin/../lib/gcc/arm-none-eabi/4.8.3/../../../../arm-none-eabi/lib/armv7e-m\libstdc++.a(pbase_type_info.o)
 .ARM.exidx.text._ZNSt9exceptionD2Ev
                0x080279f4        0x8 c:/program files (x86)/gnu tools arm embedded/4.8 2013q4/bin/../lib/gcc/arm-none-eabi/4.8.3/../../../../arm-none-eabi/lib/armv7e-m\libstdc++.a(eh_exception.o)
 .ARM.exidx.text._ZNSt13bad_exceptionD2Ev
                0x080279fc        0x0 c:/program files (x86)/gnu tools arm embedded/4.8 2013q4/bin/../lib/gcc/arm-none-eabi/4.8.3/../../../../arm-none-eabi/lib/armv7e-m\libstdc++.a(eh_exception.o)
                                  0x8 (size before relaxing)
 .ARM.exidx.text._ZN10__cxxabiv115__forced_unwindD2Ev
                0x080279fc        0x0 c:/program files (x86)/gnu tools arm embedded/4.8 2013q4/bin/../lib/gcc/arm-none-eabi/4.8.3/../../../../arm-none-eabi/lib/armv7e-m\libstdc++.a(eh_exception.o)
                                  0x8 (size before relaxing)
 .ARM.exidx.text._ZN10__cxxabiv119__foreign_exceptionD2Ev
                0x080279fc        0x0 c:/program files (x86)/gnu tools arm embedded/4.8 2013q4/bin/../lib/gcc/arm-none-eabi/4.8.3/../../../../arm-none-eabi/lib/armv7e-m\libstdc++.a(eh_exception.o)
                                  0x8 (size before relaxing)
 .ARM.exidx.text._ZNKSt9exception4whatEv
                0x080279fc        0x0 c:/program files (x86)/gnu tools arm embedded/4.8 2013q4/bin/../lib/gcc/arm-none-eabi/4.8.3/../../../../arm-none-eabi/lib/armv7e-m\libstdc++.a(eh_exception.o)
                                  0x8 (size before relaxing)
 .ARM.exidx.text._ZNKSt13bad_exception4whatEv
                0x080279fc        0x0 c:/program files (x86)/gnu tools arm embedded/4.8 2013q4/bin/../lib/gcc/arm-none-eabi/4.8.3/../../../../arm-none-eabi/lib/armv7e-m\libstdc++.a(eh_exception.o)
                                  0x8 (size before relaxing)
 .ARM.exidx.text._ZNSt9exceptionD0Ev
                0x080279fc        0x0 c:/program files (x86)/gnu tools arm embedded/4.8 2013q4/bin/../lib/gcc/arm-none-eabi/4.8.3/../../../../arm-none-eabi/lib/armv7e-m\libstdc++.a(eh_exception.o)
                                  0x8 (size before relaxing)
 .ARM.exidx.text._ZNSt13bad_exceptionD0Ev
                0x080279fc        0x0 c:/program files (x86)/gnu tools arm embedded/4.8 2013q4/bin/../lib/gcc/arm-none-eabi/4.8.3/../../../../arm-none-eabi/lib/armv7e-m\libstdc++.a(eh_exception.o)
                                  0x8 (size before relaxing)
 .ARM.exidx.text._ZN10__cxxabiv115__forced_unwindD0Ev
                0x080279fc        0x0 c:/program files (x86)/gnu tools arm embedded/4.8 2013q4/bin/../lib/gcc/arm-none-eabi/4.8.3/../../../../arm-none-eabi/lib/armv7e-m\libstdc++.a(eh_exception.o)
                                  0x8 (size before relaxing)
 .ARM.exidx.text._ZN10__cxxabiv119__foreign_exceptionD0Ev
                0x080279fc        0x0 c:/program files (x86)/gnu tools arm embedded/4.8 2013q4/bin/../lib/gcc/arm-none-eabi/4.8.3/../../../../arm-none-eabi/lib/armv7e-m\libstdc++.a(eh_exception.o)
                                  0x8 (size before relaxing)
 .ARM.exidx.text._ZdlPv
                0x080279fc        0x0 c:/program files (x86)/gnu tools arm embedded/4.8 2013q4/bin/../lib/gcc/arm-none-eabi/4.8.3/../../../../arm-none-eabi/lib/armv7e-m\libstdc++.a(del_op.o)
                                  0x8 (size before relaxing)
 .ARM.exidx.text._ZNK10__cxxabiv117__class_type_info11__do_upcastEPKS0_PPv
                0x080279fc        0x8 c:/program files (x86)/gnu tools arm embedded/4.8 2013q4/bin/../lib/gcc/arm-none-eabi/4.8.3/../../../../arm-none-eabi/lib/armv7e-m\libstdc++.a(class_type_info.o)
 .ARM.exidx.text._ZNK10__cxxabiv117__class_type_info20__do_find_public_srcEiPKvPKS0_S2_
                0x08027a04        0x8 c:/program files (x86)/gnu tools arm embedded/4.8 2013q4/bin/../lib/gcc/arm-none-eabi/4.8.3/../../../../arm-none-eabi/lib/armv7e-m\libstdc++.a(class_type_info.o)
 .ARM.exidx.text._ZN10__cxxabiv117__class_type_infoD2Ev
                0x08027a0c        0x8 c:/program files (x86)/gnu tools arm embedded/4.8 2013q4/bin/../lib/gcc/arm-none-eabi/4.8.3/../../../../arm-none-eabi/lib/armv7e-m\libstdc++.a(class_type_info.o)
 .ARM.exidx.text._ZN10__cxxabiv117__class_type_infoD0Ev
                0x08027a14        0x0 c:/program files (x86)/gnu tools arm embedded/4.8 2013q4/bin/../lib/gcc/arm-none-eabi/4.8.3/../../../../arm-none-eabi/lib/armv7e-m\libstdc++.a(class_type_info.o)
                                  0x8 (size before relaxing)
 .ARM.exidx.text._ZNK10__cxxabiv117__class_type_info11__do_upcastEPKS0_PKvRNS0_15__upcast_resultE
                0x08027a14        0x8 c:/program files (x86)/gnu tools arm embedded/4.8 2013q4/bin/../lib/gcc/arm-none-eabi/4.8.3/../../../../arm-none-eabi/lib/armv7e-m\libstdc++.a(class_type_info.o)
 .ARM.exidx.text._ZNK10__cxxabiv117__class_type_info10__do_catchEPKSt9type_infoPPvj
                0x08027a1c        0x8 c:/program files (x86)/gnu tools arm embedded/4.8 2013q4/bin/../lib/gcc/arm-none-eabi/4.8.3/../../../../arm-none-eabi/lib/armv7e-m\libstdc++.a(class_type_info.o)
 .ARM.exidx.text._ZNK10__cxxabiv117__class_type_info12__do_dyncastEiNS0_10__sub_kindEPKS0_PKvS3_S5_RNS0_16__dyncast_resultE
                0x08027a24        0x8 c:/program files (x86)/gnu tools arm embedded/4.8 2013q4/bin/../lib/gcc/arm-none-eabi/4.8.3/../../../../arm-none-eabi/lib/armv7e-m\libstdc++.a(class_type_info.o)
 .ARM.exidx.text.__aeabi_atexit
                0x08027a2c        0x8 c:/program files (x86)/gnu tools arm embedded/4.8 2013q4/bin/../lib/gcc/arm-none-eabi/4.8.3/../../../../arm-none-eabi/lib/armv7e-m\libstdc++.a(atexit_arm.o)
 .ARM.exidx.text._ZL23__gxx_exception_cleanup19_Unwind_Reason_CodeP21_Unwind_Control_Block
                0x08027a34        0x8 c:/program files (x86)/gnu tools arm embedded/4.8 2013q4/bin/../lib/gcc/arm-none-eabi/4.8.3/../../../../arm-none-eabi/lib/armv7e-m\libstdc++.a(eh_throw.o)
 .ARM.exidx.text.__cxa_throw
                0x08027a3c        0x8 c:/program files (x86)/gnu tools arm embedded/4.8 2013q4/bin/../lib/gcc/arm-none-eabi/4.8.3/../../../../arm-none-eabi/lib/armv7e-m\libstdc++.a(eh_throw.o)
 .ARM.exidx.text.__cxa_rethrow
                0x08027a44        0x8 c:/program files (x86)/gnu tools arm embedded/4.8 2013q4/bin/../lib/gcc/arm-none-eabi/4.8.3/../../../../arm-none-eabi/lib/armv7e-m\libstdc++.a(eh_throw.o)
 .ARM.exidx.text._Znwj
                0x08027a4c        0x8 c:/program files (x86)/gnu tools arm embedded/4.8 2013q4/bin/../lib/gcc/arm-none-eabi/4.8.3/../../../../arm-none-eabi/lib/armv7e-m\libstdc++.a(new_op.o)
 .ARM.exidx.text._ZL12read_sleb128PKhPl
                0x08027a54        0x8 c:/program files (x86)/gnu tools arm embedded/4.8 2013q4/bin/../lib/gcc/arm-none-eabi/4.8.3/../../../../arm-none-eabi/lib/armv7e-m\libstdc++.a(eh_personality.o)
 .ARM.exidx.text._ZL28read_encoded_value_with_basehjPKhPj
                0x08027a5c        0x8 c:/program files (x86)/gnu tools arm embedded/4.8 2013q4/bin/../lib/gcc/arm-none-eabi/4.8.3/../../../../arm-none-eabi/lib/armv7e-m\libstdc++.a(eh_personality.o)
 .ARM.exidx.text._ZL21base_of_encoded_valuehP15_Unwind_Context
                0x08027a64        0x8 c:/program files (x86)/gnu tools arm embedded/4.8 2013q4/bin/../lib/gcc/arm-none-eabi/4.8.3/../../../../arm-none-eabi/lib/armv7e-m\libstdc++.a(eh_personality.o)
 .ARM.exidx.text._ZL17parse_lsda_headerP15_Unwind_ContextPKhP16lsda_header_info
                0x08027a6c        0x8 c:/program files (x86)/gnu tools arm embedded/4.8 2013q4/bin/../lib/gcc/arm-none-eabi/4.8.3/../../../../arm-none-eabi/lib/armv7e-m\libstdc++.a(eh_personality.o)
 .ARM.exidx.text.__gxx_personality_v0
                0x08027a74        0x8 c:/program files (x86)/gnu tools arm embedded/4.8 2013q4/bin/../lib/gcc/arm-none-eabi/4.8.3/../../../../arm-none-eabi/lib/armv7e-m\libstdc++.a(eh_personality.o)
 .ARM.exidx.text.__cxa_allocate_exception
                0x08027a7c        0x8 c:/program files (x86)/gnu tools arm embedded/4.8 2013q4/bin/../lib/gcc/arm-none-eabi/4.8.3/../../../../arm-none-eabi/lib/armv7e-m\libstdc++.a(eh_alloc.o)
 .ARM.exidx.text.__cxa_free_exception
                0x08027a84        0x0 c:/program files (x86)/gnu tools arm embedded/4.8 2013q4/bin/../lib/gcc/arm-none-eabi/4.8.3/../../../../arm-none-eabi/lib/armv7e-m\libstdc++.a(eh_alloc.o)
                                  0x8 (size before relaxing)
 .ARM.exidx.text.__cxa_allocate_dependent_exception
                0x08027a84        0x0 c:/program files (x86)/gnu tools arm embedded/4.8 2013q4/bin/../lib/gcc/arm-none-eabi/4.8.3/../../../../arm-none-eabi/lib/armv7e-m\libstdc++.a(eh_alloc.o)
                                  0x8 (size before relaxing)
 .ARM.exidx.text.__cxa_free_dependent_exception
                0x08027a84        0x0 c:/program files (x86)/gnu tools arm embedded/4.8 2013q4/bin/../lib/gcc/arm-none-eabi/4.8.3/../../../../arm-none-eabi/lib/armv7e-m\libstdc++.a(eh_alloc.o)
                                  0x8 (size before relaxing)
 .ARM.exidx.text._ZNK10__cxxabiv120__function_type_info15__is_function_pEv
                0x08027a84        0x0 c:/program files (x86)/gnu tools arm embedded/4.8 2013q4/bin/../lib/gcc/arm-none-eabi/4.8.3/../../../../arm-none-eabi/lib/armv7e-m\libstdc++.a(function_type_info.o)
                                  0x8 (size before relaxing)
 .ARM.exidx.text._ZN10__cxxabiv120__function_type_infoD2Ev
                0x08027a84        0x8 c:/program files (x86)/gnu tools arm embedded/4.8 2013q4/bin/../lib/gcc/arm-none-eabi/4.8.3/../../../../arm-none-eabi/lib/armv7e-m\libstdc++.a(function_type_info.o)
 .ARM.exidx.text._ZN10__cxxabiv120__function_type_infoD0Ev
                0x08027a8c        0x0 c:/program files (x86)/gnu tools arm embedded/4.8 2013q4/bin/../lib/gcc/arm-none-eabi/4.8.3/../../../../arm-none-eabi/lib/armv7e-m\libstdc++.a(function_type_info.o)
                                  0x8 (size before relaxing)
 .ARM.exidx.text._ZN10__cxxabiv111__terminateEPFvvE
                0x08027a8c        0x8 c:/program files (x86)/gnu tools arm embedded/4.8 2013q4/bin/../lib/gcc/arm-none-eabi/4.8.3/../../../../arm-none-eabi/lib/armv7e-m\libstdc++.a(eh_terminate.o)
 .ARM.exidx.text._ZSt9terminatev
                0x08027a94        0x8 c:/program files (x86)/gnu tools arm embedded/4.8 2013q4/bin/../lib/gcc/arm-none-eabi/4.8.3/../../../../arm-none-eabi/lib/armv7e-m\libstdc++.a(eh_terminate.o)
 .ARM.exidx.text._ZN10__cxxabiv112__unexpectedEPFvvE
                0x08027a9c        0x8 c:/program files (x86)/gnu tools arm embedded/4.8 2013q4/bin/../lib/gcc/arm-none-eabi/4.8.3/../../../../arm-none-eabi/lib/armv7e-m\libstdc++.a(eh_terminate.o)
 .ARM.exidx.text._ZSt10unexpectedv
                0x08027aa4        0x8 c:/program files (x86)/gnu tools arm embedded/4.8 2013q4/bin/../lib/gcc/arm-none-eabi/4.8.3/../../../../arm-none-eabi/lib/armv7e-m\libstdc++.a(eh_terminate.o)
 .ARM.exidx.text._ZSt13set_terminatePFvvE
                0x08027aac        0x8 c:/program files (x86)/gnu tools arm embedded/4.8 2013q4/bin/../lib/gcc/arm-none-eabi/4.8.3/../../../../arm-none-eabi/lib/armv7e-m\libstdc++.a(eh_terminate.o)
 .ARM.exidx.text._ZSt14set_unexpectedPFvvE
                0x08027ab4        0x0 c:/program files (x86)/gnu tools arm embedded/4.8 2013q4/bin/../lib/gcc/arm-none-eabi/4.8.3/../../../../arm-none-eabi/lib/armv7e-m\libstdc++.a(eh_terminate.o)
                                  0x8 (size before relaxing)
 .ARM.exidx.text._ZNSt9type_infoD2Ev
                0x08027ab4        0x0 c:/program files (x86)/gnu tools arm embedded/4.8 2013q4/bin/../lib/gcc/arm-none-eabi/4.8.3/../../../../arm-none-eabi/lib/armv7e-m\libstdc++.a(tinfo.o)
                                  0x8 (size before relaxing)
 .ARM.exidx.text._ZNKSt9type_info14__is_pointer_pEv
                0x08027ab4        0x0 c:/program files (x86)/gnu tools arm embedded/4.8 2013q4/bin/../lib/gcc/arm-none-eabi/4.8.3/../../../../arm-none-eabi/lib/armv7e-m\libstdc++.a(tinfo.o)
                                  0x8 (size before relaxing)
 .ARM.exidx.text._ZNKSt9type_info15__is_function_pEv
                0x08027ab4        0x0 c:/program files (x86)/gnu tools arm embedded/4.8 2013q4/bin/../lib/gcc/arm-none-eabi/4.8.3/../../../../arm-none-eabi/lib/armv7e-m\libstdc++.a(tinfo.o)
                                  0x8 (size before relaxing)
 .ARM.exidx.text._ZNKSt9type_info11__do_upcastEPKN10__cxxabiv117__class_type_infoEPPv
                0x08027ab4        0x0 c:/program files (x86)/gnu tools arm embedded/4.8 2013q4/bin/../lib/gcc/arm-none-eabi/4.8.3/../../../../arm-none-eabi/lib/armv7e-m\libstdc++.a(tinfo.o)
                                  0x8 (size before relaxing)
 .ARM.exidx.text._ZNSt9type_infoD0Ev
                0x08027ab4        0x0 c:/program files (x86)/gnu tools arm embedded/4.8 2013q4/bin/../lib/gcc/arm-none-eabi/4.8.3/../../../../arm-none-eabi/lib/armv7e-m\libstdc++.a(tinfo.o)
                                  0x8 (size before relaxing)
 .ARM.exidx.text._ZNKSt9type_infoeqERKS_
                0x08027ab4        0x0 c:/program files (x86)/gnu tools arm embedded/4.8 2013q4/bin/../lib/gcc/arm-none-eabi/4.8.3/../../../../arm-none-eabi/lib/armv7e-m\libstdc++.a(tinfo.o)
                                  0x8 (size before relaxing)
 .ARM.exidx.text._ZNKSt9type_info10__do_catchEPKS_PPvj
                0x08027ab4        0x0 c:/program files (x86)/gnu tools arm embedded/4.8 2013q4/bin/../lib/gcc/arm-none-eabi/4.8.3/../../../../arm-none-eabi/lib/armv7e-m\libstdc++.a(tinfo.o)
                                  0x8 (size before relaxing)
 .ARM.exidx.text._ZNKSs4dataEv
                0x08027ab4        0x0 c:/program files (x86)/gnu tools arm embedded/4.8 2013q4/bin/../lib/gcc/arm-none-eabi/4.8.3/../../../../arm-none-eabi/lib/armv7e-m\libstdc++.a(string-inst.o)
                                  0x8 (size before relaxing)
 .ARM.exidx.text._ZNKSs6lengthEv
                0x08027ab4        0x0 c:/program files (x86)/gnu tools arm embedded/4.8 2013q4/bin/../lib/gcc/arm-none-eabi/4.8.3/../../../../arm-none-eabi/lib/armv7e-m\libstdc++.a(string-inst.o)
                                  0x8 (size before relaxing)
 .ARM.exidx.text._ZNKSs7_M_dataEv
                0x08027ab4        0x0 c:/program files (x86)/gnu tools arm embedded/4.8 2013q4/bin/../lib/gcc/arm-none-eabi/4.8.3/../../../../arm-none-eabi/lib/armv7e-m\libstdc++.a(string-inst.o)
                                  0x8 (size before relaxing)
 .ARM.exidx.text._ZNSs7_M_dataEPc
                0x08027ab4        0x0 c:/program files (x86)/gnu tools arm embedded/4.8 2013q4/bin/../lib/gcc/arm-none-eabi/4.8.3/../../../../arm-none-eabi/lib/armv7e-m\libstdc++.a(string-inst.o)
                                  0x8 (size before relaxing)
 .ARM.exidx.text._ZNKSs6_M_repEv
                0x08027ab4        0x0 c:/program files (x86)/gnu tools arm embedded/4.8 2013q4/bin/../lib/gcc/arm-none-eabi/4.8.3/../../../../arm-none-eabi/lib/armv7e-m\libstdc++.a(string-inst.o)
                                  0x8 (size before relaxing)
 .ARM.exidx.text._ZNKSs9_M_ibeginEv
                0x08027ab4        0x0 c:/program files (x86)/gnu tools arm embedded/4.8 2013q4/bin/../lib/gcc/arm-none-eabi/4.8.3/../../../../arm-none-eabi/lib/armv7e-m\libstdc++.a(string-inst.o)
                                  0x8 (size before relaxing)
 .ARM.exidx.text._ZNKSs7_M_iendEv
                0x08027ab4        0x0 c:/program files (x86)/gnu tools arm embedded/4.8 2013q4/bin/../lib/gcc/arm-none-eabi/4.8.3/../../../../arm-none-eabi/lib/armv7e-m\libstdc++.a(string-inst.o)
                                  0x8 (size before relaxing)
 .ARM.exidx.text._ZNKSs8_M_checkEjPKc
                0x08027ab4        0x8 c:/program files (x86)/gnu tools arm embedded/4.8 2013q4/bin/../lib/gcc/arm-none-eabi/4.8.3/../../../../arm-none-eabi/lib/armv7e-m\libstdc++.a(string-inst.o)
 .ARM.exidx.text._ZNKSs15_M_check_lengthEjjPKc
                0x08027abc        0x8 c:/program files (x86)/gnu tools arm embedded/4.8 2013q4/bin/../lib/gcc/arm-none-eabi/4.8.3/../../../../arm-none-eabi/lib/armv7e-m\libstdc++.a(string-inst.o)
 .ARM.exidx.text._ZNKSs8_M_limitEjj
                0x08027ac4        0x8 c:/program files (x86)/gnu tools arm embedded/4.8 2013q4/bin/../lib/gcc/arm-none-eabi/4.8.3/../../../../arm-none-eabi/lib/armv7e-m\libstdc++.a(string-inst.o)
 .ARM.exidx.text._ZNKSs11_M_disjunctEPKc
                0x08027acc        0x0 c:/program files (x86)/gnu tools arm embedded/4.8 2013q4/bin/../lib/gcc/arm-none-eabi/4.8.3/../../../../arm-none-eabi/lib/armv7e-m\libstdc++.a(string-inst.o)
                                  0x8 (size before relaxing)
 .ARM.exidx.text._ZNSs7_M_copyEPcPKcj
                0x08027acc        0x0 c:/program files (x86)/gnu tools arm embedded/4.8 2013q4/bin/../lib/gcc/arm-none-eabi/4.8.3/../../../../arm-none-eabi/lib/armv7e-m\libstdc++.a(string-inst.o)
                                  0x8 (size before relaxing)
 .ARM.exidx.text._ZNSs7_M_moveEPcPKcj
                0x08027acc        0x0 c:/program files (x86)/gnu tools arm embedded/4.8 2013q4/bin/../lib/gcc/arm-none-eabi/4.8.3/../../../../arm-none-eabi/lib/armv7e-m\libstdc++.a(string-inst.o)
                                  0x8 (size before relaxing)
 .ARM.exidx.text._ZNSs9_M_assignEPcjc
                0x08027acc        0x0 c:/program files (x86)/gnu tools arm embedded/4.8 2013q4/bin/../lib/gcc/arm-none-eabi/4.8.3/../../../../arm-none-eabi/lib/armv7e-m\libstdc++.a(string-inst.o)
                                  0x8 (size before relaxing)
 .ARM.exidx.text._ZNSs13_S_copy_charsEPcN9__gnu_cxx17__normal_iteratorIS_SsEES2_
                0x08027acc        0x0 c:/program files (x86)/gnu tools arm embedded/4.8 2013q4/bin/../lib/gcc/arm-none-eabi/4.8.3/../../../../arm-none-eabi/lib/armv7e-m\libstdc++.a(string-inst.o)
                                  0x8 (size before relaxing)
 .ARM.exidx.text._ZNSs13_S_copy_charsEPcN9__gnu_cxx17__normal_iteratorIPKcSsEES4_
                0x08027acc        0x0 c:/program files (x86)/gnu tools arm embedded/4.8 2013q4/bin/../lib/gcc/arm-none-eabi/4.8.3/../../../../arm-none-eabi/lib/armv7e-m\libstdc++.a(string-inst.o)
                                  0x8 (size before relaxing)
 .ARM.exidx.text._ZNSs13_S_copy_charsEPcS_S_
                0x08027acc        0x0 c:/program files (x86)/gnu tools arm embedded/4.8 2013q4/bin/../lib/gcc/arm-none-eabi/4.8.3/../../../../arm-none-eabi/lib/armv7e-m\libstdc++.a(string-inst.o)
                                  0x8 (size before relaxing)
 .ARM.exidx.text._ZNSs13_S_copy_charsEPcPKcS1_
                0x08027acc        0x0 c:/program files (x86)/gnu tools arm embedded/4.8 2013q4/bin/../lib/gcc/arm-none-eabi/4.8.3/../../../../arm-none-eabi/lib/armv7e-m\libstdc++.a(string-inst.o)
                                  0x8 (size before relaxing)
 .ARM.exidx.text._ZNSs10_S_compareEjj
                0x08027acc        0x0 c:/program files (x86)/gnu tools arm embedded/4.8 2013q4/bin/../lib/gcc/arm-none-eabi/4.8.3/../../../../arm-none-eabi/lib/armv7e-m\libstdc++.a(string-inst.o)
                                  0x8 (size before relaxing)
 .ARM.exidx.text._ZNSs12_S_empty_repEv
                0x08027acc        0x0 c:/program files (x86)/gnu tools arm embedded/4.8 2013q4/bin/../lib/gcc/arm-none-eabi/4.8.3/../../../../arm-none-eabi/lib/armv7e-m\libstdc++.a(string-inst.o)
                                  0x8 (size before relaxing)
 .ARM.exidx.text._ZNSsC2Ev
                0x08027acc        0x0 c:/program files (x86)/gnu tools arm embedded/4.8 2013q4/bin/../lib/gcc/arm-none-eabi/4.8.3/../../../../arm-none-eabi/lib/armv7e-m\libstdc++.a(string-inst.o)
                                  0x8 (size before relaxing)
 .ARM.exidx.text._ZNSsC2EOSs
                0x08027acc        0x0 c:/program files (x86)/gnu tools arm embedded/4.8 2013q4/bin/../lib/gcc/arm-none-eabi/4.8.3/../../../../arm-none-eabi/lib/armv7e-m\libstdc++.a(string-inst.o)
                                  0x8 (size before relaxing)
 .ARM.exidx.text._ZNKSs5beginEv
                0x08027acc        0x0 c:/program files (x86)/gnu tools arm embedded/4.8 2013q4/bin/../lib/gcc/arm-none-eabi/4.8.3/../../../../arm-none-eabi/lib/armv7e-m\libstdc++.a(string-inst.o)
                                  0x8 (size before relaxing)
 .ARM.exidx.text._ZNKSs3endEv
                0x08027acc        0x0 c:/program files (x86)/gnu tools arm embedded/4.8 2013q4/bin/../lib/gcc/arm-none-eabi/4.8.3/../../../../arm-none-eabi/lib/armv7e-m\libstdc++.a(string-inst.o)
                                  0x8 (size before relaxing)
 .ARM.exidx.text._ZNKSs6rbeginEv
                0x08027acc        0x0 c:/program files (x86)/gnu tools arm embedded/4.8 2013q4/bin/../lib/gcc/arm-none-eabi/4.8.3/../../../../arm-none-eabi/lib/armv7e-m\libstdc++.a(string-inst.o)
                                  0x8 (size before relaxing)
 .ARM.exidx.text._ZNKSs4rendEv
                0x08027acc        0x0 c:/program files (x86)/gnu tools arm embedded/4.8 2013q4/bin/../lib/gcc/arm-none-eabi/4.8.3/../../../../arm-none-eabi/lib/armv7e-m\libstdc++.a(string-inst.o)
                                  0x8 (size before relaxing)
 .ARM.exidx.text._ZNKSs6cbeginEv
                0x08027acc        0x0 c:/program files (x86)/gnu tools arm embedded/4.8 2013q4/bin/../lib/gcc/arm-none-eabi/4.8.3/../../../../arm-none-eabi/lib/armv7e-m\libstdc++.a(string-inst.o)
                                  0x8 (size before relaxing)
 .ARM.exidx.text._ZNKSs4cendEv
                0x08027acc        0x0 c:/program files (x86)/gnu tools arm embedded/4.8 2013q4/bin/../lib/gcc/arm-none-eabi/4.8.3/../../../../arm-none-eabi/lib/armv7e-m\libstdc++.a(string-inst.o)
                                  0x8 (size before relaxing)
 .ARM.exidx.text._ZNKSs7crbeginEv
                0x08027acc        0x0 c:/program files (x86)/gnu tools arm embedded/4.8 2013q4/bin/../lib/gcc/arm-none-eabi/4.8.3/../../../../arm-none-eabi/lib/armv7e-m\libstdc++.a(string-inst.o)
                                  0x8 (size before relaxing)
 .ARM.exidx.text._ZNKSs5crendEv
                0x08027acc        0x0 c:/program files (x86)/gnu tools arm embedded/4.8 2013q4/bin/../lib/gcc/arm-none-eabi/4.8.3/../../../../arm-none-eabi/lib/armv7e-m\libstdc++.a(string-inst.o)
                                  0x8 (size before relaxing)
 .ARM.exidx.text._ZNKSs4sizeEv
                0x08027acc        0x0 c:/program files (x86)/gnu tools arm embedded/4.8 2013q4/bin/../lib/gcc/arm-none-eabi/4.8.3/../../../../arm-none-eabi/lib/armv7e-m\libstdc++.a(string-inst.o)
                                  0x8 (size before relaxing)
 .ARM.exidx.text._ZNKSs8max_sizeEv
                0x08027acc        0x0 c:/program files (x86)/gnu tools arm embedded/4.8 2013q4/bin/../lib/gcc/arm-none-eabi/4.8.3/../../../../arm-none-eabi/lib/armv7e-m\libstdc++.a(string-inst.o)
                                  0x8 (size before relaxing)
 .ARM.exidx.text._ZNKSs8capacityEv
                0x08027acc        0x0 c:/program files (x86)/gnu tools arm embedded/4.8 2013q4/bin/../lib/gcc/arm-none-eabi/4.8.3/../../../../arm-none-eabi/lib/armv7e-m\libstdc++.a(string-inst.o)
                                  0x8 (size before relaxing)
 .ARM.exidx.text._ZNKSs5emptyEv
                0x08027acc        0x0 c:/program files (x86)/gnu tools arm embedded/4.8 2013q4/bin/../lib/gcc/arm-none-eabi/4.8.3/../../../../arm-none-eabi/lib/armv7e-m\libstdc++.a(string-inst.o)
                                  0x8 (size before relaxing)
 .ARM.exidx.text._ZNKSsixEj
                0x08027acc        0x0 c:/program files (x86)/gnu tools arm embedded/4.8 2013q4/bin/../lib/gcc/arm-none-eabi/4.8.3/../../../../arm-none-eabi/lib/armv7e-m\libstdc++.a(string-inst.o)
                                  0x8 (size before relaxing)
 .ARM.exidx.text._ZNKSs2atEj
                0x08027acc        0x8 c:/program files (x86)/gnu tools arm embedded/4.8 2013q4/bin/../lib/gcc/arm-none-eabi/4.8.3/../../../../arm-none-eabi/lib/armv7e-m\libstdc++.a(string-inst.o)
 .ARM.exidx.text._ZNKSs5frontEv
                0x08027ad4        0x8 c:/program files (x86)/gnu tools arm embedded/4.8 2013q4/bin/../lib/gcc/arm-none-eabi/4.8.3/../../../../arm-none-eabi/lib/armv7e-m\libstdc++.a(string-inst.o)
 .ARM.exidx.text._ZNKSs4backEv
                0x08027adc        0x0 c:/program files (x86)/gnu tools arm embedded/4.8 2013q4/bin/../lib/gcc/arm-none-eabi/4.8.3/../../../../arm-none-eabi/lib/armv7e-m\libstdc++.a(string-inst.o)
                                  0x8 (size before relaxing)
 .ARM.exidx.text._ZNKSs4copyEPcjj
                0x08027adc        0x8 c:/program files (x86)/gnu tools arm embedded/4.8 2013q4/bin/../lib/gcc/arm-none-eabi/4.8.3/../../../../arm-none-eabi/lib/armv7e-m\libstdc++.a(string-inst.o)
 .ARM.exidx.text._ZNSs4swapERSs
                0x08027ae4        0x8 c:/program files (x86)/gnu tools arm embedded/4.8 2013q4/bin/../lib/gcc/arm-none-eabi/4.8.3/../../../../arm-none-eabi/lib/armv7e-m\libstdc++.a(string-inst.o)
 .ARM.exidx.text._ZNSsaSEOSs
                0x08027aec        0x8 c:/program files (x86)/gnu tools arm embedded/4.8 2013q4/bin/../lib/gcc/arm-none-eabi/4.8.3/../../../../arm-none-eabi/lib/armv7e-m\libstdc++.a(string-inst.o)
 .ARM.exidx.text._ZNSs6assignEOSs
                0x08027af4        0x0 c:/program files (x86)/gnu tools arm embedded/4.8 2013q4/bin/../lib/gcc/arm-none-eabi/4.8.3/../../../../arm-none-eabi/lib/armv7e-m\libstdc++.a(string-inst.o)
                                  0x8 (size before relaxing)
 .ARM.exidx.text._ZNKSs5c_strEv
                0x08027af4        0x8 c:/program files (x86)/gnu tools arm embedded/4.8 2013q4/bin/../lib/gcc/arm-none-eabi/4.8.3/../../../../arm-none-eabi/lib/armv7e-m\libstdc++.a(string-inst.o)
 .ARM.exidx.text._ZNKSs13get_allocatorEv
                0x08027afc        0x0 c:/program files (x86)/gnu tools arm embedded/4.8 2013q4/bin/../lib/gcc/arm-none-eabi/4.8.3/../../../../arm-none-eabi/lib/armv7e-m\libstdc++.a(string-inst.o)
                                  0x8 (size before relaxing)
 .ARM.exidx.text._ZNKSs4findEPKcjj
                0x08027afc        0x0 c:/program files (x86)/gnu tools arm embedded/4.8 2013q4/bin/../lib/gcc/arm-none-eabi/4.8.3/../../../../arm-none-eabi/lib/armv7e-m\libstdc++.a(string-inst.o)
                                  0x8 (size before relaxing)
 .ARM.exidx.text._ZNKSs4findERKSsj
                0x08027afc        0x8 c:/program files (x86)/gnu tools arm embedded/4.8 2013q4/bin/../lib/gcc/arm-none-eabi/4.8.3/../../../../arm-none-eabi/lib/armv7e-m\libstdc++.a(string-inst.o)
 .ARM.exidx.text._ZNKSs4findEPKcj
                0x08027b04        0x8 c:/program files (x86)/gnu tools arm embedded/4.8 2013q4/bin/../lib/gcc/arm-none-eabi/4.8.3/../../../../arm-none-eabi/lib/armv7e-m\libstdc++.a(string-inst.o)
 .ARM.exidx.text._ZNKSs4findEcj
                0x08027b0c        0x8 c:/program files (x86)/gnu tools arm embedded/4.8 2013q4/bin/../lib/gcc/arm-none-eabi/4.8.3/../../../../arm-none-eabi/lib/armv7e-m\libstdc++.a(string-inst.o)
 .ARM.exidx.text._ZNKSs5rfindEPKcjj
                0x08027b14        0x0 c:/program files (x86)/gnu tools arm embedded/4.8 2013q4/bin/../lib/gcc/arm-none-eabi/4.8.3/../../../../arm-none-eabi/lib/armv7e-m\libstdc++.a(string-inst.o)
                                  0x8 (size before relaxing)
 .ARM.exidx.text._ZNKSs5rfindERKSsj
                0x08027b14        0x8 c:/program files (x86)/gnu tools arm embedded/4.8 2013q4/bin/../lib/gcc/arm-none-eabi/4.8.3/../../../../arm-none-eabi/lib/armv7e-m\libstdc++.a(string-inst.o)
 .ARM.exidx.text._ZNKSs5rfindEPKcj
                0x08027b1c        0x8 c:/program files (x86)/gnu tools arm embedded/4.8 2013q4/bin/../lib/gcc/arm-none-eabi/4.8.3/../../../../arm-none-eabi/lib/armv7e-m\libstdc++.a(string-inst.o)
 .ARM.exidx.text._ZNKSs5rfindEcj
                0x08027b24        0x8 c:/program files (x86)/gnu tools arm embedded/4.8 2013q4/bin/../lib/gcc/arm-none-eabi/4.8.3/../../../../arm-none-eabi/lib/armv7e-m\libstdc++.a(string-inst.o)
 .ARM.exidx.text._ZNKSs13find_first_ofEPKcjj
                0x08027b2c        0x0 c:/program files (x86)/gnu tools arm embedded/4.8 2013q4/bin/../lib/gcc/arm-none-eabi/4.8.3/../../../../arm-none-eabi/lib/armv7e-m\libstdc++.a(string-inst.o)
                                  0x8 (size before relaxing)
 .ARM.exidx.text._ZNKSs13find_first_ofERKSsj
                0x08027b2c        0x8 c:/program files (x86)/gnu tools arm embedded/4.8 2013q4/bin/../lib/gcc/arm-none-eabi/4.8.3/../../../../arm-none-eabi/lib/armv7e-m\libstdc++.a(string-inst.o)
 .ARM.exidx.text._ZNKSs13find_first_ofEPKcj
                0x08027b34        0x8 c:/program files (x86)/gnu tools arm embedded/4.8 2013q4/bin/../lib/gcc/arm-none-eabi/4.8.3/../../../../arm-none-eabi/lib/armv7e-m\libstdc++.a(string-inst.o)
 .ARM.exidx.text._ZNKSs13find_first_ofEcj
                0x08027b3c        0x8 c:/program files (x86)/gnu tools arm embedded/4.8 2013q4/bin/../lib/gcc/arm-none-eabi/4.8.3/../../../../arm-none-eabi/lib/armv7e-m\libstdc++.a(string-inst.o)
 .ARM.exidx.text._ZNKSs12find_last_ofEPKcjj
                0x08027b44        0x0 c:/program files (x86)/gnu tools arm embedded/4.8 2013q4/bin/../lib/gcc/arm-none-eabi/4.8.3/../../../../arm-none-eabi/lib/armv7e-m\libstdc++.a(string-inst.o)
                                  0x8 (size before relaxing)
 .ARM.exidx.text._ZNKSs12find_last_ofERKSsj
                0x08027b44        0x8 c:/program files (x86)/gnu tools arm embedded/4.8 2013q4/bin/../lib/gcc/arm-none-eabi/4.8.3/../../../../arm-none-eabi/lib/armv7e-m\libstdc++.a(string-inst.o)
 .ARM.exidx.text._ZNKSs12find_last_ofEPKcj
                0x08027b4c        0x8 c:/program files (x86)/gnu tools arm embedded/4.8 2013q4/bin/../lib/gcc/arm-none-eabi/4.8.3/../../../../arm-none-eabi/lib/armv7e-m\libstdc++.a(string-inst.o)
 .ARM.exidx.text._ZNKSs12find_last_ofEcj
                0x08027b54        0x8 c:/program files (x86)/gnu tools arm embedded/4.8 2013q4/bin/../lib/gcc/arm-none-eabi/4.8.3/../../../../arm-none-eabi/lib/armv7e-m\libstdc++.a(string-inst.o)
 .ARM.exidx.text._ZNKSs17find_first_not_ofEPKcjj
                0x08027b5c        0x0 c:/program files (x86)/gnu tools arm embedded/4.8 2013q4/bin/../lib/gcc/arm-none-eabi/4.8.3/../../../../arm-none-eabi/lib/armv7e-m\libstdc++.a(string-inst.o)
                                  0x8 (size before relaxing)
 .ARM.exidx.text._ZNKSs17find_first_not_ofERKSsj
                0x08027b5c        0x8 c:/program files (x86)/gnu tools arm embedded/4.8 2013q4/bin/../lib/gcc/arm-none-eabi/4.8.3/../../../../arm-none-eabi/lib/armv7e-m\libstdc++.a(string-inst.o)
 .ARM.exidx.text._ZNKSs17find_first_not_ofEPKcj
                0x08027b64        0x8 c:/program files (x86)/gnu tools arm embedded/4.8 2013q4/bin/../lib/gcc/arm-none-eabi/4.8.3/../../../../arm-none-eabi/lib/armv7e-m\libstdc++.a(string-inst.o)
 .ARM.exidx.text._ZNKSs17find_first_not_ofEcj
                0x08027b6c        0x8 c:/program files (x86)/gnu tools arm embedded/4.8 2013q4/bin/../lib/gcc/arm-none-eabi/4.8.3/../../../../arm-none-eabi/lib/armv7e-m\libstdc++.a(string-inst.o)
 .ARM.exidx.text._ZNKSs16find_last_not_ofEPKcjj
                0x08027b74        0x0 c:/program files (x86)/gnu tools arm embedded/4.8 2013q4/bin/../lib/gcc/arm-none-eabi/4.8.3/../../../../arm-none-eabi/lib/armv7e-m\libstdc++.a(string-inst.o)
                                  0x8 (size before relaxing)
 .ARM.exidx.text._ZNKSs16find_last_not_ofERKSsj
                0x08027b74        0x8 c:/program files (x86)/gnu tools arm embedded/4.8 2013q4/bin/../lib/gcc/arm-none-eabi/4.8.3/../../../../arm-none-eabi/lib/armv7e-m\libstdc++.a(string-inst.o)
 .ARM.exidx.text._ZNKSs16find_last_not_ofEPKcj
                0x08027b7c        0x8 c:/program files (x86)/gnu tools arm embedded/4.8 2013q4/bin/../lib/gcc/arm-none-eabi/4.8.3/../../../../arm-none-eabi/lib/armv7e-m\libstdc++.a(string-inst.o)
 .ARM.exidx.text._ZNKSs16find_last_not_ofEcj
                0x08027b84        0x8 c:/program files (x86)/gnu tools arm embedded/4.8 2013q4/bin/../lib/gcc/arm-none-eabi/4.8.3/../../../../arm-none-eabi/lib/armv7e-m\libstdc++.a(string-inst.o)
 .ARM.exidx.text._ZNKSs7compareERKSs
                0x08027b8c        0x0 c:/program files (x86)/gnu tools arm embedded/4.8 2013q4/bin/../lib/gcc/arm-none-eabi/4.8.3/../../../../arm-none-eabi/lib/armv7e-m\libstdc++.a(string-inst.o)
                                  0x8 (size before relaxing)
 .ARM.exidx.text._ZNKSs7compareEjjRKSs
                0x08027b8c        0x8 c:/program files (x86)/gnu tools arm embedded/4.8 2013q4/bin/../lib/gcc/arm-none-eabi/4.8.3/../../../../arm-none-eabi/lib/armv7e-m\libstdc++.a(string-inst.o)
 .ARM.exidx.text._ZNKSs7compareEjjRKSsjj
                0x08027b94        0x8 c:/program files (x86)/gnu tools arm embedded/4.8 2013q4/bin/../lib/gcc/arm-none-eabi/4.8.3/../../../../arm-none-eabi/lib/armv7e-m\libstdc++.a(string-inst.o)
 .ARM.exidx.text._ZNKSs7compareEPKc
                0x08027b9c        0x8 c:/program files (x86)/gnu tools arm embedded/4.8 2013q4/bin/../lib/gcc/arm-none-eabi/4.8.3/../../../../arm-none-eabi/lib/armv7e-m\libstdc++.a(string-inst.o)
 .ARM.exidx.text._ZNKSs7compareEjjPKc
                0x08027ba4        0x8 c:/program files (x86)/gnu tools arm embedded/4.8 2013q4/bin/../lib/gcc/arm-none-eabi/4.8.3/../../../../arm-none-eabi/lib/armv7e-m\libstdc++.a(string-inst.o)
 .ARM.exidx.text._ZNKSs7compareEjjPKcj
                0x08027bac        0x8 c:/program files (x86)/gnu tools arm embedded/4.8 2013q4/bin/../lib/gcc/arm-none-eabi/4.8.3/../../../../arm-none-eabi/lib/armv7e-m\libstdc++.a(string-inst.o)
 .ARM.exidx.text._ZNSs12_Alloc_hiderC2EPcRKSaIcE
                0x08027bb4        0x8 c:/program files (x86)/gnu tools arm embedded/4.8 2013q4/bin/../lib/gcc/arm-none-eabi/4.8.3/../../../../arm-none-eabi/lib/armv7e-m\libstdc++.a(string-inst.o)
 .ARM.exidx.text._ZNSs4_Rep12_S_empty_repEv
                0x08027bbc        0x0 c:/program files (x86)/gnu tools arm embedded/4.8 2013q4/bin/../lib/gcc/arm-none-eabi/4.8.3/../../../../arm-none-eabi/lib/armv7e-m\libstdc++.a(string-inst.o)
                                  0x8 (size before relaxing)
 .ARM.exidx.text._ZNKSs4_Rep12_M_is_leakedEv
                0x08027bbc        0x0 c:/program files (x86)/gnu tools arm embedded/4.8 2013q4/bin/../lib/gcc/arm-none-eabi/4.8.3/../../../../arm-none-eabi/lib/armv7e-m\libstdc++.a(string-inst.o)
                                  0x8 (size before relaxing)
 .ARM.exidx.text._ZNKSs4_Rep12_M_is_sharedEv
                0x08027bbc        0x0 c:/program files (x86)/gnu tools arm embedded/4.8 2013q4/bin/../lib/gcc/arm-none-eabi/4.8.3/../../../../arm-none-eabi/lib/armv7e-m\libstdc++.a(string-inst.o)
                                  0x8 (size before relaxing)
 .ARM.exidx.text._ZNSs4_Rep13_M_set_leakedEv
                0x08027bbc        0x0 c:/program files (x86)/gnu tools arm embedded/4.8 2013q4/bin/../lib/gcc/arm-none-eabi/4.8.3/../../../../arm-none-eabi/lib/armv7e-m\libstdc++.a(string-inst.o)
                                  0x8 (size before relaxing)
 .ARM.exidx.text._ZNSs4_Rep15_M_set_sharableEv
                0x08027bbc        0x0 c:/program files (x86)/gnu tools arm embedded/4.8 2013q4/bin/../lib/gcc/arm-none-eabi/4.8.3/../../../../arm-none-eabi/lib/armv7e-m\libstdc++.a(string-inst.o)
                                  0x8 (size before relaxing)
 .ARM.exidx.text._ZNSs4_Rep26_M_set_length_and_sharableEj
                0x08027bbc        0x0 c:/program files (x86)/gnu tools arm embedded/4.8 2013q4/bin/../lib/gcc/arm-none-eabi/4.8.3/../../../../arm-none-eabi/lib/armv7e-m\libstdc++.a(string-inst.o)
                                  0x8 (size before relaxing)
 .ARM.exidx.text._ZNSs4_Rep10_M_refdataEv
                0x08027bbc        0x0 c:/program files (x86)/gnu tools arm embedded/4.8 2013q4/bin/../lib/gcc/arm-none-eabi/4.8.3/../../../../arm-none-eabi/lib/armv7e-m\libstdc++.a(string-inst.o)
                                  0x8 (size before relaxing)
 .ARM.exidx.text._ZNSs4_Rep9_S_createEjjRKSaIcE
                0x08027bbc        0x8 c:/program files (x86)/gnu tools arm embedded/4.8 2013q4/bin/../lib/gcc/arm-none-eabi/4.8.3/../../../../arm-none-eabi/lib/armv7e-m\libstdc++.a(string-inst.o)
 .ARM.exidx.text._ZNSs12_S_constructEjcRKSaIcE
                0x08027bc4        0x8 c:/program files (x86)/gnu tools arm embedded/4.8 2013q4/bin/../lib/gcc/arm-none-eabi/4.8.3/../../../../arm-none-eabi/lib/armv7e-m\libstdc++.a(string-inst.o)
 .ARM.exidx.text._ZNSsC2ERKSaIcE
                0x08027bcc        0x8 c:/program files (x86)/gnu tools arm embedded/4.8 2013q4/bin/../lib/gcc/arm-none-eabi/4.8.3/../../../../arm-none-eabi/lib/armv7e-m\libstdc++.a(string-inst.o)
 .ARM.exidx.text._ZNSsC2EjcRKSaIcE
                0x08027bd4        0x0 c:/program files (x86)/gnu tools arm embedded/4.8 2013q4/bin/../lib/gcc/arm-none-eabi/4.8.3/../../../../arm-none-eabi/lib/armv7e-m\libstdc++.a(string-inst.o)
                                  0x8 (size before relaxing)
 .ARM.exidx.text._ZNSs18_S_construct_aux_2EjcRKSaIcE
                0x08027bd4        0x8 c:/program files (x86)/gnu tools arm embedded/4.8 2013q4/bin/../lib/gcc/arm-none-eabi/4.8.3/../../../../arm-none-eabi/lib/armv7e-m\libstdc++.a(string-inst.o)
 .ARM.exidx.text._ZNSs4_Rep10_M_destroyERKSaIcE
                0x08027bdc        0x8 c:/program files (x86)/gnu tools arm embedded/4.8 2013q4/bin/../lib/gcc/arm-none-eabi/4.8.3/../../../../arm-none-eabi/lib/armv7e-m\libstdc++.a(string-inst.o)
 .ARM.exidx.text.unlikely._ZNSs4_Rep10_M_disposeERKSaIcE.part.11
                0x08027be4        0x0 c:/program files (x86)/gnu tools arm embedded/4.8 2013q4/bin/../lib/gcc/arm-none-eabi/4.8.3/../../../../arm-none-eabi/lib/armv7e-m\libstdc++.a(string-inst.o)
                                  0x8 (size before relaxing)
 .ARM.exidx.text._ZNSs4_Rep10_M_disposeERKSaIcE
                0x08027be4        0x0 c:/program files (x86)/gnu tools arm embedded/4.8 2013q4/bin/../lib/gcc/arm-none-eabi/4.8.3/../../../../arm-none-eabi/lib/armv7e-m\libstdc++.a(string-inst.o)
                                  0x8 (size before relaxing)
 .ARM.exidx.text._ZNSsD2Ev
                0x08027be4        0x0 c:/program files (x86)/gnu tools arm embedded/4.8 2013q4/bin/../lib/gcc/arm-none-eabi/4.8.3/../../../../arm-none-eabi/lib/armv7e-m\libstdc++.a(string-inst.o)
                                  0x8 (size before relaxing)
 .ARM.exidx.text._ZNSs9_M_mutateEjjj
                0x08027be4        0x8 c:/program files (x86)/gnu tools arm embedded/4.8 2013q4/bin/../lib/gcc/arm-none-eabi/4.8.3/../../../../arm-none-eabi/lib/armv7e-m\libstdc++.a(string-inst.o)
 .ARM.exidx.text._ZNSs12_M_leak_hardEv
                0x08027bec        0x8 c:/program files (x86)/gnu tools arm embedded/4.8 2013q4/bin/../lib/gcc/arm-none-eabi/4.8.3/../../../../arm-none-eabi/lib/armv7e-m\libstdc++.a(string-inst.o)
 .ARM.exidx.text._ZNSs7_M_leakEv
                0x08027bf4        0x8 c:/program files (x86)/gnu tools arm embedded/4.8 2013q4/bin/../lib/gcc/arm-none-eabi/4.8.3/../../../../arm-none-eabi/lib/armv7e-m\libstdc++.a(string-inst.o)
 .ARM.exidx.text._ZNSs5beginEv
                0x08027bfc        0x8 c:/program files (x86)/gnu tools arm embedded/4.8 2013q4/bin/../lib/gcc/arm-none-eabi/4.8.3/../../../../arm-none-eabi/lib/armv7e-m\libstdc++.a(string-inst.o)
 .ARM.exidx.text._ZNSs4rendEv
                0x08027c04        0x8 c:/program files (x86)/gnu tools arm embedded/4.8 2013q4/bin/../lib/gcc/arm-none-eabi/4.8.3/../../../../arm-none-eabi/lib/armv7e-m\libstdc++.a(string-inst.o)
 .ARM.exidx.text._ZNSs3endEv
                0x08027c0c        0x8 c:/program files (x86)/gnu tools arm embedded/4.8 2013q4/bin/../lib/gcc/arm-none-eabi/4.8.3/../../../../arm-none-eabi/lib/armv7e-m\libstdc++.a(string-inst.o)
 .ARM.exidx.text._ZNSsixEj
                0x08027c14        0x8 c:/program files (x86)/gnu tools arm embedded/4.8 2013q4/bin/../lib/gcc/arm-none-eabi/4.8.3/../../../../arm-none-eabi/lib/armv7e-m\libstdc++.a(string-inst.o)
 .ARM.exidx.text._ZNSs5frontEv
                0x08027c1c        0x8 c:/program files (x86)/gnu tools arm embedded/4.8 2013q4/bin/../lib/gcc/arm-none-eabi/4.8.3/../../../../arm-none-eabi/lib/armv7e-m\libstdc++.a(string-inst.o)
 .ARM.exidx.text._ZNSs4backEv
                0x08027c24        0x8 c:/program files (x86)/gnu tools arm embedded/4.8 2013q4/bin/../lib/gcc/arm-none-eabi/4.8.3/../../../../arm-none-eabi/lib/armv7e-m\libstdc++.a(string-inst.o)
 .ARM.exidx.text._ZNSs2atEj
                0x08027c2c        0x0 c:/program files (x86)/gnu tools arm embedded/4.8 2013q4/bin/../lib/gcc/arm-none-eabi/4.8.3/../../../../arm-none-eabi/lib/armv7e-m\libstdc++.a(string-inst.o)
                                  0x8 (size before relaxing)
 .ARM.exidx.text._ZNSs6rbeginEv
                0x08027c2c        0x8 c:/program files (x86)/gnu tools arm embedded/4.8 2013q4/bin/../lib/gcc/arm-none-eabi/4.8.3/../../../../arm-none-eabi/lib/armv7e-m\libstdc++.a(string-inst.o)
 .ARM.exidx.text._ZNSs5clearEv
                0x08027c34        0x8 c:/program files (x86)/gnu tools arm embedded/4.8 2013q4/bin/../lib/gcc/arm-none-eabi/4.8.3/../../../../arm-none-eabi/lib/armv7e-m\libstdc++.a(string-inst.o)
 .ARM.exidx.text._ZNSs5eraseEjj
                0x08027c3c        0x8 c:/program files (x86)/gnu tools arm embedded/4.8 2013q4/bin/../lib/gcc/arm-none-eabi/4.8.3/../../../../arm-none-eabi/lib/armv7e-m\libstdc++.a(string-inst.o)
 .ARM.exidx.text._ZNSs5eraseEN9__gnu_cxx17__normal_iteratorIPcSsEE
                0x08027c44        0x0 c:/program files (x86)/gnu tools arm embedded/4.8 2013q4/bin/../lib/gcc/arm-none-eabi/4.8.3/../../../../arm-none-eabi/lib/armv7e-m\libstdc++.a(string-inst.o)
                                  0x8 (size before relaxing)
 .ARM.exidx.text._ZNSs5eraseEN9__gnu_cxx17__normal_iteratorIPcSsEES2_
                0x08027c44        0x0 c:/program files (x86)/gnu tools arm embedded/4.8 2013q4/bin/../lib/gcc/arm-none-eabi/4.8.3/../../../../arm-none-eabi/lib/armv7e-m\libstdc++.a(string-inst.o)
                                  0x8 (size before relaxing)
 .ARM.exidx.text._ZNSs14_M_replace_auxEjjjc
                0x08027c44        0x8 c:/program files (x86)/gnu tools arm embedded/4.8 2013q4/bin/../lib/gcc/arm-none-eabi/4.8.3/../../../../arm-none-eabi/lib/armv7e-m\libstdc++.a(string-inst.o)
 .ARM.exidx.text._ZNSs6assignEjc
                0x08027c4c        0x8 c:/program files (x86)/gnu tools arm embedded/4.8 2013q4/bin/../lib/gcc/arm-none-eabi/4.8.3/../../../../arm-none-eabi/lib/armv7e-m\libstdc++.a(string-inst.o)
 .ARM.exidx.text._ZNSsaSEc
                0x08027c54        0x0 c:/program files (x86)/gnu tools arm embedded/4.8 2013q4/bin/../lib/gcc/arm-none-eabi/4.8.3/../../../../arm-none-eabi/lib/armv7e-m\libstdc++.a(string-inst.o)
                                  0x8 (size before relaxing)
 .ARM.exidx.text._ZNSs6insertEjjc
                0x08027c54        0x0 c:/program files (x86)/gnu tools arm embedded/4.8 2013q4/bin/../lib/gcc/arm-none-eabi/4.8.3/../../../../arm-none-eabi/lib/armv7e-m\libstdc++.a(string-inst.o)
                                  0x8 (size before relaxing)
 .ARM.exidx.text._ZNSs6insertEN9__gnu_cxx17__normal_iteratorIPcSsEEc
                0x08027c54        0x8 c:/program files (x86)/gnu tools arm embedded/4.8 2013q4/bin/../lib/gcc/arm-none-eabi/4.8.3/../../../../arm-none-eabi/lib/armv7e-m\libstdc++.a(string-inst.o)
 .ARM.exidx.text._ZNSs7replaceEjjjc
                0x08027c5c        0x8 c:/program files (x86)/gnu tools arm embedded/4.8 2013q4/bin/../lib/gcc/arm-none-eabi/4.8.3/../../../../arm-none-eabi/lib/armv7e-m\libstdc++.a(string-inst.o)
 .ARM.exidx.text._ZNSs7replaceEN9__gnu_cxx17__normal_iteratorIPcSsEES2_jc
                0x08027c64        0x8 c:/program files (x86)/gnu tools arm embedded/4.8 2013q4/bin/../lib/gcc/arm-none-eabi/4.8.3/../../../../arm-none-eabi/lib/armv7e-m\libstdc++.a(string-inst.o)
 .ARM.exidx.text._ZNSs6insertEN9__gnu_cxx17__normal_iteratorIPcSsEEjc
                0x08027c6c        0x8 c:/program files (x86)/gnu tools arm embedded/4.8 2013q4/bin/../lib/gcc/arm-none-eabi/4.8.3/../../../../arm-none-eabi/lib/armv7e-m\libstdc++.a(string-inst.o)
 .ARM.exidx.text._ZNSs15_M_replace_safeEjjPKcj
                0x08027c74        0x8 c:/program files (x86)/gnu tools arm embedded/4.8 2013q4/bin/../lib/gcc/arm-none-eabi/4.8.3/../../../../arm-none-eabi/lib/armv7e-m\libstdc++.a(string-inst.o)
 .ARM.exidx.text._ZNSs6assignEPKcj
                0x08027c7c        0x8 c:/program files (x86)/gnu tools arm embedded/4.8 2013q4/bin/../lib/gcc/arm-none-eabi/4.8.3/../../../../arm-none-eabi/lib/armv7e-m\libstdc++.a(string-inst.o)
 .ARM.exidx.text._ZNSsaSESt16initializer_listIcE
                0x08027c84        0x8 c:/program files (x86)/gnu tools arm embedded/4.8 2013q4/bin/../lib/gcc/arm-none-eabi/4.8.3/../../../../arm-none-eabi/lib/armv7e-m\libstdc++.a(string-inst.o)
 .ARM.exidx.text._ZNSs6assignERKSsjj
                0x08027c8c        0x8 c:/program files (x86)/gnu tools arm embedded/4.8 2013q4/bin/../lib/gcc/arm-none-eabi/4.8.3/../../../../arm-none-eabi/lib/armv7e-m\libstdc++.a(string-inst.o)
 .ARM.exidx.text._ZNSs6assignEPKc
                0x08027c94        0x0 c:/program files (x86)/gnu tools arm embedded/4.8 2013q4/bin/../lib/gcc/arm-none-eabi/4.8.3/../../../../arm-none-eabi/lib/armv7e-m\libstdc++.a(string-inst.o)
                                  0x8 (size before relaxing)
 .ARM.exidx.text._ZNSs6assignESt16initializer_listIcE
                0x08027c94        0x8 c:/program files (x86)/gnu tools arm embedded/4.8 2013q4/bin/../lib/gcc/arm-none-eabi/4.8.3/../../../../arm-none-eabi/lib/armv7e-m\libstdc++.a(string-inst.o)
 .ARM.exidx.text._ZNSsaSEPKc
                0x08027c9c        0x8 c:/program files (x86)/gnu tools arm embedded/4.8 2013q4/bin/../lib/gcc/arm-none-eabi/4.8.3/../../../../arm-none-eabi/lib/armv7e-m\libstdc++.a(string-inst.o)
 .ARM.exidx.text._ZNSs6insertEjPKcj
                0x08027ca4        0x8 c:/program files (x86)/gnu tools arm embedded/4.8 2013q4/bin/../lib/gcc/arm-none-eabi/4.8.3/../../../../arm-none-eabi/lib/armv7e-m\libstdc++.a(string-inst.o)
 .ARM.exidx.text._ZNSs6insertEN9__gnu_cxx17__normal_iteratorIPcSsEESt16initializer_listIcE
                0x08027cac        0x8 c:/program files (x86)/gnu tools arm embedded/4.8 2013q4/bin/../lib/gcc/arm-none-eabi/4.8.3/../../../../arm-none-eabi/lib/armv7e-m\libstdc++.a(string-inst.o)
 .ARM.exidx.text._ZNSs6insertEjRKSsjj
                0x08027cb4        0x8 c:/program files (x86)/gnu tools arm embedded/4.8 2013q4/bin/../lib/gcc/arm-none-eabi/4.8.3/../../../../arm-none-eabi/lib/armv7e-m\libstdc++.a(string-inst.o)
 .ARM.exidx.text._ZNSs6insertEjPKc
                0x08027cbc        0x8 c:/program files (x86)/gnu tools arm embedded/4.8 2013q4/bin/../lib/gcc/arm-none-eabi/4.8.3/../../../../arm-none-eabi/lib/armv7e-m\libstdc++.a(string-inst.o)
 .ARM.exidx.text._ZNSs6insertEjRKSs
                0x08027cc4        0x8 c:/program files (x86)/gnu tools arm embedded/4.8 2013q4/bin/../lib/gcc/arm-none-eabi/4.8.3/../../../../arm-none-eabi/lib/armv7e-m\libstdc++.a(string-inst.o)
 .ARM.exidx.text._ZNSs8pop_backEv
                0x08027ccc        0x8 c:/program files (x86)/gnu tools arm embedded/4.8 2013q4/bin/../lib/gcc/arm-none-eabi/4.8.3/../../../../arm-none-eabi/lib/armv7e-m\libstdc++.a(string-inst.o)
 .ARM.exidx.text._ZNSs4_Rep10_M_refcopyEv
                0x08027cd4        0x8 c:/program files (x86)/gnu tools arm embedded/4.8 2013q4/bin/../lib/gcc/arm-none-eabi/4.8.3/../../../../arm-none-eabi/lib/armv7e-m\libstdc++.a(string-inst.o)
 .ARM.exidx.text._ZNSs4_Rep8_M_cloneERKSaIcEj
                0x08027cdc        0x8 c:/program files (x86)/gnu tools arm embedded/4.8 2013q4/bin/../lib/gcc/arm-none-eabi/4.8.3/../../../../arm-none-eabi/lib/armv7e-m\libstdc++.a(string-inst.o)
 .ARM.exidx.text._ZNSs7reserveEj
                0x08027ce4        0x8 c:/program files (x86)/gnu tools arm embedded/4.8 2013q4/bin/../lib/gcc/arm-none-eabi/4.8.3/../../../../arm-none-eabi/lib/armv7e-m\libstdc++.a(string-inst.o)
 .ARM.exidx.text._ZNSs13shrink_to_fitEv
                0x08027cec        0x8 c:/program files (x86)/gnu tools arm embedded/4.8 2013q4/bin/../lib/gcc/arm-none-eabi/4.8.3/../../../../arm-none-eabi/lib/armv7e-m\libstdc++.a(string-inst.o)
 .ARM.exidx.text._ZNSs6appendERKSs
                0x08027cf4        0x8 c:/program files (x86)/gnu tools arm embedded/4.8 2013q4/bin/../lib/gcc/arm-none-eabi/4.8.3/../../../../arm-none-eabi/lib/armv7e-m\libstdc++.a(string-inst.o)
 .ARM.exidx.text._ZNSspLERKSs
                0x08027cfc        0x8 c:/program files (x86)/gnu tools arm embedded/4.8 2013q4/bin/../lib/gcc/arm-none-eabi/4.8.3/../../../../arm-none-eabi/lib/armv7e-m\libstdc++.a(string-inst.o)
 .ARM.exidx.text._ZNSs6appendERKSsjj
                0x08027d04        0x8 c:/program files (x86)/gnu tools arm embedded/4.8 2013q4/bin/../lib/gcc/arm-none-eabi/4.8.3/../../../../arm-none-eabi/lib/armv7e-m\libstdc++.a(string-inst.o)
 .ARM.exidx.text._ZNSs6appendEPKcj
                0x08027d0c        0x8 c:/program files (x86)/gnu tools arm embedded/4.8 2013q4/bin/../lib/gcc/arm-none-eabi/4.8.3/../../../../arm-none-eabi/lib/armv7e-m\libstdc++.a(string-inst.o)
 .ARM.exidx.text._ZNSspLESt16initializer_listIcE
                0x08027d14        0x8 c:/program files (x86)/gnu tools arm embedded/4.8 2013q4/bin/../lib/gcc/arm-none-eabi/4.8.3/../../../../arm-none-eabi/lib/armv7e-m\libstdc++.a(string-inst.o)
 .ARM.exidx.text._ZNSs6appendEPKc
                0x08027d1c        0x8 c:/program files (x86)/gnu tools arm embedded/4.8 2013q4/bin/../lib/gcc/arm-none-eabi/4.8.3/../../../../arm-none-eabi/lib/armv7e-m\libstdc++.a(string-inst.o)
 .ARM.exidx.text._ZNSs6appendESt16initializer_listIcE
                0x08027d24        0x8 c:/program files (x86)/gnu tools arm embedded/4.8 2013q4/bin/../lib/gcc/arm-none-eabi/4.8.3/../../../../arm-none-eabi/lib/armv7e-m\libstdc++.a(string-inst.o)
 .ARM.exidx.text._ZNSspLEPKc
                0x08027d2c        0x8 c:/program files (x86)/gnu tools arm embedded/4.8 2013q4/bin/../lib/gcc/arm-none-eabi/4.8.3/../../../../arm-none-eabi/lib/armv7e-m\libstdc++.a(string-inst.o)
 .ARM.exidx.text._ZNSs6appendEjc
                0x08027d34        0x8 c:/program files (x86)/gnu tools arm embedded/4.8 2013q4/bin/../lib/gcc/arm-none-eabi/4.8.3/../../../../arm-none-eabi/lib/armv7e-m\libstdc++.a(string-inst.o)
 .ARM.exidx.text._ZNSs6resizeEjc
                0x08027d3c        0x8 c:/program files (x86)/gnu tools arm embedded/4.8 2013q4/bin/../lib/gcc/arm-none-eabi/4.8.3/../../../../arm-none-eabi/lib/armv7e-m\libstdc++.a(string-inst.o)
 .ARM.exidx.text._ZNSs6resizeEj
                0x08027d44        0x8 c:/program files (x86)/gnu tools arm embedded/4.8 2013q4/bin/../lib/gcc/arm-none-eabi/4.8.3/../../../../arm-none-eabi/lib/armv7e-m\libstdc++.a(string-inst.o)
 .ARM.exidx.text._ZNSs9push_backEc
                0x08027d4c        0x8 c:/program files (x86)/gnu tools arm embedded/4.8 2013q4/bin/../lib/gcc/arm-none-eabi/4.8.3/../../../../arm-none-eabi/lib/armv7e-m\libstdc++.a(string-inst.o)
 .ARM.exidx.text._ZNSspLEc
                0x08027d54        0x0 c:/program files (x86)/gnu tools arm embedded/4.8 2013q4/bin/../lib/gcc/arm-none-eabi/4.8.3/../../../../arm-none-eabi/lib/armv7e-m\libstdc++.a(string-inst.o)
                                  0x8 (size before relaxing)
 .ARM.exidx.text._ZNSs4_Rep7_M_grabERKSaIcES2_
                0x08027d54        0x8 c:/program files (x86)/gnu tools arm embedded/4.8 2013q4/bin/../lib/gcc/arm-none-eabi/4.8.3/../../../../arm-none-eabi/lib/armv7e-m\libstdc++.a(string-inst.o)
 .ARM.exidx.text._ZNSsC2ERKSs
                0x08027d5c        0x8 c:/program files (x86)/gnu tools arm embedded/4.8 2013q4/bin/../lib/gcc/arm-none-eabi/4.8.3/../../../../arm-none-eabi/lib/armv7e-m\libstdc++.a(string-inst.o)
 .ARM.exidx.text._ZNSs6assignERKSs
                0x08027d64        0x8 c:/program files (x86)/gnu tools arm embedded/4.8 2013q4/bin/../lib/gcc/arm-none-eabi/4.8.3/../../../../arm-none-eabi/lib/armv7e-m\libstdc++.a(string-inst.o)
 .ARM.exidx.text._ZNSsaSERKSs
                0x08027d6c        0x8 c:/program files (x86)/gnu tools arm embedded/4.8 2013q4/bin/../lib/gcc/arm-none-eabi/4.8.3/../../../../arm-none-eabi/lib/armv7e-m\libstdc++.a(string-inst.o)
 .ARM.exidx.text._ZStplIcSt11char_traitsIcESaIcEESbIT_T0_T1_EPKS3_RKS6_
                0x08027d74        0x8 c:/program files (x86)/gnu tools arm embedded/4.8 2013q4/bin/../lib/gcc/arm-none-eabi/4.8.3/../../../../arm-none-eabi/lib/armv7e-m\libstdc++.a(string-inst.o)
 .ARM.exidx.text._ZStplIcSt11char_traitsIcESaIcEESbIT_T0_T1_ES3_RKS6_
                0x08027d7c        0x8 c:/program files (x86)/gnu tools arm embedded/4.8 2013q4/bin/../lib/gcc/arm-none-eabi/4.8.3/../../../../arm-none-eabi/lib/armv7e-m\libstdc++.a(string-inst.o)
 .ARM.exidx.text._ZStplIcSt11char_traitsIcESaIcEESbIT_T0_T1_ERKS6_S8_
                0x08027d84        0x8 c:/program files (x86)/gnu tools arm embedded/4.8 2013q4/bin/../lib/gcc/arm-none-eabi/4.8.3/../../../../arm-none-eabi/lib/armv7e-m\libstdc++.a(string-inst.o)
 .ARM.exidx.text._ZNSs12_S_constructIN9__gnu_cxx17__normal_iteratorIPcSsEEEES2_T_S4_RKSaIcESt20forward_iterator_tag
                0x08027d8c        0x8 c:/program files (x86)/gnu tools arm embedded/4.8 2013q4/bin/../lib/gcc/arm-none-eabi/4.8.3/../../../../arm-none-eabi/lib/armv7e-m\libstdc++.a(string-inst.o)
 .ARM.exidx.text._ZNSsC2IN9__gnu_cxx17__normal_iteratorIPcSsEEEET_S4_RKSaIcE
                0x08027d94        0x8 c:/program files (x86)/gnu tools arm embedded/4.8 2013q4/bin/../lib/gcc/arm-none-eabi/4.8.3/../../../../arm-none-eabi/lib/armv7e-m\libstdc++.a(string-inst.o)
 .ARM.exidx.text._ZNSs12_S_constructIPcEES0_T_S1_RKSaIcESt20forward_iterator_tag
                0x08027d9c        0x8 c:/program files (x86)/gnu tools arm embedded/4.8 2013q4/bin/../lib/gcc/arm-none-eabi/4.8.3/../../../../arm-none-eabi/lib/armv7e-m\libstdc++.a(string-inst.o)
 .ARM.exidx.text._ZNSsC2ERKSsjj
                0x08027da4        0x8 c:/program files (x86)/gnu tools arm embedded/4.8 2013q4/bin/../lib/gcc/arm-none-eabi/4.8.3/../../../../arm-none-eabi/lib/armv7e-m\libstdc++.a(string-inst.o)
 .ARM.exidx.text._ZNKSs6substrEjj
                0x08027dac        0x8 c:/program files (x86)/gnu tools arm embedded/4.8 2013q4/bin/../lib/gcc/arm-none-eabi/4.8.3/../../../../arm-none-eabi/lib/armv7e-m\libstdc++.a(string-inst.o)
 .ARM.exidx.text._ZNSsC2ERKSsjjRKSaIcE
                0x08027db4        0x8 c:/program files (x86)/gnu tools arm embedded/4.8 2013q4/bin/../lib/gcc/arm-none-eabi/4.8.3/../../../../arm-none-eabi/lib/armv7e-m\libstdc++.a(string-inst.o)
 .ARM.exidx.text._ZNSsC2IPcEET_S1_RKSaIcE
                0x08027dbc        0x8 c:/program files (x86)/gnu tools arm embedded/4.8 2013q4/bin/../lib/gcc/arm-none-eabi/4.8.3/../../../../arm-none-eabi/lib/armv7e-m\libstdc++.a(string-inst.o)
 .ARM.exidx.text._ZNSs12_S_constructIPKcEEPcT_S3_RKSaIcESt20forward_iterator_tag
                0x08027dc4        0x8 c:/program files (x86)/gnu tools arm embedded/4.8 2013q4/bin/../lib/gcc/arm-none-eabi/4.8.3/../../../../arm-none-eabi/lib/armv7e-m\libstdc++.a(string-inst.o)
 .ARM.exidx.text._ZNSsC2EPKcjRKSaIcE
                0x08027dcc        0x8 c:/program files (x86)/gnu tools arm embedded/4.8 2013q4/bin/../lib/gcc/arm-none-eabi/4.8.3/../../../../arm-none-eabi/lib/armv7e-m\libstdc++.a(string-inst.o)
 .ARM.exidx.text._ZNSs7replaceEjjPKcj
                0x08027dd4        0x8 c:/program files (x86)/gnu tools arm embedded/4.8 2013q4/bin/../lib/gcc/arm-none-eabi/4.8.3/../../../../arm-none-eabi/lib/armv7e-m\libstdc++.a(string-inst.o)
 .ARM.exidx.text._ZNSs7replaceEjjRKSs
                0x08027ddc        0x8 c:/program files (x86)/gnu tools arm embedded/4.8 2013q4/bin/../lib/gcc/arm-none-eabi/4.8.3/../../../../arm-none-eabi/lib/armv7e-m\libstdc++.a(string-inst.o)
 .ARM.exidx.text._ZNSs7replaceEjjRKSsjj
                0x08027de4        0x8 c:/program files (x86)/gnu tools arm embedded/4.8 2013q4/bin/../lib/gcc/arm-none-eabi/4.8.3/../../../../arm-none-eabi/lib/armv7e-m\libstdc++.a(string-inst.o)
 .ARM.exidx.text._ZNSs7replaceEjjPKc
                0x08027dec        0x8 c:/program files (x86)/gnu tools arm embedded/4.8 2013q4/bin/../lib/gcc/arm-none-eabi/4.8.3/../../../../arm-none-eabi/lib/armv7e-m\libstdc++.a(string-inst.o)
 .ARM.exidx.text._ZNSs7replaceEN9__gnu_cxx17__normal_iteratorIPcSsEES2_PKcj
                0x08027df4        0x8 c:/program files (x86)/gnu tools arm embedded/4.8 2013q4/bin/../lib/gcc/arm-none-eabi/4.8.3/../../../../arm-none-eabi/lib/armv7e-m\libstdc++.a(string-inst.o)
 .ARM.exidx.text._ZNSs7replaceEN9__gnu_cxx17__normal_iteratorIPcSsEES2_RKSs
                0x08027dfc        0x0 c:/program files (x86)/gnu tools arm embedded/4.8 2013q4/bin/../lib/gcc/arm-none-eabi/4.8.3/../../../../arm-none-eabi/lib/armv7e-m\libstdc++.a(string-inst.o)
                                  0x8 (size before relaxing)
 .ARM.exidx.text._ZNSs7replaceEN9__gnu_cxx17__normal_iteratorIPcSsEES2_PKc
                0x08027dfc        0x8 c:/program files (x86)/gnu tools arm embedded/4.8 2013q4/bin/../lib/gcc/arm-none-eabi/4.8.3/../../../../arm-none-eabi/lib/armv7e-m\libstdc++.a(string-inst.o)
 .ARM.exidx.text._ZNSs7replaceEN9__gnu_cxx17__normal_iteratorIPcSsEES2_S1_S1_
                0x08027e04        0x8 c:/program files (x86)/gnu tools arm embedded/4.8 2013q4/bin/../lib/gcc/arm-none-eabi/4.8.3/../../../../arm-none-eabi/lib/armv7e-m\libstdc++.a(string-inst.o)
 .ARM.exidx.text._ZNSs7replaceEN9__gnu_cxx17__normal_iteratorIPcSsEES2_PKcS4_
                0x08027e0c        0x0 c:/program files (x86)/gnu tools arm embedded/4.8 2013q4/bin/../lib/gcc/arm-none-eabi/4.8.3/../../../../arm-none-eabi/lib/armv7e-m\libstdc++.a(string-inst.o)
                                  0x8 (size before relaxing)
 .ARM.exidx.text._ZNSs7replaceEN9__gnu_cxx17__normal_iteratorIPcSsEES2_St16initializer_listIcE
                0x08027e0c        0x8 c:/program files (x86)/gnu tools arm embedded/4.8 2013q4/bin/../lib/gcc/arm-none-eabi/4.8.3/../../../../arm-none-eabi/lib/armv7e-m\libstdc++.a(string-inst.o)
 .ARM.exidx.text._ZNSs7replaceEN9__gnu_cxx17__normal_iteratorIPcSsEES2_S2_S2_
                0x08027e14        0x8 c:/program files (x86)/gnu tools arm embedded/4.8 2013q4/bin/../lib/gcc/arm-none-eabi/4.8.3/../../../../arm-none-eabi/lib/armv7e-m\libstdc++.a(string-inst.o)
 .ARM.exidx.text._ZNSs7replaceEN9__gnu_cxx17__normal_iteratorIPcSsEES2_NS0_IPKcSsEES5_
                0x08027e1c        0x0 c:/program files (x86)/gnu tools arm embedded/4.8 2013q4/bin/../lib/gcc/arm-none-eabi/4.8.3/../../../../arm-none-eabi/lib/armv7e-m\libstdc++.a(string-inst.o)
                                  0x8 (size before relaxing)
 .ARM.exidx.text._ZNSsC2EPKcRKSaIcE
                0x08027e1c        0x8 c:/program files (x86)/gnu tools arm embedded/4.8 2013q4/bin/../lib/gcc/arm-none-eabi/4.8.3/../../../../arm-none-eabi/lib/armv7e-m\libstdc++.a(string-inst.o)
 .ARM.exidx.text._ZNSsC2ESt16initializer_listIcERKSaIcE
                0x08027e24        0x8 c:/program files (x86)/gnu tools arm embedded/4.8 2013q4/bin/../lib/gcc/arm-none-eabi/4.8.3/../../../../arm-none-eabi/lib/armv7e-m\libstdc++.a(string-inst.o)
 .ARM.exidx.text._ZNSsC2IPKcEET_S2_RKSaIcE
                0x08027e2c        0x8 c:/program files (x86)/gnu tools arm embedded/4.8 2013q4/bin/../lib/gcc/arm-none-eabi/4.8.3/../../../../arm-none-eabi/lib/armv7e-m\libstdc++.a(string-inst.o)
 .ARM.exidx.text._ZN9__gnu_cxxeqIPcSsEEbRKNS_17__normal_iteratorIT_T0_EES7_
                0x08027e34        0x8 c:/program files (x86)/gnu tools arm embedded/4.8 2013q4/bin/../lib/gcc/arm-none-eabi/4.8.3/../../../../arm-none-eabi/lib/armv7e-m\libstdc++.a(string-inst.o)
 .ARM.exidx.text._ZN9__gnu_cxxeqIPKcSsEEbRKNS_17__normal_iteratorIT_T0_EES8_
                0x08027e3c        0x0 c:/program files (x86)/gnu tools arm embedded/4.8 2013q4/bin/../lib/gcc/arm-none-eabi/4.8.3/../../../../arm-none-eabi/lib/armv7e-m\libstdc++.a(string-inst.o)
                                  0x8 (size before relaxing)
 .ARM.exidx.text._ZNKSt8__detail20_Prime_rehash_policy11_M_next_bktEj
                0x08027e3c        0x0 c:/program files (x86)/gnu tools arm embedded/4.8 2013q4/bin/../lib/gcc/arm-none-eabi/4.8.3/../../../../arm-none-eabi/lib/armv7e-m\libstdc++.a(hashtable_c++0x.o)
                                  0x8 (size before relaxing)
 .ARM.exidx.text._ZNKSt8__detail20_Prime_rehash_policy14_M_need_rehashEjjj
                0x08027e3c        0x0 c:/program files (x86)/gnu tools arm embedded/4.8 2013q4/bin/../lib/gcc/arm-none-eabi/4.8.3/../../../../arm-none-eabi/lib/armv7e-m\libstdc++.a(hashtable_c++0x.o)
                                  0x8 (size before relaxing)
 .ARM.exidx.text._ZSt21__throw_bad_exceptionv
                0x08027e3c        0x8 c:/program files (x86)/gnu tools arm embedded/4.8 2013q4/bin/../lib/gcc/arm-none-eabi/4.8.3/../../../../arm-none-eabi/lib/armv7e-m\libstdc++.a(functexcept.o)
 .ARM.exidx.text._ZSt17__throw_bad_allocv
                0x08027e44        0x8 c:/program files (x86)/gnu tools arm embedded/4.8 2013q4/bin/../lib/gcc/arm-none-eabi/4.8.3/../../../../arm-none-eabi/lib/armv7e-m\libstdc++.a(functexcept.o)
 .ARM.exidx.text._ZSt16__throw_bad_castv
                0x08027e4c        0x8 c:/program files (x86)/gnu tools arm embedded/4.8 2013q4/bin/../lib/gcc/arm-none-eabi/4.8.3/../../../../arm-none-eabi/lib/armv7e-m\libstdc++.a(functexcept.o)
 .ARM.exidx.text._ZSt18__throw_bad_typeidv
                0x08027e54        0x8 c:/program files (x86)/gnu tools arm embedded/4.8 2013q4/bin/../lib/gcc/arm-none-eabi/4.8.3/../../../../arm-none-eabi/lib/armv7e-m\libstdc++.a(functexcept.o)
 .ARM.exidx.text._ZSt19__throw_logic_errorPKc
                0x08027e5c        0x8 c:/program files (x86)/gnu tools arm embedded/4.8 2013q4/bin/../lib/gcc/arm-none-eabi/4.8.3/../../../../arm-none-eabi/lib/armv7e-m\libstdc++.a(functexcept.o)
 .ARM.exidx.text._ZSt20__throw_domain_errorPKc
                0x08027e64        0x8 c:/program files (x86)/gnu tools arm embedded/4.8 2013q4/bin/../lib/gcc/arm-none-eabi/4.8.3/../../../../arm-none-eabi/lib/armv7e-m\libstdc++.a(functexcept.o)
 .ARM.exidx.text._ZSt24__throw_invalid_argumentPKc
                0x08027e6c        0x8 c:/program files (x86)/gnu tools arm embedded/4.8 2013q4/bin/../lib/gcc/arm-none-eabi/4.8.3/../../../../arm-none-eabi/lib/armv7e-m\libstdc++.a(functexcept.o)
 .ARM.exidx.text._ZSt20__throw_length_errorPKc
                0x08027e74        0x8 c:/program files (x86)/gnu tools arm embedded/4.8 2013q4/bin/../lib/gcc/arm-none-eabi/4.8.3/../../../../arm-none-eabi/lib/armv7e-m\libstdc++.a(functexcept.o)
 .ARM.exidx.text._ZSt20__throw_out_of_rangePKc
                0x08027e7c        0x8 c:/program files (x86)/gnu tools arm embedded/4.8 2013q4/bin/../lib/gcc/arm-none-eabi/4.8.3/../../../../arm-none-eabi/lib/armv7e-m\libstdc++.a(functexcept.o)
 .ARM.exidx.text._ZSt21__throw_runtime_errorPKc
                0x08027e84        0x8 c:/program files (x86)/gnu tools arm embedded/4.8 2013q4/bin/../lib/gcc/arm-none-eabi/4.8.3/../../../../arm-none-eabi/lib/armv7e-m\libstdc++.a(functexcept.o)
 .ARM.exidx.text._ZSt19__throw_range_errorPKc
                0x08027e8c        0x8 c:/program files (x86)/gnu tools arm embedded/4.8 2013q4/bin/../lib/gcc/arm-none-eabi/4.8.3/../../../../arm-none-eabi/lib/armv7e-m\libstdc++.a(functexcept.o)
 .ARM.exidx.text._ZSt22__throw_overflow_errorPKc
                0x08027e94        0x8 c:/program files (x86)/gnu tools arm embedded/4.8 2013q4/bin/../lib/gcc/arm-none-eabi/4.8.3/../../../../arm-none-eabi/lib/armv7e-m\libstdc++.a(functexcept.o)
 .ARM.exidx.text._ZSt23__throw_underflow_errorPKc
                0x08027e9c        0x8 c:/program files (x86)/gnu tools arm embedded/4.8 2013q4/bin/../lib/gcc/arm-none-eabi/4.8.3/../../../../arm-none-eabi/lib/armv7e-m\libstdc++.a(functexcept.o)
 .ARM.exidx.text._ZSt19__throw_ios_failurePKc
                0x08027ea4        0x8 c:/program files (x86)/gnu tools arm embedded/4.8 2013q4/bin/../lib/gcc/arm-none-eabi/4.8.3/../../../../arm-none-eabi/lib/armv7e-m\libstdc++.a(functexcept.o)
 .ARM.exidx.text._ZSt20__throw_system_errori
                0x08027eac        0x8 c:/program files (x86)/gnu tools arm embedded/4.8 2013q4/bin/../lib/gcc/arm-none-eabi/4.8.3/../../../../arm-none-eabi/lib/armv7e-m\libstdc++.a(functexcept.o)
 .ARM.exidx.text._ZSt20__throw_future_errori
                0x08027eb4        0x8 c:/program files (x86)/gnu tools arm embedded/4.8 2013q4/bin/../lib/gcc/arm-none-eabi/4.8.3/../../../../arm-none-eabi/lib/armv7e-m\libstdc++.a(functexcept.o)
 .ARM.exidx.text._ZSt25__throw_bad_function_callv
                0x08027ebc        0x8 c:/program files (x86)/gnu tools arm embedded/4.8 2013q4/bin/../lib/gcc/arm-none-eabi/4.8.3/../../../../arm-none-eabi/lib/armv7e-m\libstdc++.a(functexcept.o)
 .ARM.exidx.text._ZSt19__throw_regex_errorNSt15regex_constants10error_typeE
                0x08027ec4        0x8 c:/program files (x86)/gnu tools arm embedded/4.8 2013q4/bin/../lib/gcc/arm-none-eabi/4.8.3/../../../../arm-none-eabi/lib/armv7e-m\libstdc++.a(functexcept.o)
 .ARM.exidx.text._ZNKSt17bad_function_call4whatEv
                0x08027ecc        0x8 c:/program files (x86)/gnu tools arm embedded/4.8 2013q4/bin/../lib/gcc/arm-none-eabi/4.8.3/../../../../arm-none-eabi/lib/armv7e-m\libstdc++.a(functional.o)
 .ARM.exidx.text._ZNSt17bad_function_callD2Ev
                0x08027ed4        0x0 c:/program files (x86)/gnu tools arm embedded/4.8 2013q4/bin/../lib/gcc/arm-none-eabi/4.8.3/../../../../arm-none-eabi/lib/armv7e-m\libstdc++.a(functional.o)
                                  0x8 (size before relaxing)
 .ARM.exidx.text._ZNSt17bad_function_callD0Ev
                0x08027ed4        0x0 c:/program files (x86)/gnu tools arm embedded/4.8 2013q4/bin/../lib/gcc/arm-none-eabi/4.8.3/../../../../arm-none-eabi/lib/armv7e-m\libstdc++.a(functional.o)
                                  0x8 (size before relaxing)
 .ARM.exidx.text._ZN10__cxxabiv1L24__is_gxx_exception_classEPc
                0x08027ed4        0x0 c:/program files (x86)/gnu tools arm embedded/4.8 2013q4/bin/../lib/gcc/arm-none-eabi/4.8.3/../../../../arm-none-eabi/lib/armv7e-m\libstdc++.a(eh_call.o)
                                  0x8 (size before relaxing)
 .ARM.exidx.text.__cxa_call_terminate
                0x08027ed4        0x0 c:/program files (x86)/gnu tools arm embedded/4.8 2013q4/bin/../lib/gcc/arm-none-eabi/4.8.3/../../../../arm-none-eabi/lib/armv7e-m\libstdc++.a(eh_call.o)
                                  0x8 (size before relaxing)
 .ARM.exidx.text.__cxa_call_unexpected
                0x08027ed4       0x10 c:/program files (x86)/gnu tools arm embedded/4.8 2013q4/bin/../lib/gcc/arm-none-eabi/4.8.3/../../../../arm-none-eabi/lib/armv7e-m\libstdc++.a(eh_call.o)
                                  0x8 (size before relaxing)
 .ARM.exidx.text.__cxa_type_match
                0x08027ee4        0x8 c:/program files (x86)/gnu tools arm embedded/4.8 2013q4/bin/../lib/gcc/arm-none-eabi/4.8.3/../../../../arm-none-eabi/lib/armv7e-m\libstdc++.a(eh_arm.o)
 .ARM.exidx.text.__cxa_begin_cleanup
                0x08027eec        0x8 c:/program files (x86)/gnu tools arm embedded/4.8 2013q4/bin/../lib/gcc/arm-none-eabi/4.8.3/../../../../arm-none-eabi/lib/armv7e-m\libstdc++.a(eh_arm.o)
 .ARM.exidx.text.__gnu_end_cleanup
                0x08027ef4        0x0 c:/program files (x86)/gnu tools arm embedded/4.8 2013q4/bin/../lib/gcc/arm-none-eabi/4.8.3/../../../../arm-none-eabi/lib/armv7e-m\libstdc++.a(eh_arm.o)
                                  0x8 (size before relaxing)
 .ARM.exidx.text._ZSt15set_new_handlerPFvvE
                0x08027ef4        0x0 c:/program files (x86)/gnu tools arm embedded/4.8 2013q4/bin/../lib/gcc/arm-none-eabi/4.8.3/../../../../arm-none-eabi/lib/armv7e-m\libstdc++.a(new_handler.o)
                                  0x8 (size before relaxing)
 .ARM.exidx.text._ZNKSt9bad_alloc4whatEv
                0x08027ef4        0x0 c:/program files (x86)/gnu tools arm embedded/4.8 2013q4/bin/../lib/gcc/arm-none-eabi/4.8.3/../../../../arm-none-eabi/lib/armv7e-m\libstdc++.a(bad_alloc.o)
                                  0x8 (size before relaxing)
 .ARM.exidx.text._ZNSt9bad_allocD2Ev
                0x08027ef4        0x0 c:/program files (x86)/gnu tools arm embedded/4.8 2013q4/bin/../lib/gcc/arm-none-eabi/4.8.3/../../../../arm-none-eabi/lib/armv7e-m\libstdc++.a(bad_alloc.o)
                                  0x8 (size before relaxing)
 .ARM.exidx.text._ZNSt9bad_allocD0Ev
                0x08027ef4        0x0 c:/program files (x86)/gnu tools arm embedded/4.8 2013q4/bin/../lib/gcc/arm-none-eabi/4.8.3/../../../../arm-none-eabi/lib/armv7e-m\libstdc++.a(bad_alloc.o)
                                  0x8 (size before relaxing)
 .ARM.exidx.text.__cxa_bad_cast
                0x08027ef4        0x8 c:/program files (x86)/gnu tools arm embedded/4.8 2013q4/bin/../lib/gcc/arm-none-eabi/4.8.3/../../../../arm-none-eabi/lib/armv7e-m\libstdc++.a(eh_aux_runtime.o)
 .ARM.exidx.text.__cxa_bad_typeid
                0x08027efc        0x8 c:/program files (x86)/gnu tools arm embedded/4.8 2013q4/bin/../lib/gcc/arm-none-eabi/4.8.3/../../../../arm-none-eabi/lib/armv7e-m\libstdc++.a(eh_aux_runtime.o)
 .ARM.exidx.text.__cxa_get_globals_fast
                0x08027f04        0x8 c:/program files (x86)/gnu tools arm embedded/4.8 2013q4/bin/../lib/gcc/arm-none-eabi/4.8.3/../../../../arm-none-eabi/lib/armv7e-m\libstdc++.a(eh_globals.o)
 .ARM.exidx.text.__cxa_get_globals
                0x08027f0c        0x0 c:/program files (x86)/gnu tools arm embedded/4.8 2013q4/bin/../lib/gcc/arm-none-eabi/4.8.3/../../../../arm-none-eabi/lib/armv7e-m\libstdc++.a(eh_globals.o)
                                  0x8 (size before relaxing)
 .ARM.exidx.text._ZNKSt8bad_cast4whatEv
                0x08027f0c        0x0 c:/program files (x86)/gnu tools arm embedded/4.8 2013q4/bin/../lib/gcc/arm-none-eabi/4.8.3/../../../../arm-none-eabi/lib/armv7e-m\libstdc++.a(bad_cast.o)
                                  0x8 (size before relaxing)
 .ARM.exidx.text._ZNSt8bad_castD2Ev
                0x08027f0c        0x0 c:/program files (x86)/gnu tools arm embedded/4.8 2013q4/bin/../lib/gcc/arm-none-eabi/4.8.3/../../../../arm-none-eabi/lib/armv7e-m\libstdc++.a(bad_cast.o)
                                  0x8 (size before relaxing)
 .ARM.exidx.text._ZNSt8bad_castD0Ev
                0x08027f0c        0x0 c:/program files (x86)/gnu tools arm embedded/4.8 2013q4/bin/../lib/gcc/arm-none-eabi/4.8.3/../../../../arm-none-eabi/lib/armv7e-m\libstdc++.a(bad_cast.o)
                                  0x8 (size before relaxing)
 .ARM.exidx.text.__cxa_get_exception_ptr
                0x08027f0c        0x0 c:/program files (x86)/gnu tools arm embedded/4.8 2013q4/bin/../lib/gcc/arm-none-eabi/4.8.3/../../../../arm-none-eabi/lib/armv7e-m\libstdc++.a(eh_catch.o)
                                  0x8 (size before relaxing)
 .ARM.exidx.text.__cxa_begin_catch
                0x08027f0c        0x8 c:/program files (x86)/gnu tools arm embedded/4.8 2013q4/bin/../lib/gcc/arm-none-eabi/4.8.3/../../../../arm-none-eabi/lib/armv7e-m\libstdc++.a(eh_catch.o)
 .ARM.exidx.text.__cxa_end_catch
                0x08027f14        0x8 c:/program files (x86)/gnu tools arm embedded/4.8 2013q4/bin/../lib/gcc/arm-none-eabi/4.8.3/../../../../arm-none-eabi/lib/armv7e-m\libstdc++.a(eh_catch.o)
 .ARM.exidx.text._ZSt18uncaught_exceptionv
                0x08027f1c        0x0 c:/program files (x86)/gnu tools arm embedded/4.8 2013q4/bin/../lib/gcc/arm-none-eabi/4.8.3/../../../../arm-none-eabi/lib/armv7e-m\libstdc++.a(eh_catch.o)
                                  0x8 (size before relaxing)
 .ARM.exidx.text._ZN9__gnu_cxx27__verbose_terminate_handlerEv
                0x08027f1c        0x8 c:/program files (x86)/gnu tools arm embedded/4.8 2013q4/bin/../lib/gcc/arm-none-eabi/4.8.3/../../../../arm-none-eabi/lib/armv7e-m\libstdc++.a(vterminate.o)
 .ARM.exidx.text.__cxa_current_exception_type
                0x08027f24        0x8 c:/program files (x86)/gnu tools arm embedded/4.8 2013q4/bin/../lib/gcc/arm-none-eabi/4.8.3/../../../../arm-none-eabi/lib/armv7e-m\libstdc++.a(eh_type.o)
 .ARM.exidx.text._ZNKSt10bad_typeid4whatEv
                0x08027f2c        0x0 c:/program files (x86)/gnu tools arm embedded/4.8 2013q4/bin/../lib/gcc/arm-none-eabi/4.8.3/../../../../arm-none-eabi/lib/armv7e-m\libstdc++.a(bad_typeid.o)
                                  0x8 (size before relaxing)
 .ARM.exidx.text._ZNSt10bad_typeidD2Ev
                0x08027f2c        0x0 c:/program files (x86)/gnu tools arm embedded/4.8 2013q4/bin/../lib/gcc/arm-none-eabi/4.8.3/../../../../arm-none-eabi/lib/armv7e-m\libstdc++.a(bad_typeid.o)
                                  0x8 (size before relaxing)
 .ARM.exidx.text._ZNSt10bad_typeidD0Ev
                0x08027f2c        0x0 c:/program files (x86)/gnu tools arm embedded/4.8 2013q4/bin/../lib/gcc/arm-none-eabi/4.8.3/../../../../arm-none-eabi/lib/armv7e-m\libstdc++.a(bad_typeid.o)
                                  0x8 (size before relaxing)
 .ARM.exidx.text._ZNKSt8ios_base7failure4whatEv
                0x08027f2c        0x0 c:/program files (x86)/gnu tools arm embedded/4.8 2013q4/bin/../lib/gcc/arm-none-eabi/4.8.3/../../../../arm-none-eabi/lib/armv7e-m\libstdc++.a(ios_failure.o)
                                  0x8 (size before relaxing)
 .ARM.exidx.text._ZNSt8ios_base7failureD2Ev
                0x08027f2c        0x0 c:/program files (x86)/gnu tools arm embedded/4.8 2013q4/bin/../lib/gcc/arm-none-eabi/4.8.3/../../../../arm-none-eabi/lib/armv7e-m\libstdc++.a(ios_failure.o)
                                  0x8 (size before relaxing)
 .ARM.exidx.text._ZNSt8ios_base7failureD0Ev
                0x08027f2c        0x0 c:/program files (x86)/gnu tools arm embedded/4.8 2013q4/bin/../lib/gcc/arm-none-eabi/4.8.3/../../../../arm-none-eabi/lib/armv7e-m\libstdc++.a(ios_failure.o)
                                  0x8 (size before relaxing)
 .ARM.exidx.text._ZNSt8ios_base7failureC2ERKSs
                0x08027f2c        0x8 c:/program files (x86)/gnu tools arm embedded/4.8 2013q4/bin/../lib/gcc/arm-none-eabi/4.8.3/../../../../arm-none-eabi/lib/armv7e-m\libstdc++.a(ios_failure.o)
 .ARM.exidx.text._ZNKSt11logic_error4whatEv
                0x08027f34        0x8 c:/program files (x86)/gnu tools arm embedded/4.8 2013q4/bin/../lib/gcc/arm-none-eabi/4.8.3/../../../../arm-none-eabi/lib/armv7e-m\libstdc++.a(stdexcept.o)
 .ARM.exidx.text._ZNKSt13runtime_error4whatEv
                0x08027f3c        0x0 c:/program files (x86)/gnu tools arm embedded/4.8 2013q4/bin/../lib/gcc/arm-none-eabi/4.8.3/../../../../arm-none-eabi/lib/armv7e-m\libstdc++.a(stdexcept.o)
                                  0x8 (size before relaxing)
 .ARM.exidx.text._ZNSt11logic_errorD2Ev
                0x08027f3c        0x0 c:/program files (x86)/gnu tools arm embedded/4.8 2013q4/bin/../lib/gcc/arm-none-eabi/4.8.3/../../../../arm-none-eabi/lib/armv7e-m\libstdc++.a(stdexcept.o)
                                  0x8 (size before relaxing)
 .ARM.exidx.text._ZNSt11logic_errorD0Ev
                0x08027f3c        0x0 c:/program files (x86)/gnu tools arm embedded/4.8 2013q4/bin/../lib/gcc/arm-none-eabi/4.8.3/../../../../arm-none-eabi/lib/armv7e-m\libstdc++.a(stdexcept.o)
                                  0x8 (size before relaxing)
 .ARM.exidx.text._ZNSt12domain_errorD2Ev
                0x08027f3c        0x0 c:/program files (x86)/gnu tools arm embedded/4.8 2013q4/bin/../lib/gcc/arm-none-eabi/4.8.3/../../../../arm-none-eabi/lib/armv7e-m\libstdc++.a(stdexcept.o)
                                  0x8 (size before relaxing)
 .ARM.exidx.text._ZNSt12domain_errorD0Ev
                0x08027f3c        0x0 c:/program files (x86)/gnu tools arm embedded/4.8 2013q4/bin/../lib/gcc/arm-none-eabi/4.8.3/../../../../arm-none-eabi/lib/armv7e-m\libstdc++.a(stdexcept.o)
                                  0x8 (size before relaxing)
 .ARM.exidx.text._ZNSt16invalid_argumentD2Ev
                0x08027f3c        0x0 c:/program files (x86)/gnu tools arm embedded/4.8 2013q4/bin/../lib/gcc/arm-none-eabi/4.8.3/../../../../arm-none-eabi/lib/armv7e-m\libstdc++.a(stdexcept.o)
                                  0x8 (size before relaxing)
 .ARM.exidx.text._ZNSt16invalid_argumentD0Ev
                0x08027f3c        0x0 c:/program files (x86)/gnu tools arm embedded/4.8 2013q4/bin/../lib/gcc/arm-none-eabi/4.8.3/../../../../arm-none-eabi/lib/armv7e-m\libstdc++.a(stdexcept.o)
                                  0x8 (size before relaxing)
 .ARM.exidx.text._ZNSt12length_errorD2Ev
                0x08027f3c        0x0 c:/program files (x86)/gnu tools arm embedded/4.8 2013q4/bin/../lib/gcc/arm-none-eabi/4.8.3/../../../../arm-none-eabi/lib/armv7e-m\libstdc++.a(stdexcept.o)
                                  0x8 (size before relaxing)
 .ARM.exidx.text._ZNSt12length_errorD0Ev
                0x08027f3c        0x0 c:/program files (x86)/gnu tools arm embedded/4.8 2013q4/bin/../lib/gcc/arm-none-eabi/4.8.3/../../../../arm-none-eabi/lib/armv7e-m\libstdc++.a(stdexcept.o)
                                  0x8 (size before relaxing)
 .ARM.exidx.text._ZNSt12out_of_rangeD2Ev
                0x08027f3c        0x0 c:/program files (x86)/gnu tools arm embedded/4.8 2013q4/bin/../lib/gcc/arm-none-eabi/4.8.3/../../../../arm-none-eabi/lib/armv7e-m\libstdc++.a(stdexcept.o)
                                  0x8 (size before relaxing)
 .ARM.exidx.text._ZNSt12out_of_rangeD0Ev
                0x08027f3c        0x0 c:/program files (x86)/gnu tools arm embedded/4.8 2013q4/bin/../lib/gcc/arm-none-eabi/4.8.3/../../../../arm-none-eabi/lib/armv7e-m\libstdc++.a(stdexcept.o)
                                  0x8 (size before relaxing)
 .ARM.exidx.text._ZNSt13runtime_errorD2Ev
                0x08027f3c        0x0 c:/program files (x86)/gnu tools arm embedded/4.8 2013q4/bin/../lib/gcc/arm-none-eabi/4.8.3/../../../../arm-none-eabi/lib/armv7e-m\libstdc++.a(stdexcept.o)
                                  0x8 (size before relaxing)
 .ARM.exidx.text._ZNSt13runtime_errorD0Ev
                0x08027f3c        0x0 c:/program files (x86)/gnu tools arm embedded/4.8 2013q4/bin/../lib/gcc/arm-none-eabi/4.8.3/../../../../arm-none-eabi/lib/armv7e-m\libstdc++.a(stdexcept.o)
                                  0x8 (size before relaxing)
 .ARM.exidx.text._ZNSt11range_errorD2Ev
                0x08027f3c        0x0 c:/program files (x86)/gnu tools arm embedded/4.8 2013q4/bin/../lib/gcc/arm-none-eabi/4.8.3/../../../../arm-none-eabi/lib/armv7e-m\libstdc++.a(stdexcept.o)
                                  0x8 (size before relaxing)
 .ARM.exidx.text._ZNSt11range_errorD0Ev
                0x08027f3c        0x0 c:/program files (x86)/gnu tools arm embedded/4.8 2013q4/bin/../lib/gcc/arm-none-eabi/4.8.3/../../../../arm-none-eabi/lib/armv7e-m\libstdc++.a(stdexcept.o)
                                  0x8 (size before relaxing)
 .ARM.exidx.text._ZNSt14overflow_errorD2Ev
                0x08027f3c        0x0 c:/program files (x86)/gnu tools arm embedded/4.8 2013q4/bin/../lib/gcc/arm-none-eabi/4.8.3/../../../../arm-none-eabi/lib/armv7e-m\libstdc++.a(stdexcept.o)
                                  0x8 (size before relaxing)
 .ARM.exidx.text._ZNSt14overflow_errorD0Ev
                0x08027f3c        0x0 c:/program files (x86)/gnu tools arm embedded/4.8 2013q4/bin/../lib/gcc/arm-none-eabi/4.8.3/../../../../arm-none-eabi/lib/armv7e-m\libstdc++.a(stdexcept.o)
                                  0x8 (size before relaxing)
 .ARM.exidx.text._ZNSt15underflow_errorD2Ev
                0x08027f3c        0x0 c:/program files (x86)/gnu tools arm embedded/4.8 2013q4/bin/../lib/gcc/arm-none-eabi/4.8.3/../../../../arm-none-eabi/lib/armv7e-m\libstdc++.a(stdexcept.o)
                                  0x8 (size before relaxing)
 .ARM.exidx.text._ZNSt15underflow_errorD0Ev
                0x08027f3c        0x0 c:/program files (x86)/gnu tools arm embedded/4.8 2013q4/bin/../lib/gcc/arm-none-eabi/4.8.3/../../../../arm-none-eabi/lib/armv7e-m\libstdc++.a(stdexcept.o)
                                  0x8 (size before relaxing)
 .ARM.exidx.text._ZNSt11logic_errorC2ERKSs
                0x08027f3c        0x8 c:/program files (x86)/gnu tools arm embedded/4.8 2013q4/bin/../lib/gcc/arm-none-eabi/4.8.3/../../../../arm-none-eabi/lib/armv7e-m\libstdc++.a(stdexcept.o)
 .ARM.exidx.text._ZNSt12domain_errorC2ERKSs
                0x08027f44        0x8 c:/program files (x86)/gnu tools arm embedded/4.8 2013q4/bin/../lib/gcc/arm-none-eabi/4.8.3/../../../../arm-none-eabi/lib/armv7e-m\libstdc++.a(stdexcept.o)
 .ARM.exidx.text._ZNSt16invalid_argumentC2ERKSs
                0x08027f4c        0x0 c:/program files (x86)/gnu tools arm embedded/4.8 2013q4/bin/../lib/gcc/arm-none-eabi/4.8.3/../../../../arm-none-eabi/lib/armv7e-m\libstdc++.a(stdexcept.o)
                                  0x8 (size before relaxing)
 .ARM.exidx.text._ZNSt12length_errorC2ERKSs
                0x08027f4c        0x0 c:/program files (x86)/gnu tools arm embedded/4.8 2013q4/bin/../lib/gcc/arm-none-eabi/4.8.3/../../../../arm-none-eabi/lib/armv7e-m\libstdc++.a(stdexcept.o)
                                  0x8 (size before relaxing)
 .ARM.exidx.text._ZNSt12out_of_rangeC2ERKSs
                0x08027f4c        0x0 c:/program files (x86)/gnu tools arm embedded/4.8 2013q4/bin/../lib/gcc/arm-none-eabi/4.8.3/../../../../arm-none-eabi/lib/armv7e-m\libstdc++.a(stdexcept.o)
                                  0x8 (size before relaxing)
 .ARM.exidx.text._ZNSt13runtime_errorC2ERKSs
                0x08027f4c        0x8 c:/program files (x86)/gnu tools arm embedded/4.8 2013q4/bin/../lib/gcc/arm-none-eabi/4.8.3/../../../../arm-none-eabi/lib/armv7e-m\libstdc++.a(stdexcept.o)
 .ARM.exidx.text._ZNSt11range_errorC2ERKSs
                0x08027f54        0x8 c:/program files (x86)/gnu tools arm embedded/4.8 2013q4/bin/../lib/gcc/arm-none-eabi/4.8.3/../../../../arm-none-eabi/lib/armv7e-m\libstdc++.a(stdexcept.o)
 .ARM.exidx.text._ZNSt14overflow_errorC2ERKSs
                0x08027f5c        0x0 c:/program files (x86)/gnu tools arm embedded/4.8 2013q4/bin/../lib/gcc/arm-none-eabi/4.8.3/../../../../arm-none-eabi/lib/armv7e-m\libstdc++.a(stdexcept.o)
                                  0x8 (size before relaxing)
 .ARM.exidx.text._ZNSt15underflow_errorC2ERKSs
                0x08027f5c        0x0 c:/program files (x86)/gnu tools arm embedded/4.8 2013q4/bin/../lib/gcc/arm-none-eabi/4.8.3/../../../../arm-none-eabi/lib/armv7e-m\libstdc++.a(stdexcept.o)
                                  0x8 (size before relaxing)
 .ARM.exidx.text._ZNK12_GLOBAL__N_122generic_error_category4nameEv
                0x08027f5c        0x8 c:/program files (x86)/gnu tools arm embedded/4.8 2013q4/bin/../lib/gcc/arm-none-eabi/4.8.3/../../../../arm-none-eabi/lib/armv7e-m\libstdc++.a(system_error.o)
 .ARM.exidx.text._ZNK12_GLOBAL__N_121system_error_category4nameEv
                0x08027f64        0x0 c:/program files (x86)/gnu tools arm embedded/4.8 2013q4/bin/../lib/gcc/arm-none-eabi/4.8.3/../../../../arm-none-eabi/lib/armv7e-m\libstdc++.a(system_error.o)
                                  0x8 (size before relaxing)
 .ARM.exidx.text._ZNSt14error_categoryD2Ev
                0x08027f64        0x0 c:/program files (x86)/gnu tools arm embedded/4.8 2013q4/bin/../lib/gcc/arm-none-eabi/4.8.3/../../../../arm-none-eabi/lib/armv7e-m\libstdc++.a(system_error.o)
                                  0x8 (size before relaxing)
 .ARM.exidx.text._ZNKSt14error_category23default_error_conditionEi
                0x08027f64        0x0 c:/program files (x86)/gnu tools arm embedded/4.8 2013q4/bin/../lib/gcc/arm-none-eabi/4.8.3/../../../../arm-none-eabi/lib/armv7e-m\libstdc++.a(system_error.o)
                                  0x8 (size before relaxing)
 .ARM.exidx.text._ZNKSt14error_category10equivalentEiRKSt15error_condition
                0x08027f64        0x0 c:/program files (x86)/gnu tools arm embedded/4.8 2013q4/bin/../lib/gcc/arm-none-eabi/4.8.3/../../../../arm-none-eabi/lib/armv7e-m\libstdc++.a(system_error.o)
                                  0x8 (size before relaxing)
 .ARM.exidx.text._ZNKSt14error_category10equivalentERKSt10error_codei
                0x08027f64        0x0 c:/program files (x86)/gnu tools arm embedded/4.8 2013q4/bin/../lib/gcc/arm-none-eabi/4.8.3/../../../../arm-none-eabi/lib/armv7e-m\libstdc++.a(system_error.o)
                                  0x8 (size before relaxing)
 .ARM.exidx.text._ZN12_GLOBAL__N_121system_error_categoryD2Ev
                0x08027f64        0x0 c:/program files (x86)/gnu tools arm embedded/4.8 2013q4/bin/../lib/gcc/arm-none-eabi/4.8.3/../../../../arm-none-eabi/lib/armv7e-m\libstdc++.a(system_error.o)
                                  0x8 (size before relaxing)
 .ARM.exidx.text._ZN12_GLOBAL__N_122generic_error_categoryD2Ev
                0x08027f64        0x0 c:/program files (x86)/gnu tools arm embedded/4.8 2013q4/bin/../lib/gcc/arm-none-eabi/4.8.3/../../../../arm-none-eabi/lib/armv7e-m\libstdc++.a(system_error.o)
                                  0x8 (size before relaxing)
 .ARM.exidx.text._ZNSt14error_categoryD0Ev
                0x08027f64        0x0 c:/program files (x86)/gnu tools arm embedded/4.8 2013q4/bin/../lib/gcc/arm-none-eabi/4.8.3/../../../../arm-none-eabi/lib/armv7e-m\libstdc++.a(system_error.o)
                                  0x8 (size before relaxing)
 .ARM.exidx.text._ZN12_GLOBAL__N_121system_error_categoryD0Ev
                0x08027f64        0x0 c:/program files (x86)/gnu tools arm embedded/4.8 2013q4/bin/../lib/gcc/arm-none-eabi/4.8.3/../../../../arm-none-eabi/lib/armv7e-m\libstdc++.a(system_error.o)
                                  0x8 (size before relaxing)
 .ARM.exidx.text._ZN12_GLOBAL__N_122generic_error_categoryD0Ev
                0x08027f64        0x0 c:/program files (x86)/gnu tools arm embedded/4.8 2013q4/bin/../lib/gcc/arm-none-eabi/4.8.3/../../../../arm-none-eabi/lib/armv7e-m\libstdc++.a(system_error.o)
                                  0x8 (size before relaxing)
 .ARM.exidx.text._ZNSt12system_errorD2Ev
                0x08027f64        0x0 c:/program files (x86)/gnu tools arm embedded/4.8 2013q4/bin/../lib/gcc/arm-none-eabi/4.8.3/../../../../arm-none-eabi/lib/armv7e-m\libstdc++.a(system_error.o)
                                  0x8 (size before relaxing)
 .ARM.exidx.text._ZNSt12system_errorD0Ev
                0x08027f64        0x0 c:/program files (x86)/gnu tools arm embedded/4.8 2013q4/bin/../lib/gcc/arm-none-eabi/4.8.3/../../../../arm-none-eabi/lib/armv7e-m\libstdc++.a(system_error.o)
                                  0x8 (size before relaxing)
 .ARM.exidx.text._ZNK12_GLOBAL__N_121system_error_category7messageEi
                0x08027f64        0x8 c:/program files (x86)/gnu tools arm embedded/4.8 2013q4/bin/../lib/gcc/arm-none-eabi/4.8.3/../../../../arm-none-eabi/lib/armv7e-m\libstdc++.a(system_error.o)
 .ARM.exidx.text._ZNK12_GLOBAL__N_122generic_error_category7messageEi
                0x08027f6c        0x0 c:/program files (x86)/gnu tools arm embedded/4.8 2013q4/bin/../lib/gcc/arm-none-eabi/4.8.3/../../../../arm-none-eabi/lib/armv7e-m\libstdc++.a(system_error.o)
                                  0x8 (size before relaxing)
 .ARM.exidx.text._ZNSt14error_categoryC2Ev
                0x08027f6c        0x8 c:/program files (x86)/gnu tools arm embedded/4.8 2013q4/bin/../lib/gcc/arm-none-eabi/4.8.3/../../../../arm-none-eabi/lib/armv7e-m\libstdc++.a(system_error.o)
 .ARM.exidx.text._ZSt15system_categoryv
                0x08027f74        0x0 c:/program files (x86)/gnu tools arm embedded/4.8 2013q4/bin/../lib/gcc/arm-none-eabi/4.8.3/../../../../arm-none-eabi/lib/armv7e-m\libstdc++.a(system_error.o)
                                  0x8 (size before relaxing)
 .ARM.exidx.text._ZSt16generic_categoryv
                0x08027f74        0x0 c:/program files (x86)/gnu tools arm embedded/4.8 2013q4/bin/../lib/gcc/arm-none-eabi/4.8.3/../../../../arm-none-eabi/lib/armv7e-m\libstdc++.a(system_error.o)
                                  0x8 (size before relaxing)
 .ARM.exidx.text._ZNKSt10error_code23default_error_conditionEv
                0x08027f74        0x0 c:/program files (x86)/gnu tools arm embedded/4.8 2013q4/bin/../lib/gcc/arm-none-eabi/4.8.3/../../../../arm-none-eabi/lib/armv7e-m\libstdc++.a(system_error.o)
                                  0x8 (size before relaxing)
 .ARM.exidx.text.startup._GLOBAL__sub_I__ZNSt14error_categoryC2Ev
                0x08027f74        0x0 c:/program files (x86)/gnu tools arm embedded/4.8 2013q4/bin/../lib/gcc/arm-none-eabi/4.8.3/../../../../arm-none-eabi/lib/armv7e-m\libstdc++.a(system_error.o)
                                  0x8 (size before relaxing)
 .ARM.exidx.text._ZNK12_GLOBAL__N_121future_error_category4nameEv
                0x08027f74        0x0 c:/program files (x86)/gnu tools arm embedded/4.8 2013q4/bin/../lib/gcc/arm-none-eabi/4.8.3/../../../../arm-none-eabi/lib/armv7e-m\libstdc++.a(future.o)
                                  0x8 (size before relaxing)
 .ARM.exidx.text._ZN12_GLOBAL__N_121future_error_categoryD2Ev
                0x08027f74        0x0 c:/program files (x86)/gnu tools arm embedded/4.8 2013q4/bin/../lib/gcc/arm-none-eabi/4.8.3/../../../../arm-none-eabi/lib/armv7e-m\libstdc++.a(future.o)
                                  0x8 (size before relaxing)
 .ARM.exidx.text._ZN12_GLOBAL__N_121future_error_categoryD0Ev
                0x08027f74        0x0 c:/program files (x86)/gnu tools arm embedded/4.8 2013q4/bin/../lib/gcc/arm-none-eabi/4.8.3/../../../../arm-none-eabi/lib/armv7e-m\libstdc++.a(future.o)
                                  0x8 (size before relaxing)
 .ARM.exidx.text._ZNSt12future_errorD2Ev
                0x08027f74        0x0 c:/program files (x86)/gnu tools arm embedded/4.8 2013q4/bin/../lib/gcc/arm-none-eabi/4.8.3/../../../../arm-none-eabi/lib/armv7e-m\libstdc++.a(future.o)
                                  0x8 (size before relaxing)
 .ARM.exidx.text._ZNSt12future_errorD0Ev
                0x08027f74        0x0 c:/program files (x86)/gnu tools arm embedded/4.8 2013q4/bin/../lib/gcc/arm-none-eabi/4.8.3/../../../../arm-none-eabi/lib/armv7e-m\libstdc++.a(future.o)
                                  0x8 (size before relaxing)
 .ARM.exidx.text._ZNKSt12future_error4whatEv
                0x08027f74        0x8 c:/program files (x86)/gnu tools arm embedded/4.8 2013q4/bin/../lib/gcc/arm-none-eabi/4.8.3/../../../../arm-none-eabi/lib/armv7e-m\libstdc++.a(future.o)
 .ARM.exidx.text._ZNK12_GLOBAL__N_121future_error_category7messageEi
                0x08027f7c        0x8 c:/program files (x86)/gnu tools arm embedded/4.8 2013q4/bin/../lib/gcc/arm-none-eabi/4.8.3/../../../../arm-none-eabi/lib/armv7e-m\libstdc++.a(future.o)
 .ARM.exidx.text._ZSt15future_categoryv
                0x08027f84        0x8 c:/program files (x86)/gnu tools arm embedded/4.8 2013q4/bin/../lib/gcc/arm-none-eabi/4.8.3/../../../../arm-none-eabi/lib/armv7e-m\libstdc++.a(future.o)
 .ARM.exidx.text._ZNSt11regex_errorD2Ev
                0x08027f8c        0x0 c:/program files (x86)/gnu tools arm embedded/4.8 2013q4/bin/../lib/gcc/arm-none-eabi/4.8.3/../../../../arm-none-eabi/lib/armv7e-m\libstdc++.a(regex.o)
                                  0x8 (size before relaxing)
 .ARM.exidx.text._ZNSt11regex_errorD0Ev
                0x08027f8c        0x0 c:/program files (x86)/gnu tools arm embedded/4.8 2013q4/bin/../lib/gcc/arm-none-eabi/4.8.3/../../../../arm-none-eabi/lib/armv7e-m\libstdc++.a(regex.o)
                                  0x8 (size before relaxing)
 .ARM.exidx.text._ZNSt11regex_errorC2ENSt15regex_constants10error_typeE
                0x08027f8c        0x8 c:/program files (x86)/gnu tools arm embedded/4.8 2013q4/bin/../lib/gcc/arm-none-eabi/4.8.3/../../../../arm-none-eabi/lib/armv7e-m\libstdc++.a(regex.o)
 .ARM.exidx.text.__cxa_guard_acquire
                0x08027f94        0x8 c:/program files (x86)/gnu tools arm embedded/4.8 2013q4/bin/../lib/gcc/arm-none-eabi/4.8.3/../../../../arm-none-eabi/lib/armv7e-m\libstdc++.a(guard.o)
 .ARM.exidx.text.__cxa_guard_abort
                0x08027f9c        0x8 c:/program files (x86)/gnu tools arm embedded/4.8 2013q4/bin/../lib/gcc/arm-none-eabi/4.8.3/../../../../arm-none-eabi/lib/armv7e-m\libstdc++.a(guard.o)
 .ARM.exidx.text.__cxa_guard_release
                0x08027fa4        0x0 c:/program files (x86)/gnu tools arm embedded/4.8 2013q4/bin/../lib/gcc/arm-none-eabi/4.8.3/../../../../arm-none-eabi/lib/armv7e-m\libstdc++.a(guard.o)
                                  0x8 (size before relaxing)
 .ARM.exidx.text._ZN9__gnu_cxx20recursive_init_errorD2Ev
                0x08027fa4        0x0 c:/program files (x86)/gnu tools arm embedded/4.8 2013q4/bin/../lib/gcc/arm-none-eabi/4.8.3/../../../../arm-none-eabi/lib/armv7e-m\libstdc++.a(guard_error.o)
                                  0x8 (size before relaxing)
 .ARM.exidx.text._ZN9__gnu_cxx20recursive_init_errorD0Ev
                0x08027fa4        0x0 c:/program files (x86)/gnu tools arm embedded/4.8 2013q4/bin/../lib/gcc/arm-none-eabi/4.8.3/../../../../arm-none-eabi/lib/armv7e-m\libstdc++.a(guard_error.o)
                                  0x8 (size before relaxing)
 .ARM.exidx     0x080278e4       0x88 c:/program files (x86)/gnu tools arm embedded/4.8 2013q4/bin/../lib/gcc/arm-none-eabi/4.8.3/armv7e-m\libgcc.a(unwind-arm.o)
                                 0xd8 (size before relaxing)
 .ARM.exidx     0x0802796c       0x38 c:/program files (x86)/gnu tools arm embedded/4.8 2013q4/bin/../lib/gcc/arm-none-eabi/4.8.3/armv7e-m\libgcc.a(pr-support.o)
                                 0x48 (size before relaxing)
 .ARM.exidx     0x080279a4        0x0 c:/program files (x86)/gnu tools arm embedded/4.8 2013q4/bin/../lib/gcc/arm-none-eabi/4.8.3/armv7e-m\libgcc.a(_divdi3.o)
                                  0x8 (size before relaxing)
 .ARM.exidx     0x080279a4        0x0 c:/program files (x86)/gnu tools arm embedded/4.8 2013q4/bin/../lib/gcc/arm-none-eabi/4.8.3/armv7e-m\libgcc.a(_udivdi3.o)
                                  0x8 (size before relaxing)
                0x08027fa4                __exidx_end = .

.rel.dyn        0x08027fa4        0x0
 .rel.iplt      0x00000000        0x0 c:/program files (x86)/gnu tools arm embedded/4.8 2013q4/bin/../lib/gcc/arm-none-eabi/4.8.3/armv7e-m/crtbegin.o

.preinit_array  0x08027fa4        0x0
                0x08027fa4                PROVIDE (__preinit_array_start, .)
 *(.preinit_array*)
                0x08027fa4                PROVIDE (__preinit_array_end, .)

.init_array     0x08027fa4       0x14
                0x08027fa4                PROVIDE (__init_array_start, .)
 *(SORT(.init_array.*))
 .init_array.00000
                0x08027fa4        0x4 c:/program files (x86)/gnu tools arm embedded/4.8 2013q4/bin/../lib/gcc/arm-none-eabi/4.8.3/../../../../arm-none-eabi/lib/armv7e-m\libc.a(lib_a-__call_atexit.o)
 *(.init_array*)
 .init_array    0x08027fa8        0x4 c:/program files (x86)/gnu tools arm embedded/4.8 2013q4/bin/../lib/gcc/arm-none-eabi/4.8.3/armv7e-m/crtbegin.o
 .init_array    0x08027fac        0x4 ../build/obj/osctypes.o
 .init_array    0x08027fb0        0x4 ../build/obj/udp_color_server.o
 .init_array    0x08027fb4        0x4 c:/program files (x86)/gnu tools arm embedded/4.8 2013q4/bin/../lib/gcc/arm-none-eabi/4.8.3/../../../../arm-none-eabi/lib/armv7e-m\libstdc++.a(system_error.o)
                0x08027fb8                PROVIDE (__init_array_end, .)

.fini_array     0x08027fb8        0x4
                0x08027fb8                PROVIDE (__fini_array_start, .)
 *(SORT(.fini_array.*))
 *(.fini_array*)
 .fini_array    0x08027fb8        0x4 c:/program files (x86)/gnu tools arm embedded/4.8 2013q4/bin/../lib/gcc/arm-none-eabi/4.8.3/armv7e-m/crtbegin.o
                0x08027fbc                PROVIDE (__fini_array_end, .)
                0x08027fbc                _sidata = LOADADDR (.data)

.data           0x20000000      0x914 load address 0x08027fbc
                0x20000000                . = ALIGN (0x4)
                0x20000000                _sdata = .
 *(.data)
 .data          0x20000000        0x0 c:/program files (x86)/gnu tools arm embedded/4.8 2013q4/bin/../lib/gcc/arm-none-eabi/4.8.3/armv7e-m/crti.o
 .data          0x20000000        0x4 c:/program files (x86)/gnu tools arm embedded/4.8 2013q4/bin/../lib/gcc/arm-none-eabi/4.8.3/armv7e-m/crtbegin.o
                0x20000000                __dso_handle
 .data          0x20000004        0x0 c:/program files (x86)/gnu tools arm embedded/4.8 2013q4/bin/../lib/gcc/arm-none-eabi/4.8.3/../../../../arm-none-eabi/lib/armv7e-m/crt0.o
 .data          0x20000004       0x14 ../build/obj/system_stm32f4xx.o
                0x20000004                SystemCoreClock
                0x20000008                AHBPrescTable
 .data          0x20000018       0x14 ../build/obj/bget.o
 .data          0x2000002c        0x0 ../build/obj/api_lib.o
 .data          0x2000002c        0x0 ../build/obj/api_msg.o
 .data          0x2000002c        0x0 ../build/obj/err.o
 .data          0x2000002c        0x0 ../build/obj/netbuf.o
 .data          0x2000002c        0x0 ../build/obj/netdb.o
 .data          0x2000002c        0x0 ../build/obj/netifapi.o
 .data          0x2000002c        0x0 ../build/obj/sockets.o
 .data          0x2000002c        0x0 ../build/obj/tcpip.o
 .data          0x2000002c        0x0 ../build/obj/def.o
 .data          0x2000002c        0x4 ../build/obj/dhcp.o
 .data          0x20000030        0x0 ../build/obj/dns.o
 .data          0x20000030        0x0 ../build/obj/init.o
 .data          0x20000030        0x0 ../build/obj/mem.o
 .data          0x20000030        0x0 ../build/obj/memp.o
 .data          0x20000030        0x0 ../build/obj/netif.o
 .data          0x20000030        0x0 ../build/obj/pbuf.o
 .data          0x20000030        0x0 ../build/obj/raw.o
 .data          0x20000030        0x0 ../build/obj/stats.o
 .data          0x20000030        0x0 ../build/obj/sys.o
 .data          0x20000030        0x0 ../build/obj/tcp.o
 .data          0x20000030        0x0 ../build/obj/tcp_in.o
 .data          0x20000030        0x0 ../build/obj/tcp_out.o
 .data          0x20000030        0x0 ../build/obj/timers.o
 .data          0x20000030        0x2 ../build/obj/udp.o
 .data          0x20000032        0x0 ../build/obj/autoip.o
 .data          0x20000032        0x0 ../build/obj/icmp.o
 .data          0x20000032        0x0 ../build/obj/igmp.o
 .data          0x20000032        0x0 ../build/obj/inet.o
 .data          0x20000032        0x0 ../build/obj/inet_chksum.o
 .data          0x20000032        0x0 ../build/obj/ip.o
 .data          0x20000032        0x0 ../build/obj/ip_addr.o
 .data          0x20000032        0x0 ../build/obj/ip_frag.o
 .data          0x20000032        0x0 ../build/obj/etharp.o
 .data          0x20000032        0x0 ../build/obj/slipif.o
 .data          0x20000032        0x0 ../build/obj/ethernetif.o
 .data          0x20000032        0x0 ../build/obj/stm32f4x7_eth_bsp.o
 .data          0x20000032        0x0 ../build/obj/stm32f4x7_eth.o
 .data          0x20000032        0x0 ../build/obj/misc.o
 .data          0x20000032        0x0 ../build/obj/stm32f4xx_dma.o
 .data          0x20000032        0x0 ../build/obj/stm32f4xx_exti.o
 .data          0x20000032        0x0 ../build/obj/stm32f4xx_gpio.o
 .data          0x20000032       0x10 ../build/obj/stm32f4xx_rcc.o
 .data          0x20000042        0x0 ../build/obj/stm32f4xx_syscfg.o
 .data          0x20000042        0x0 ../build/obj/stm32f4xx_tim.o
 .data          0x20000042        0x0 ../build/obj/netconf.o
 .data          0x20000042        0x0 ../build/obj/startup_stm32f4xx.o
 .data          0x20000042        0x0 ../build/obj/oscreceivedelements.o
 .data          0x20000042        0x0 ../build/obj/osctypes.o
 .data          0x20000042        0x2 ../build/obj/buffs_iram1.o
                0x20000042                clock_rising_buffer
 .data          0x20000044        0x0 ../build/obj/buffs_iram2.o
 .data          0x20000044        0x4 ../build/obj/sys_conf.o
                0x20000044                environ
 .data          0x20000048        0x0 ../build/obj/stm32f4xx_it.o
 .data          0x20000048        0x0 ../build/obj/grizzlysys.o
 .data          0x20000048        0x0 ../build/obj/grizzlyapp.o
 .data          0x20000048        0x0 ../build/obj/udp_color_server.o
 .data          0x20000048        0x0 ../build/obj/main.o
 .data          0x20000048        0x0 c:/program files (x86)/gnu tools arm embedded/4.8 2013q4/bin/../lib/gcc/arm-none-eabi/4.8.3/../../../../arm-none-eabi/lib/armv7e-m\libm.a(lib_a-w_pow.o)
 .data          0x20000048        0x0 c:/program files (x86)/gnu tools arm embedded/4.8 2013q4/bin/../lib/gcc/arm-none-eabi/4.8.3/../../../../arm-none-eabi/lib/armv7e-m\libm.a(lib_a-e_pow.o)
 .data          0x20000048        0x0 c:/program files (x86)/gnu tools arm embedded/4.8 2013q4/bin/../lib/gcc/arm-none-eabi/4.8.3/../../../../arm-none-eabi/lib/armv7e-m\libm.a(lib_a-e_sqrt.o)
 .data          0x20000048        0x0 c:/program files (x86)/gnu tools arm embedded/4.8 2013q4/bin/../lib/gcc/arm-none-eabi/4.8.3/../../../../arm-none-eabi/lib/armv7e-m\libm.a(lib_a-s_fabs.o)
 .data          0x20000048        0x0 c:/program files (x86)/gnu tools arm embedded/4.8 2013q4/bin/../lib/gcc/arm-none-eabi/4.8.3/../../../../arm-none-eabi/lib/armv7e-m\libm.a(lib_a-s_finite.o)
 .data          0x20000048        0x0 c:/program files (x86)/gnu tools arm embedded/4.8 2013q4/bin/../lib/gcc/arm-none-eabi/4.8.3/../../../../arm-none-eabi/lib/armv7e-m\libm.a(lib_a-s_fpclassify.o)
 .data          0x20000048        0x0 c:/program files (x86)/gnu tools arm embedded/4.8 2013q4/bin/../lib/gcc/arm-none-eabi/4.8.3/../../../../arm-none-eabi/lib/armv7e-m\libm.a(lib_a-s_lib_ver.o)
 .data          0x20000048        0x0 c:/program files (x86)/gnu tools arm embedded/4.8 2013q4/bin/../lib/gcc/arm-none-eabi/4.8.3/../../../../arm-none-eabi/lib/armv7e-m\libm.a(lib_a-s_matherr.o)
 .data          0x20000048        0x0 c:/program files (x86)/gnu tools arm embedded/4.8 2013q4/bin/../lib/gcc/arm-none-eabi/4.8.3/../../../../arm-none-eabi/lib/armv7e-m\libm.a(lib_a-s_nan.o)
 .data          0x20000048        0x0 c:/program files (x86)/gnu tools arm embedded/4.8 2013q4/bin/../lib/gcc/arm-none-eabi/4.8.3/../../../../arm-none-eabi/lib/armv7e-m\libm.a(lib_a-s_rint.o)
 .data          0x20000048        0x0 c:/program files (x86)/gnu tools arm embedded/4.8 2013q4/bin/../lib/gcc/arm-none-eabi/4.8.3/../../../../arm-none-eabi/lib/armv7e-m\libm.a(lib_a-s_scalbn.o)
 .data          0x20000048        0x0 c:/program files (x86)/gnu tools arm embedded/4.8 2013q4/bin/../lib/gcc/arm-none-eabi/4.8.3/../../../../arm-none-eabi/lib/armv7e-m\libm.a(lib_a-s_copysign.o)
 .data          0x20000048        0x0 c:/program files (x86)/gnu tools arm embedded/4.8 2013q4/bin/../lib/gcc/arm-none-eabi/4.8.3/../../../../arm-none-eabi/lib/armv7e-m\libstdc++.a(pointer_type_info.o)
 .data          0x20000048        0x0 c:/program files (x86)/gnu tools arm embedded/4.8 2013q4/bin/../lib/gcc/arm-none-eabi/4.8.3/../../../../arm-none-eabi/lib/armv7e-m\libstdc++.a(fundamental_type_info.o)
 .data          0x20000048        0x0 c:/program files (x86)/gnu tools arm embedded/4.8 2013q4/bin/../lib/gcc/arm-none-eabi/4.8.3/../../../../arm-none-eabi/lib/armv7e-m\libstdc++.a(si_class_type_info.o)
 .data          0x20000048        0x0 c:/program files (x86)/gnu tools arm embedded/4.8 2013q4/bin/../lib/gcc/arm-none-eabi/4.8.3/../../../../arm-none-eabi/lib/armv7e-m\libstdc++.a(pure.o)
 .data          0x20000048        0x0 c:/program files (x86)/gnu tools arm embedded/4.8 2013q4/bin/../lib/gcc/arm-none-eabi/4.8.3/../../../../arm-none-eabi/lib/armv7e-m\libstdc++.a(pbase_type_info.o)
 .data          0x20000048        0x0 c:/program files (x86)/gnu tools arm embedded/4.8 2013q4/bin/../lib/gcc/arm-none-eabi/4.8.3/../../../../arm-none-eabi/lib/armv7e-m\libstdc++.a(eh_exception.o)
 .data          0x20000048        0x0 c:/program files (x86)/gnu tools arm embedded/4.8 2013q4/bin/../lib/gcc/arm-none-eabi/4.8.3/../../../../arm-none-eabi/lib/armv7e-m\libstdc++.a(del_op.o)
 .data          0x20000048        0x0 c:/program files (x86)/gnu tools arm embedded/4.8 2013q4/bin/../lib/gcc/arm-none-eabi/4.8.3/../../../../arm-none-eabi/lib/armv7e-m\libstdc++.a(class_type_info.o)
 .data          0x20000048        0x0 c:/program files (x86)/gnu tools arm embedded/4.8 2013q4/bin/../lib/gcc/arm-none-eabi/4.8.3/../../../../arm-none-eabi/lib/armv7e-m\libstdc++.a(atexit_arm.o)
 .data          0x20000048        0x0 c:/program files (x86)/gnu tools arm embedded/4.8 2013q4/bin/../lib/gcc/arm-none-eabi/4.8.3/../../../../arm-none-eabi/lib/armv7e-m\libstdc++.a(eh_throw.o)
 .data          0x20000048        0x0 c:/program files (x86)/gnu tools arm embedded/4.8 2013q4/bin/../lib/gcc/arm-none-eabi/4.8.3/../../../../arm-none-eabi/lib/armv7e-m\libstdc++.a(new_op.o)
 .data          0x20000048        0x0 c:/program files (x86)/gnu tools arm embedded/4.8 2013q4/bin/../lib/gcc/arm-none-eabi/4.8.3/../../../../arm-none-eabi/lib/armv7e-m\libstdc++.a(eh_personality.o)
 .data          0x20000048        0x0 c:/program files (x86)/gnu tools arm embedded/4.8 2013q4/bin/../lib/gcc/arm-none-eabi/4.8.3/../../../../arm-none-eabi/lib/armv7e-m\libstdc++.a(eh_term_handler.o)
 .data          0x20000048        0x0 c:/program files (x86)/gnu tools arm embedded/4.8 2013q4/bin/../lib/gcc/arm-none-eabi/4.8.3/../../../../arm-none-eabi/lib/armv7e-m\libstdc++.a(eh_alloc.o)
 .data          0x20000048        0x0 c:/program files (x86)/gnu tools arm embedded/4.8 2013q4/bin/../lib/gcc/arm-none-eabi/4.8.3/../../../../arm-none-eabi/lib/armv7e-m\libstdc++.a(function_type_info.o)
 .data          0x20000048        0x0 c:/program files (x86)/gnu tools arm embedded/4.8 2013q4/bin/../lib/gcc/arm-none-eabi/4.8.3/../../../../arm-none-eabi/lib/armv7e-m\libstdc++.a(eh_terminate.o)
 .data          0x20000048        0x0 c:/program files (x86)/gnu tools arm embedded/4.8 2013q4/bin/../lib/gcc/arm-none-eabi/4.8.3/../../../../arm-none-eabi/lib/armv7e-m\libstdc++.a(tinfo.o)
 .data          0x20000048        0x0 c:/program files (x86)/gnu tools arm embedded/4.8 2013q4/bin/../lib/gcc/arm-none-eabi/4.8.3/../../../../arm-none-eabi/lib/armv7e-m\libstdc++.a(eh_unex_handler.o)
 .data          0x20000048        0x0 c:/program files (x86)/gnu tools arm embedded/4.8 2013q4/bin/../lib/gcc/arm-none-eabi/4.8.3/../../../../arm-none-eabi/lib/armv7e-m\libstdc++.a(string-inst.o)
 .data          0x20000048        0x0 c:/program files (x86)/gnu tools arm embedded/4.8 2013q4/bin/../lib/gcc/arm-none-eabi/4.8.3/../../../../arm-none-eabi/lib/armv7e-m\libstdc++.a(hashtable_c++0x.o)
 .data          0x20000048        0x0 c:/program files (x86)/gnu tools arm embedded/4.8 2013q4/bin/../lib/gcc/arm-none-eabi/4.8.3/../../../../arm-none-eabi/lib/armv7e-m\libstdc++.a(functexcept.o)
 .data          0x20000048        0x0 c:/program files (x86)/gnu tools arm embedded/4.8 2013q4/bin/../lib/gcc/arm-none-eabi/4.8.3/../../../../arm-none-eabi/lib/armv7e-m\libstdc++.a(functional.o)
 .data          0x20000048        0x0 c:/program files (x86)/gnu tools arm embedded/4.8 2013q4/bin/../lib/gcc/arm-none-eabi/4.8.3/../../../../arm-none-eabi/lib/armv7e-m\libstdc++.a(eh_call.o)
 .data          0x20000048        0x0 c:/program files (x86)/gnu tools arm embedded/4.8 2013q4/bin/../lib/gcc/arm-none-eabi/4.8.3/../../../../arm-none-eabi/lib/armv7e-m\libstdc++.a(eh_arm.o)
 .data          0x20000048        0x0 c:/program files (x86)/gnu tools arm embedded/4.8 2013q4/bin/../lib/gcc/arm-none-eabi/4.8.3/../../../../arm-none-eabi/lib/armv7e-m\libstdc++.a(new_handler.o)
 .data          0x20000048        0x0 c:/program files (x86)/gnu tools arm embedded/4.8 2013q4/bin/../lib/gcc/arm-none-eabi/4.8.3/../../../../arm-none-eabi/lib/armv7e-m\libstdc++.a(bad_alloc.o)
 .data          0x20000048        0x0 c:/program files (x86)/gnu tools arm embedded/4.8 2013q4/bin/../lib/gcc/arm-none-eabi/4.8.3/../../../../arm-none-eabi/lib/armv7e-m\libstdc++.a(eh_aux_runtime.o)
 .data          0x20000048        0x0 c:/program files (x86)/gnu tools arm embedded/4.8 2013q4/bin/../lib/gcc/arm-none-eabi/4.8.3/../../../../arm-none-eabi/lib/armv7e-m\libstdc++.a(eh_globals.o)
 .data          0x20000048        0x0 c:/program files (x86)/gnu tools arm embedded/4.8 2013q4/bin/../lib/gcc/arm-none-eabi/4.8.3/../../../../arm-none-eabi/lib/armv7e-m\libstdc++.a(bad_cast.o)
 .data          0x20000048        0x0 c:/program files (x86)/gnu tools arm embedded/4.8 2013q4/bin/../lib/gcc/arm-none-eabi/4.8.3/../../../../arm-none-eabi/lib/armv7e-m\libstdc++.a(eh_catch.o)
 .data          0x20000048        0x0 c:/program files (x86)/gnu tools arm embedded/4.8 2013q4/bin/../lib/gcc/arm-none-eabi/4.8.3/../../../../arm-none-eabi/lib/armv7e-m\libstdc++.a(vterminate.o)
 .data          0x20000048        0x0 c:/program files (x86)/gnu tools arm embedded/4.8 2013q4/bin/../lib/gcc/arm-none-eabi/4.8.3/../../../../arm-none-eabi/lib/armv7e-m\libstdc++.a(eh_type.o)
 .data          0x20000048        0x0 c:/program files (x86)/gnu tools arm embedded/4.8 2013q4/bin/../lib/gcc/arm-none-eabi/4.8.3/../../../../arm-none-eabi/lib/armv7e-m\libstdc++.a(bad_typeid.o)
 .data          0x20000048        0x0 c:/program files (x86)/gnu tools arm embedded/4.8 2013q4/bin/../lib/gcc/arm-none-eabi/4.8.3/../../../../arm-none-eabi/lib/armv7e-m\libstdc++.a(ios_failure.o)
 .data          0x20000048        0x0 c:/program files (x86)/gnu tools arm embedded/4.8 2013q4/bin/../lib/gcc/arm-none-eabi/4.8.3/../../../../arm-none-eabi/lib/armv7e-m\libstdc++.a(stdexcept.o)
 .data          0x20000048        0x0 c:/program files (x86)/gnu tools arm embedded/4.8 2013q4/bin/../lib/gcc/arm-none-eabi/4.8.3/../../../../arm-none-eabi/lib/armv7e-m\libstdc++.a(system_error.o)
 .data          0x20000048        0x0 c:/program files (x86)/gnu tools arm embedded/4.8 2013q4/bin/../lib/gcc/arm-none-eabi/4.8.3/../../../../arm-none-eabi/lib/armv7e-m\libstdc++.a(future.o)
 .data          0x20000048        0x0 c:/program files (x86)/gnu tools arm embedded/4.8 2013q4/bin/../lib/gcc/arm-none-eabi/4.8.3/../../../../arm-none-eabi/lib/armv7e-m\libstdc++.a(regex.o)
 .data          0x20000048        0x0 c:/program files (x86)/gnu tools arm embedded/4.8 2013q4/bin/../lib/gcc/arm-none-eabi/4.8.3/../../../../arm-none-eabi/lib/armv7e-m\libstdc++.a(guard.o)
 .data          0x20000048        0x0 c:/program files (x86)/gnu tools arm embedded/4.8 2013q4/bin/../lib/gcc/arm-none-eabi/4.8.3/../../../../arm-none-eabi/lib/armv7e-m\libstdc++.a(cp-demangle.o)
 .data          0x20000048        0x0 c:/program files (x86)/gnu tools arm embedded/4.8 2013q4/bin/../lib/gcc/arm-none-eabi/4.8.3/../../../../arm-none-eabi/lib/armv7e-m\libstdc++.a(guard_error.o)
 .data          0x20000048        0x0 c:/program files (x86)/gnu tools arm embedded/4.8 2013q4/bin/../lib/gcc/arm-none-eabi/4.8.3/armv7e-m\libgcc.a(_arm_addsubdf3.o)
 .data          0x20000048        0x0 c:/program files (x86)/gnu tools arm embedded/4.8 2013q4/bin/../lib/gcc/arm-none-eabi/4.8.3/armv7e-m\libgcc.a(_arm_muldivdf3.o)
 .data          0x20000048        0x0 c:/program files (x86)/gnu tools arm embedded/4.8 2013q4/bin/../lib/gcc/arm-none-eabi/4.8.3/armv7e-m\libgcc.a(_arm_cmpdf2.o)
 .data          0x20000048        0x0 c:/program files (x86)/gnu tools arm embedded/4.8 2013q4/bin/../lib/gcc/arm-none-eabi/4.8.3/armv7e-m\libgcc.a(_arm_fixdfsi.o)
 .data          0x20000048        0x0 c:/program files (x86)/gnu tools arm embedded/4.8 2013q4/bin/../lib/gcc/arm-none-eabi/4.8.3/armv7e-m\libgcc.a(_arm_fixunsdfsi.o)
 .data          0x20000048        0x0 c:/program files (x86)/gnu tools arm embedded/4.8 2013q4/bin/../lib/gcc/arm-none-eabi/4.8.3/armv7e-m\libgcc.a(unwind-arm.o)
 .data          0x20000048        0x0 c:/program files (x86)/gnu tools arm embedded/4.8 2013q4/bin/../lib/gcc/arm-none-eabi/4.8.3/armv7e-m\libgcc.a(libunwind.o)
 .data          0x20000048        0x0 c:/program files (x86)/gnu tools arm embedded/4.8 2013q4/bin/../lib/gcc/arm-none-eabi/4.8.3/armv7e-m\libgcc.a(pr-support.o)
 .data          0x20000048        0x0 c:/program files (x86)/gnu tools arm embedded/4.8 2013q4/bin/../lib/gcc/arm-none-eabi/4.8.3/../../../../arm-none-eabi/lib/armv7e-m\libc.a(lib_a-abort.o)
 .data          0x20000048        0x0 c:/program files (x86)/gnu tools arm embedded/4.8 2013q4/bin/../lib/gcc/arm-none-eabi/4.8.3/../../../../arm-none-eabi/lib/armv7e-m\libc.a(lib_a-assert.o)
 .data          0x20000048        0x0 c:/program files (x86)/gnu tools arm embedded/4.8 2013q4/bin/../lib/gcc/arm-none-eabi/4.8.3/../../../../arm-none-eabi/lib/armv7e-m\libc.a(lib_a-ctype_.o)
 .data          0x20000048        0x0 c:/program files (x86)/gnu tools arm embedded/4.8 2013q4/bin/../lib/gcc/arm-none-eabi/4.8.3/../../../../arm-none-eabi/lib/armv7e-m\libc.a(lib_a-cxa_atexit.o)
 .data          0x20000048        0x0 c:/program files (x86)/gnu tools arm embedded/4.8 2013q4/bin/../lib/gcc/arm-none-eabi/4.8.3/../../../../arm-none-eabi/lib/armv7e-m\libc.a(lib_a-errno.o)
 .data          0x20000048        0x0 c:/program files (x86)/gnu tools arm embedded/4.8 2013q4/bin/../lib/gcc/arm-none-eabi/4.8.3/../../../../arm-none-eabi/lib/armv7e-m\libc.a(lib_a-exit.o)
 .data          0x20000048        0x0 c:/program files (x86)/gnu tools arm embedded/4.8 2013q4/bin/../lib/gcc/arm-none-eabi/4.8.3/../../../../arm-none-eabi/lib/armv7e-m\libc.a(lib_a-fiprintf.o)
 .data          0x20000048        0x0 c:/program files (x86)/gnu tools arm embedded/4.8 2013q4/bin/../lib/gcc/arm-none-eabi/4.8.3/../../../../arm-none-eabi/lib/armv7e-m\libc.a(lib_a-fputc.o)
 .data          0x20000048        0x0 c:/program files (x86)/gnu tools arm embedded/4.8 2013q4/bin/../lib/gcc/arm-none-eabi/4.8.3/../../../../arm-none-eabi/lib/armv7e-m\libc.a(lib_a-fputs.o)
 .data          0x20000048        0x0 c:/program files (x86)/gnu tools arm embedded/4.8 2013q4/bin/../lib/gcc/arm-none-eabi/4.8.3/../../../../arm-none-eabi/lib/armv7e-m\libc.a(lib_a-fvwrite.o)
 .data          0x20000048        0x0 c:/program files (x86)/gnu tools arm embedded/4.8 2013q4/bin/../lib/gcc/arm-none-eabi/4.8.3/../../../../arm-none-eabi/lib/armv7e-m\libc.a(lib_a-fwrite.o)
 .data          0x20000048        0x0 c:/program files (x86)/gnu tools arm embedded/4.8 2013q4/bin/../lib/gcc/arm-none-eabi/4.8.3/../../../../arm-none-eabi/lib/armv7e-m\libc.a(lib_a-impure.o)
 .data          0x20000048        0x0 c:/program files (x86)/gnu tools arm embedded/4.8 2013q4/bin/../lib/gcc/arm-none-eabi/4.8.3/../../../../arm-none-eabi/lib/armv7e-m\libc.a(lib_a-init.o)
 .data          0x20000048        0x0 c:/program files (x86)/gnu tools arm embedded/4.8 2013q4/bin/../lib/gcc/arm-none-eabi/4.8.3/../../../../arm-none-eabi/lib/armv7e-m\libc.a(lib_a-mallocr.o)
 .data          0x20000048        0x0 c:/program files (x86)/gnu tools arm embedded/4.8 2013q4/bin/../lib/gcc/arm-none-eabi/4.8.3/../../../../arm-none-eabi/lib/armv7e-m\libc.a(lib_a-memchr-stub.o)
 .data          0x20000048        0x0 c:/program files (x86)/gnu tools arm embedded/4.8 2013q4/bin/../lib/gcc/arm-none-eabi/4.8.3/../../../../arm-none-eabi/lib/armv7e-m\libc.a(lib_a-memcmp.o)
 .data          0x20000048        0x0 c:/program files (x86)/gnu tools arm embedded/4.8 2013q4/bin/../lib/gcc/arm-none-eabi/4.8.3/../../../../arm-none-eabi/lib/armv7e-m\libc.a(lib_a-memcpy.o)
 .data          0x20000048        0x0 c:/program files (x86)/gnu tools arm embedded/4.8 2013q4/bin/../lib/gcc/arm-none-eabi/4.8.3/../../../../arm-none-eabi/lib/armv7e-m\libc.a(lib_a-memmove.o)
 .data          0x20000048        0x0 c:/program files (x86)/gnu tools arm embedded/4.8 2013q4/bin/../lib/gcc/arm-none-eabi/4.8.3/../../../../arm-none-eabi/lib/armv7e-m\libc.a(lib_a-memset.o)
 .data          0x20000048        0x0 c:/program files (x86)/gnu tools arm embedded/4.8 2013q4/bin/../lib/gcc/arm-none-eabi/4.8.3/../../../../arm-none-eabi/lib/armv7e-m\libc.a(lib_a-mlock.o)
 .data          0x20000048        0x0 c:/program files (x86)/gnu tools arm embedded/4.8 2013q4/bin/../lib/gcc/arm-none-eabi/4.8.3/../../../../arm-none-eabi/lib/armv7e-m\libc.a(lib_a-printf.o)
 .data          0x20000048        0x0 c:/program files (x86)/gnu tools arm embedded/4.8 2013q4/bin/../lib/gcc/arm-none-eabi/4.8.3/../../../../arm-none-eabi/lib/armv7e-m\libc.a(lib_a-putc.o)
 .data          0x20000048        0x0 c:/program files (x86)/gnu tools arm embedded/4.8 2013q4/bin/../lib/gcc/arm-none-eabi/4.8.3/../../../../arm-none-eabi/lib/armv7e-m\libc.a(lib_a-puts.o)
 .data          0x20000048        0x0 c:/program files (x86)/gnu tools arm embedded/4.8 2013q4/bin/../lib/gcc/arm-none-eabi/4.8.3/../../../../arm-none-eabi/lib/armv7e-m\libc.a(lib_a-realloc.o)
 .data          0x20000048        0x0 c:/program files (x86)/gnu tools arm embedded/4.8 2013q4/bin/../lib/gcc/arm-none-eabi/4.8.3/../../../../arm-none-eabi/lib/armv7e-m\libc.a(lib_a-reallocr.o)
 .data          0x20000048        0x0 c:/program files (x86)/gnu tools arm embedded/4.8 2013q4/bin/../lib/gcc/arm-none-eabi/4.8.3/../../../../arm-none-eabi/lib/armv7e-m\libc.a(lib_a-reent.o)
 .data          0x20000048        0x0 c:/program files (x86)/gnu tools arm embedded/4.8 2013q4/bin/../lib/gcc/arm-none-eabi/4.8.3/../../../../arm-none-eabi/lib/armv7e-m\libc.a(lib_a-sbrkr.o)
 .data          0x20000048        0x0 c:/program files (x86)/gnu tools arm embedded/4.8 2013q4/bin/../lib/gcc/arm-none-eabi/4.8.3/../../../../arm-none-eabi/lib/armv7e-m\libc.a(lib_a-signal.o)
 .data          0x20000048        0x0 c:/program files (x86)/gnu tools arm embedded/4.8 2013q4/bin/../lib/gcc/arm-none-eabi/4.8.3/../../../../arm-none-eabi/lib/armv7e-m\libc.a(lib_a-signalr.o)
 .data          0x20000048        0x0 c:/program files (x86)/gnu tools arm embedded/4.8 2013q4/bin/../lib/gcc/arm-none-eabi/4.8.3/../../../../arm-none-eabi/lib/armv7e-m\libc.a(lib_a-sprintf.o)
 .data          0x20000048        0x0 c:/program files (x86)/gnu tools arm embedded/4.8 2013q4/bin/../lib/gcc/arm-none-eabi/4.8.3/../../../../arm-none-eabi/lib/armv7e-m\libc.a(lib_a-strcmp.o)
 .data          0x20000048        0x0 c:/program files (x86)/gnu tools arm embedded/4.8 2013q4/bin/../lib/gcc/arm-none-eabi/4.8.3/../../../../arm-none-eabi/lib/armv7e-m\libc.a(lib_a-strerror.o)
 .data          0x20000048        0x0 c:/program files (x86)/gnu tools arm embedded/4.8 2013q4/bin/../lib/gcc/arm-none-eabi/4.8.3/../../../../arm-none-eabi/lib/armv7e-m\libc.a(lib_a-strlen.o)
 .data          0x20000048        0x0 c:/program files (x86)/gnu tools arm embedded/4.8 2013q4/bin/../lib/gcc/arm-none-eabi/4.8.3/../../../../arm-none-eabi/lib/armv7e-m\libc.a(lib_a-strncmp.o)
 .data          0x20000048        0x0 c:/program files (x86)/gnu tools arm embedded/4.8 2013q4/bin/../lib/gcc/arm-none-eabi/4.8.3/../../../../arm-none-eabi/lib/armv7e-m\libc.a(lib_a-svfprintf.o)
 .data          0x20000048        0x0 c:/program files (x86)/gnu tools arm embedded/4.8 2013q4/bin/../lib/gcc/arm-none-eabi/4.8.3/../../../../arm-none-eabi/lib/armv7e-m\libc.a(lib_a-syswrite.o)
 .data          0x20000048        0x0 c:/program files (x86)/gnu tools arm embedded/4.8 2013q4/bin/../lib/gcc/arm-none-eabi/4.8.3/../../../../arm-none-eabi/lib/armv7e-m\libc.a(lib_a-u_strerr.o)
 .data          0x20000048        0x0 c:/program files (x86)/gnu tools arm embedded/4.8 2013q4/bin/../lib/gcc/arm-none-eabi/4.8.3/../../../../arm-none-eabi/lib/armv7e-m\libc.a(lib_a-vfiprintf.o)
 .data          0x20000048        0x0 c:/program files (x86)/gnu tools arm embedded/4.8 2013q4/bin/../lib/gcc/arm-none-eabi/4.8.3/../../../../arm-none-eabi/lib/armv7e-m\libc.a(lib_a-vfprintf.o)
 .data          0x20000048        0x0 c:/program files (x86)/gnu tools arm embedded/4.8 2013q4/bin/../lib/gcc/arm-none-eabi/4.8.3/../../../../arm-none-eabi/lib/armv7e-m\libc.a(lib_a-wbuf.o)
 .data          0x20000048        0x0 c:/program files (x86)/gnu tools arm embedded/4.8 2013q4/bin/../lib/gcc/arm-none-eabi/4.8.3/../../../../arm-none-eabi/lib/armv7e-m\libc.a(lib_a-writer.o)
 .data          0x20000048        0x0 c:/program files (x86)/gnu tools arm embedded/4.8 2013q4/bin/../lib/gcc/arm-none-eabi/4.8.3/../../../../arm-none-eabi/lib/armv7e-m\libc.a(lib_a-wsetup.o)
 .data          0x20000048        0x0 c:/program files (x86)/gnu tools arm embedded/4.8 2013q4/bin/../lib/gcc/arm-none-eabi/4.8.3/../../../../arm-none-eabi/lib/armv7e-m\libc.a(lib_a-__atexit.o)
 .data          0x20000048        0x0 c:/program files (x86)/gnu tools arm embedded/4.8 2013q4/bin/../lib/gcc/arm-none-eabi/4.8.3/../../../../arm-none-eabi/lib/armv7e-m\libc.a(lib_a-__call_atexit.o)
 .data          0x20000048        0x0 c:/program files (x86)/gnu tools arm embedded/4.8 2013q4/bin/../lib/gcc/arm-none-eabi/4.8.3/../../../../arm-none-eabi/lib/armv7e-m\libc.a(lib_a-atexit.o)
 .data          0x20000048        0x0 c:/program files (x86)/gnu tools arm embedded/4.8 2013q4/bin/../lib/gcc/arm-none-eabi/4.8.3/../../../../arm-none-eabi/lib/armv7e-m\libc.a(lib_a-dtoa.o)
 .data          0x20000048        0x0 c:/program files (x86)/gnu tools arm embedded/4.8 2013q4/bin/../lib/gcc/arm-none-eabi/4.8.3/../../../../arm-none-eabi/lib/armv7e-m\libc.a(lib_a-fflush.o)
 .data          0x20000048        0x0 c:/program files (x86)/gnu tools arm embedded/4.8 2013q4/bin/../lib/gcc/arm-none-eabi/4.8.3/../../../../arm-none-eabi/lib/armv7e-m\libc.a(lib_a-findfp.o)
 .data          0x20000048        0x0 c:/program files (x86)/gnu tools arm embedded/4.8 2013q4/bin/../lib/gcc/arm-none-eabi/4.8.3/../../../../arm-none-eabi/lib/armv7e-m\libc.a(lib_a-fini.o)
 .data          0x20000048        0x0 c:/program files (x86)/gnu tools arm embedded/4.8 2013q4/bin/../lib/gcc/arm-none-eabi/4.8.3/../../../../arm-none-eabi/lib/armv7e-m\libc.a(lib_a-fputwc.o)
 .data          0x20000048        0x0 c:/program files (x86)/gnu tools arm embedded/4.8 2013q4/bin/../lib/gcc/arm-none-eabi/4.8.3/../../../../arm-none-eabi/lib/armv7e-m\libc.a(lib_a-freer.o)
 .data          0x20000048        0x0 c:/program files (x86)/gnu tools arm embedded/4.8 2013q4/bin/../lib/gcc/arm-none-eabi/4.8.3/../../../../arm-none-eabi/lib/armv7e-m\libc.a(lib_a-fwalk.o)
 .data          0x20000048        0x0 c:/program files (x86)/gnu tools arm embedded/4.8 2013q4/bin/../lib/gcc/arm-none-eabi/4.8.3/../../../../arm-none-eabi/lib/armv7e-m\libc.a(lib_a-locale.o)
 .data          0x20000048        0x0 c:/program files (x86)/gnu tools arm embedded/4.8 2013q4/bin/../lib/gcc/arm-none-eabi/4.8.3/../../../../arm-none-eabi/lib/armv7e-m\libc.a(lib_a-makebuf.o)
 .data          0x20000048        0x0 c:/program files (x86)/gnu tools arm embedded/4.8 2013q4/bin/../lib/gcc/arm-none-eabi/4.8.3/../../../../arm-none-eabi/lib/armv7e-m\libc.a(lib_a-mprec.o)
 .data          0x20000048        0x0 c:/program files (x86)/gnu tools arm embedded/4.8 2013q4/bin/../lib/gcc/arm-none-eabi/4.8.3/../../../../arm-none-eabi/lib/armv7e-m\libc.a(lib_a-stdio.o)
 .data          0x20000048        0x0 c:/program files (x86)/gnu tools arm embedded/4.8 2013q4/bin/../lib/gcc/arm-none-eabi/4.8.3/../../../../arm-none-eabi/lib/armv7e-m\libc.a(lib_a-svfiprintf.o)
 .data          0x20000048        0x0 c:/program files (x86)/gnu tools arm embedded/4.8 2013q4/bin/../lib/gcc/arm-none-eabi/4.8.3/../../../../arm-none-eabi/lib/armv7e-m\libc.a(lib_a-wcrtomb.o)
 .data          0x20000048        0x0 c:/program files (x86)/gnu tools arm embedded/4.8 2013q4/bin/../lib/gcc/arm-none-eabi/4.8.3/../../../../arm-none-eabi/lib/armv7e-m\libc.a(lib_a-wctomb_r.o)
 .data          0x20000048        0x0 c:/program files (x86)/gnu tools arm embedded/4.8 2013q4/bin/../lib/gcc/arm-none-eabi/4.8.3/../../../../arm-none-eabi/lib/armv7e-m\libc.a(lib_a-callocr.o)
 .data          0x20000048        0x0 c:/program files (x86)/gnu tools arm embedded/4.8 2013q4/bin/../lib/gcc/arm-none-eabi/4.8.3/../../../../arm-none-eabi/lib/armv7e-m\libc.a(lib_a-closer.o)
 .data          0x20000048        0x0 c:/program files (x86)/gnu tools arm embedded/4.8 2013q4/bin/../lib/gcc/arm-none-eabi/4.8.3/../../../../arm-none-eabi/lib/armv7e-m\libc.a(lib_a-fclose.o)
 .data          0x20000048        0x0 c:/program files (x86)/gnu tools arm embedded/4.8 2013q4/bin/../lib/gcc/arm-none-eabi/4.8.3/../../../../arm-none-eabi/lib/armv7e-m\libc.a(lib_a-fstatr.o)
 .data          0x20000048        0x0 c:/program files (x86)/gnu tools arm embedded/4.8 2013q4/bin/../lib/gcc/arm-none-eabi/4.8.3/../../../../arm-none-eabi/lib/armv7e-m\libc.a(lib_a-isattyr.o)
 .data          0x20000048        0x0 c:/program files (x86)/gnu tools arm embedded/4.8 2013q4/bin/../lib/gcc/arm-none-eabi/4.8.3/../../../../arm-none-eabi/lib/armv7e-m\libc.a(lib_a-lseekr.o)
 .data          0x20000048        0x0 c:/program files (x86)/gnu tools arm embedded/4.8 2013q4/bin/../lib/gcc/arm-none-eabi/4.8.3/../../../../arm-none-eabi/lib/armv7e-m\libc.a(lib_a-readr.o)
 .data          0x20000048        0x0 c:/program files (x86)/gnu tools arm embedded/4.8 2013q4/bin/../lib/gcc/arm-none-eabi/4.8.3/armv7e-m\libgcc.a(_aeabi_uldivmod.o)
 .data          0x20000048        0x0 c:/program files (x86)/gnu tools arm embedded/4.8 2013q4/bin/../lib/gcc/arm-none-eabi/4.8.3/armv7e-m\libgcc.a(bpabi.o)
 .data          0x20000048        0x0 c:/program files (x86)/gnu tools arm embedded/4.8 2013q4/bin/../lib/gcc/arm-none-eabi/4.8.3/armv7e-m\libgcc.a(_dvmd_tls.o)
 .data          0x20000048        0x0 c:/program files (x86)/gnu tools arm embedded/4.8 2013q4/bin/../lib/gcc/arm-none-eabi/4.8.3/armv7e-m\libgcc.a(_divdi3.o)
 .data          0x20000048        0x0 c:/program files (x86)/gnu tools arm embedded/4.8 2013q4/bin/../lib/gcc/arm-none-eabi/4.8.3/armv7e-m\libgcc.a(_udivdi3.o)
 .data          0x20000048        0x0 c:/program files (x86)/gnu tools arm embedded/4.8 2013q4/bin/../lib/gcc/arm-none-eabi/4.8.3/armv7e-m/crtend.o
 .data          0x20000048        0x0 c:/program files (x86)/gnu tools arm embedded/4.8 2013q4/bin/../lib/gcc/arm-none-eabi/4.8.3/armv7e-m/crtn.o
 .data          0x20000048        0x0 c:/program files (x86)/gnu tools arm embedded/4.8 2013q4/bin/../lib/gcc/arm-none-eabi/4.8.3/../../../../arm-none-eabi/lib/armv7e-m\libm.a(lib_a-s_ceil.o)
 .data          0x20000048        0x0 c:/program files (x86)/gnu tools arm embedded/4.8 2013q4/bin/../lib/gcc/arm-none-eabi/4.8.3/../../../../arm-none-eabi/lib/armv7e-m\libm.a(lib_a-s_floor.o)
 *(.data*)
 .data.__fdlib_version
                0x20000048        0x1 c:/program files (x86)/gnu tools arm embedded/4.8 2013q4/bin/../lib/gcc/arm-none-eabi/4.8.3/../../../../arm-none-eabi/lib/armv7e-m\libm.a(lib_a-s_lib_ver.o)
                0x20000048                __fdlib_version
 *fill*         0x20000049        0x3 
 .data._ZN10__cxxabiv119__terminate_handlerE
                0x2000004c        0x4 c:/program files (x86)/gnu tools arm embedded/4.8 2013q4/bin/../lib/gcc/arm-none-eabi/4.8.3/../../../../arm-none-eabi/lib/armv7e-m\libstdc++.a(eh_term_handler.o)
                0x2000004c                __cxxabiv1::__terminate_handler
 .data._ZN10__cxxabiv120__unexpected_handlerE
                0x20000050        0x4 c:/program files (x86)/gnu tools arm embedded/4.8 2013q4/bin/../lib/gcc/arm-none-eabi/4.8.3/../../../../arm-none-eabi/lib/armv7e-m\libstdc++.a(eh_unex_handler.o)
                0x20000050                __cxxabiv1::__unexpected_handler
 .data.__ctype_ptr__
                0x20000054        0x4 c:/program files (x86)/gnu tools arm embedded/4.8 2013q4/bin/../lib/gcc/arm-none-eabi/4.8.3/../../../../arm-none-eabi/lib/armv7e-m\libc.a(lib_a-ctype_.o)
                0x20000054                __ctype_ptr__
 .data.impure_data
                0x20000058      0x428 c:/program files (x86)/gnu tools arm embedded/4.8 2013q4/bin/../lib/gcc/arm-none-eabi/4.8.3/../../../../arm-none-eabi/lib/armv7e-m\libc.a(lib_a-impure.o)
 .data._impure_ptr
                0x20000480        0x4 c:/program files (x86)/gnu tools arm embedded/4.8 2013q4/bin/../lib/gcc/arm-none-eabi/4.8.3/../../../../arm-none-eabi/lib/armv7e-m\libc.a(lib_a-impure.o)
                0x20000480                _impure_ptr
 .data.__malloc_av_
                0x20000484      0x408 c:/program files (x86)/gnu tools arm embedded/4.8 2013q4/bin/../lib/gcc/arm-none-eabi/4.8.3/../../../../arm-none-eabi/lib/armv7e-m\libc.a(lib_a-mallocr.o)
                0x20000484                __malloc_av_
 .data.__malloc_trim_threshold
                0x2000088c        0x4 c:/program files (x86)/gnu tools arm embedded/4.8 2013q4/bin/../lib/gcc/arm-none-eabi/4.8.3/../../../../arm-none-eabi/lib/armv7e-m\libc.a(lib_a-mallocr.o)
                0x2000088c                __malloc_trim_threshold
 .data.__malloc_sbrk_base
                0x20000890        0x4 c:/program files (x86)/gnu tools arm embedded/4.8 2013q4/bin/../lib/gcc/arm-none-eabi/4.8.3/../../../../arm-none-eabi/lib/armv7e-m\libc.a(lib_a-mallocr.o)
                0x20000890                __malloc_sbrk_base
 .data.lc_message_charset
                0x20000894       0x20 c:/program files (x86)/gnu tools arm embedded/4.8 2013q4/bin/../lib/gcc/arm-none-eabi/4.8.3/../../../../arm-none-eabi/lib/armv7e-m\libc.a(lib_a-locale.o)
 .data.lconv    0x200008b4       0x38 c:/program files (x86)/gnu tools arm embedded/4.8 2013q4/bin/../lib/gcc/arm-none-eabi/4.8.3/../../../../arm-none-eabi/lib/armv7e-m\libc.a(lib_a-locale.o)
 .data.lc_ctype_charset
                0x200008ec       0x20 c:/program files (x86)/gnu tools arm embedded/4.8 2013q4/bin/../lib/gcc/arm-none-eabi/4.8.3/../../../../arm-none-eabi/lib/armv7e-m\libc.a(lib_a-locale.o)
 .data.__mb_cur_max
                0x2000090c        0x4 c:/program files (x86)/gnu tools arm embedded/4.8 2013q4/bin/../lib/gcc/arm-none-eabi/4.8.3/../../../../arm-none-eabi/lib/armv7e-m\libc.a(lib_a-locale.o)
                0x2000090c                __mb_cur_max
 .data.__wctomb
                0x20000910        0x4 c:/program files (x86)/gnu tools arm embedded/4.8 2013q4/bin/../lib/gcc/arm-none-eabi/4.8.3/../../../../arm-none-eabi/lib/armv7e-m\libc.a(lib_a-wctomb_r.o)
                0x20000910                __wctomb
                0x20000914                . = ALIGN (0x4)
                0x20000914                _edata = .
                0x080288d4                _siccmram = LOADADDR (.ccmram)

.jcr            0x20000914        0x4 load address 0x080288d0
 .jcr           0x20000914        0x0 c:/program files (x86)/gnu tools arm embedded/4.8 2013q4/bin/../lib/gcc/arm-none-eabi/4.8.3/armv7e-m/crtbegin.o
 .jcr           0x20000914        0x4 c:/program files (x86)/gnu tools arm embedded/4.8 2013q4/bin/../lib/gcc/arm-none-eabi/4.8.3/armv7e-m/crtend.o

.igot.plt       0x20000918        0x0 load address 0x080288d4
 .igot.plt      0x00000000        0x0 c:/program files (x86)/gnu tools arm embedded/4.8 2013q4/bin/../lib/gcc/arm-none-eabi/4.8.3/armv7e-m/crtbegin.o

.ccmram         0x10000000     0xfa00 load address 0x080288d4
                0x10000000                . = ALIGN (0x4)
                0x10000000                _sccmram = .
 *(.ccmram)
 .ccmram        0x10000000     0xfa00 ../build/obj/buffs_iram2.o
                0x10000000                bpool_buffer
 *(.ccmram*)
                0x1000fa00                . = ALIGN (0x4)
                0x1000fa00                _eccmram = .
                0x1000fa00                . = ALIGN (0x4)

.bss            0x20000918     0xf5b0
                0x20000918                _sbss = .
                0x20000918                __bss_start__ = _sbss
 *(.bss)
 .bss           0x20000918        0x0 c:/program files (x86)/gnu tools arm embedded/4.8 2013q4/bin/../lib/gcc/arm-none-eabi/4.8.3/armv7e-m/crti.o
 .bss           0x20000918       0x1c c:/program files (x86)/gnu tools arm embedded/4.8 2013q4/bin/../lib/gcc/arm-none-eabi/4.8.3/armv7e-m/crtbegin.o
 .bss           0x20000934        0x0 c:/program files (x86)/gnu tools arm embedded/4.8 2013q4/bin/../lib/gcc/arm-none-eabi/4.8.3/../../../../arm-none-eabi/lib/armv7e-m/crt0.o
 .bss           0x20000934        0x0 ../build/obj/system_stm32f4xx.o
 .bss           0x20000934       0x40 ../build/obj/bget.o
 .bss           0x20000974        0x0 ../build/obj/api_lib.o
 .bss           0x20000974        0x0 ../build/obj/api_msg.o
 .bss           0x20000974        0x0 ../build/obj/err.o
 .bss           0x20000974        0x0 ../build/obj/netbuf.o
 .bss           0x20000974        0x0 ../build/obj/netdb.o
 .bss           0x20000974        0x0 ../build/obj/netifapi.o
 .bss           0x20000974        0x0 ../build/obj/sockets.o
 .bss           0x20000974        0x0 ../build/obj/tcpip.o
 .bss           0x20000974        0x0 ../build/obj/def.o
 .bss           0x20000974        0x0 ../build/obj/dhcp.o
 .bss           0x20000974        0x0 ../build/obj/dns.o
 .bss           0x20000974        0x0 ../build/obj/init.o
 .bss           0x20000974        0xc ../build/obj/mem.o
 .bss           0x20000980     0x52b4 ../build/obj/memp.o
 .bss           0x20005c34        0x1 ../build/obj/netif.o
 .bss           0x20005c35        0x0 ../build/obj/pbuf.o
 *fill*         0x20005c35        0x3 
 .bss           0x20005c38        0x4 ../build/obj/raw.o
 .bss           0x20005c3c        0x0 ../build/obj/stats.o
 .bss           0x20005c3c        0x0 ../build/obj/sys.o
 .bss           0x20005c3c        0x0 ../build/obj/tcp.o
 .bss           0x20005c3c        0x0 ../build/obj/tcp_in.o
 .bss           0x20005c3c        0x0 ../build/obj/tcp_out.o
 .bss           0x20005c3c        0x0 ../build/obj/timers.o
 .bss           0x20005c3c        0x0 ../build/obj/udp.o
 .bss           0x20005c3c        0x0 ../build/obj/autoip.o
 .bss           0x20005c3c        0x0 ../build/obj/icmp.o
 .bss           0x20005c3c        0x0 ../build/obj/igmp.o
 .bss           0x20005c3c        0x0 ../build/obj/inet.o
 .bss           0x20005c3c        0x0 ../build/obj/inet_chksum.o
 .bss           0x20005c3c        0x2 ../build/obj/ip.o
 .bss           0x20005c3e       0x10 ../build/obj/ip_addr.o
 *fill*         0x20005c4e        0x2 
 .bss           0x20005c50        0x8 ../build/obj/ip_frag.o
 .bss           0x20005c58       0xcc ../build/obj/etharp.o
 .bss           0x20005d24        0x0 ../build/obj/slipif.o
 .bss           0x20005d24        0x0 ../build/obj/ethernetif.o
 .bss           0x20005d24        0x4 ../build/obj/stm32f4x7_eth_bsp.o
                0x20005d24                EthStatus
 .bss           0x20005d28        0x0 ../build/obj/stm32f4x7_eth.o
 .bss           0x20005d28        0x0 ../build/obj/misc.o
 .bss           0x20005d28        0x0 ../build/obj/stm32f4xx_dma.o
 .bss           0x20005d28        0x0 ../build/obj/stm32f4xx_exti.o
 .bss           0x20005d28        0x0 ../build/obj/stm32f4xx_gpio.o
 .bss           0x20005d28        0x0 ../build/obj/stm32f4xx_rcc.o
 .bss           0x20005d28        0x0 ../build/obj/stm32f4xx_syscfg.o
 .bss           0x20005d28        0x0 ../build/obj/stm32f4xx_tim.o
 .bss           0x20005d28        0xc ../build/obj/netconf.o
                0x20005d28                ARPTimer
                0x20005d2c                IPaddress
                0x20005d30                TCPTimer
 .bss           0x20005d34        0x0 ../build/obj/startup_stm32f4xx.o
 .bss           0x20005d34        0x0 ../build/obj/oscreceivedelements.o
 *fill*         0x20005d34        0x4 
 .bss           0x20005d38       0x10 ../build/obj/osctypes.o
                0x20005d38                osc::BeginBundleImmediate
                0x20005d40                osc::EndArray
                0x20005d41                osc::BeginArray
                0x20005d42                osc::Infinitum
                0x20005d43                osc::Nil
                0x20005d44                osc::OscNil
                0x20005d45                osc::EndMessage
                0x20005d46                osc::EndBundle
 .bss           0x20005d48        0x2 ../build/obj/buffs_iram1.o
                0x20005d48                clock_falling_buffer
 .bss           0x20005d4a        0x0 ../build/obj/buffs_iram2.o
 *fill*         0x20005d4a        0x2 
 .bss           0x20005d4c        0xc ../build/obj/sys_conf.o
                0x20005d4c                LocalTime
                0x20005d54                __env
 .bss           0x20005d58        0x0 ../build/obj/stm32f4xx_it.o
 .bss           0x20005d58        0x0 ../build/obj/grizzlysys.o
 .bss           0x20005d58        0x0 ../build/obj/grizzlyapp.o
 .bss           0x20005d58       0x18 ../build/obj/udp_color_server.o
 .bss           0x20005d70        0x0 ../build/obj/main.o
 .bss           0x20005d70        0x0 c:/program files (x86)/gnu tools arm embedded/4.8 2013q4/bin/../lib/gcc/arm-none-eabi/4.8.3/../../../../arm-none-eabi/lib/armv7e-m\libm.a(lib_a-w_pow.o)
 .bss           0x20005d70        0x0 c:/program files (x86)/gnu tools arm embedded/4.8 2013q4/bin/../lib/gcc/arm-none-eabi/4.8.3/../../../../arm-none-eabi/lib/armv7e-m\libm.a(lib_a-e_pow.o)
 .bss           0x20005d70        0x0 c:/program files (x86)/gnu tools arm embedded/4.8 2013q4/bin/../lib/gcc/arm-none-eabi/4.8.3/../../../../arm-none-eabi/lib/armv7e-m\libm.a(lib_a-e_sqrt.o)
 .bss           0x20005d70        0x0 c:/program files (x86)/gnu tools arm embedded/4.8 2013q4/bin/../lib/gcc/arm-none-eabi/4.8.3/../../../../arm-none-eabi/lib/armv7e-m\libm.a(lib_a-s_fabs.o)
 .bss           0x20005d70        0x0 c:/program files (x86)/gnu tools arm embedded/4.8 2013q4/bin/../lib/gcc/arm-none-eabi/4.8.3/../../../../arm-none-eabi/lib/armv7e-m\libm.a(lib_a-s_finite.o)
 .bss           0x20005d70        0x0 c:/program files (x86)/gnu tools arm embedded/4.8 2013q4/bin/../lib/gcc/arm-none-eabi/4.8.3/../../../../arm-none-eabi/lib/armv7e-m\libm.a(lib_a-s_fpclassify.o)
 .bss           0x20005d70        0x0 c:/program files (x86)/gnu tools arm embedded/4.8 2013q4/bin/../lib/gcc/arm-none-eabi/4.8.3/../../../../arm-none-eabi/lib/armv7e-m\libm.a(lib_a-s_lib_ver.o)
 .bss           0x20005d70        0x0 c:/program files (x86)/gnu tools arm embedded/4.8 2013q4/bin/../lib/gcc/arm-none-eabi/4.8.3/../../../../arm-none-eabi/lib/armv7e-m\libm.a(lib_a-s_matherr.o)
 .bss           0x20005d70        0x0 c:/program files (x86)/gnu tools arm embedded/4.8 2013q4/bin/../lib/gcc/arm-none-eabi/4.8.3/../../../../arm-none-eabi/lib/armv7e-m\libm.a(lib_a-s_nan.o)
 .bss           0x20005d70        0x0 c:/program files (x86)/gnu tools arm embedded/4.8 2013q4/bin/../lib/gcc/arm-none-eabi/4.8.3/../../../../arm-none-eabi/lib/armv7e-m\libm.a(lib_a-s_rint.o)
 .bss           0x20005d70        0x0 c:/program files (x86)/gnu tools arm embedded/4.8 2013q4/bin/../lib/gcc/arm-none-eabi/4.8.3/../../../../arm-none-eabi/lib/armv7e-m\libm.a(lib_a-s_scalbn.o)
 .bss           0x20005d70        0x0 c:/program files (x86)/gnu tools arm embedded/4.8 2013q4/bin/../lib/gcc/arm-none-eabi/4.8.3/../../../../arm-none-eabi/lib/armv7e-m\libm.a(lib_a-s_copysign.o)
 .bss           0x20005d70        0x0 c:/program files (x86)/gnu tools arm embedded/4.8 2013q4/bin/../lib/gcc/arm-none-eabi/4.8.3/../../../../arm-none-eabi/lib/armv7e-m\libstdc++.a(pointer_type_info.o)
 .bss           0x20005d70        0x0 c:/program files (x86)/gnu tools arm embedded/4.8 2013q4/bin/../lib/gcc/arm-none-eabi/4.8.3/../../../../arm-none-eabi/lib/armv7e-m\libstdc++.a(fundamental_type_info.o)
 .bss           0x20005d70        0x0 c:/program files (x86)/gnu tools arm embedded/4.8 2013q4/bin/../lib/gcc/arm-none-eabi/4.8.3/../../../../arm-none-eabi/lib/armv7e-m\libstdc++.a(si_class_type_info.o)
 .bss           0x20005d70        0x0 c:/program files (x86)/gnu tools arm embedded/4.8 2013q4/bin/../lib/gcc/arm-none-eabi/4.8.3/../../../../arm-none-eabi/lib/armv7e-m\libstdc++.a(pure.o)
 .bss           0x20005d70        0x0 c:/program files (x86)/gnu tools arm embedded/4.8 2013q4/bin/../lib/gcc/arm-none-eabi/4.8.3/../../../../arm-none-eabi/lib/armv7e-m\libstdc++.a(pbase_type_info.o)
 .bss           0x20005d70        0x0 c:/program files (x86)/gnu tools arm embedded/4.8 2013q4/bin/../lib/gcc/arm-none-eabi/4.8.3/../../../../arm-none-eabi/lib/armv7e-m\libstdc++.a(eh_exception.o)
 .bss           0x20005d70        0x0 c:/program files (x86)/gnu tools arm embedded/4.8 2013q4/bin/../lib/gcc/arm-none-eabi/4.8.3/../../../../arm-none-eabi/lib/armv7e-m\libstdc++.a(del_op.o)
 .bss           0x20005d70        0x0 c:/program files (x86)/gnu tools arm embedded/4.8 2013q4/bin/../lib/gcc/arm-none-eabi/4.8.3/../../../../arm-none-eabi/lib/armv7e-m\libstdc++.a(class_type_info.o)
 .bss           0x20005d70        0x0 c:/program files (x86)/gnu tools arm embedded/4.8 2013q4/bin/../lib/gcc/arm-none-eabi/4.8.3/../../../../arm-none-eabi/lib/armv7e-m\libstdc++.a(atexit_arm.o)
 .bss           0x20005d70        0x0 c:/program files (x86)/gnu tools arm embedded/4.8 2013q4/bin/../lib/gcc/arm-none-eabi/4.8.3/../../../../arm-none-eabi/lib/armv7e-m\libstdc++.a(eh_throw.o)
 .bss           0x20005d70        0x0 c:/program files (x86)/gnu tools arm embedded/4.8 2013q4/bin/../lib/gcc/arm-none-eabi/4.8.3/../../../../arm-none-eabi/lib/armv7e-m\libstdc++.a(new_op.o)
 .bss           0x20005d70        0x0 c:/program files (x86)/gnu tools arm embedded/4.8 2013q4/bin/../lib/gcc/arm-none-eabi/4.8.3/../../../../arm-none-eabi/lib/armv7e-m\libstdc++.a(eh_personality.o)
 .bss           0x20005d70        0x0 c:/program files (x86)/gnu tools arm embedded/4.8 2013q4/bin/../lib/gcc/arm-none-eabi/4.8.3/../../../../arm-none-eabi/lib/armv7e-m\libstdc++.a(eh_term_handler.o)
 .bss           0x20005d70        0x0 c:/program files (x86)/gnu tools arm embedded/4.8 2013q4/bin/../lib/gcc/arm-none-eabi/4.8.3/../../../../arm-none-eabi/lib/armv7e-m\libstdc++.a(eh_alloc.o)
 .bss           0x20005d70        0x0 c:/program files (x86)/gnu tools arm embedded/4.8 2013q4/bin/../lib/gcc/arm-none-eabi/4.8.3/../../../../arm-none-eabi/lib/armv7e-m\libstdc++.a(function_type_info.o)
 .bss           0x20005d70        0x0 c:/program files (x86)/gnu tools arm embedded/4.8 2013q4/bin/../lib/gcc/arm-none-eabi/4.8.3/../../../../arm-none-eabi/lib/armv7e-m\libstdc++.a(eh_terminate.o)
 .bss           0x20005d70        0x0 c:/program files (x86)/gnu tools arm embedded/4.8 2013q4/bin/../lib/gcc/arm-none-eabi/4.8.3/../../../../arm-none-eabi/lib/armv7e-m\libstdc++.a(tinfo.o)
 .bss           0x20005d70        0x0 c:/program files (x86)/gnu tools arm embedded/4.8 2013q4/bin/../lib/gcc/arm-none-eabi/4.8.3/../../../../arm-none-eabi/lib/armv7e-m\libstdc++.a(eh_unex_handler.o)
 .bss           0x20005d70        0x0 c:/program files (x86)/gnu tools arm embedded/4.8 2013q4/bin/../lib/gcc/arm-none-eabi/4.8.3/../../../../arm-none-eabi/lib/armv7e-m\libstdc++.a(string-inst.o)
 .bss           0x20005d70        0x0 c:/program files (x86)/gnu tools arm embedded/4.8 2013q4/bin/../lib/gcc/arm-none-eabi/4.8.3/../../../../arm-none-eabi/lib/armv7e-m\libstdc++.a(hashtable_c++0x.o)
 .bss           0x20005d70        0x0 c:/program files (x86)/gnu tools arm embedded/4.8 2013q4/bin/../lib/gcc/arm-none-eabi/4.8.3/../../../../arm-none-eabi/lib/armv7e-m\libstdc++.a(functexcept.o)
 .bss           0x20005d70        0x0 c:/program files (x86)/gnu tools arm embedded/4.8 2013q4/bin/../lib/gcc/arm-none-eabi/4.8.3/../../../../arm-none-eabi/lib/armv7e-m\libstdc++.a(functional.o)
 .bss           0x20005d70        0x0 c:/program files (x86)/gnu tools arm embedded/4.8 2013q4/bin/../lib/gcc/arm-none-eabi/4.8.3/../../../../arm-none-eabi/lib/armv7e-m\libstdc++.a(eh_call.o)
 .bss           0x20005d70        0x0 c:/program files (x86)/gnu tools arm embedded/4.8 2013q4/bin/../lib/gcc/arm-none-eabi/4.8.3/../../../../arm-none-eabi/lib/armv7e-m\libstdc++.a(eh_arm.o)
 .bss           0x20005d70        0x0 c:/program files (x86)/gnu tools arm embedded/4.8 2013q4/bin/../lib/gcc/arm-none-eabi/4.8.3/../../../../arm-none-eabi/lib/armv7e-m\libstdc++.a(new_handler.o)
 .bss           0x20005d70        0x0 c:/program files (x86)/gnu tools arm embedded/4.8 2013q4/bin/../lib/gcc/arm-none-eabi/4.8.3/../../../../arm-none-eabi/lib/armv7e-m\libstdc++.a(bad_alloc.o)
 .bss           0x20005d70        0x0 c:/program files (x86)/gnu tools arm embedded/4.8 2013q4/bin/../lib/gcc/arm-none-eabi/4.8.3/../../../../arm-none-eabi/lib/armv7e-m\libstdc++.a(eh_aux_runtime.o)
 .bss           0x20005d70        0x0 c:/program files (x86)/gnu tools arm embedded/4.8 2013q4/bin/../lib/gcc/arm-none-eabi/4.8.3/../../../../arm-none-eabi/lib/armv7e-m\libstdc++.a(eh_globals.o)
 .bss           0x20005d70        0x0 c:/program files (x86)/gnu tools arm embedded/4.8 2013q4/bin/../lib/gcc/arm-none-eabi/4.8.3/../../../../arm-none-eabi/lib/armv7e-m\libstdc++.a(bad_cast.o)
 .bss           0x20005d70        0x0 c:/program files (x86)/gnu tools arm embedded/4.8 2013q4/bin/../lib/gcc/arm-none-eabi/4.8.3/../../../../arm-none-eabi/lib/armv7e-m\libstdc++.a(eh_catch.o)
 .bss           0x20005d70        0x0 c:/program files (x86)/gnu tools arm embedded/4.8 2013q4/bin/../lib/gcc/arm-none-eabi/4.8.3/../../../../arm-none-eabi/lib/armv7e-m\libstdc++.a(vterminate.o)
 .bss           0x20005d70        0x0 c:/program files (x86)/gnu tools arm embedded/4.8 2013q4/bin/../lib/gcc/arm-none-eabi/4.8.3/../../../../arm-none-eabi/lib/armv7e-m\libstdc++.a(eh_type.o)
 .bss           0x20005d70        0x0 c:/program files (x86)/gnu tools arm embedded/4.8 2013q4/bin/../lib/gcc/arm-none-eabi/4.8.3/../../../../arm-none-eabi/lib/armv7e-m\libstdc++.a(bad_typeid.o)
 .bss           0x20005d70        0x0 c:/program files (x86)/gnu tools arm embedded/4.8 2013q4/bin/../lib/gcc/arm-none-eabi/4.8.3/../../../../arm-none-eabi/lib/armv7e-m\libstdc++.a(ios_failure.o)
 .bss           0x20005d70        0x0 c:/program files (x86)/gnu tools arm embedded/4.8 2013q4/bin/../lib/gcc/arm-none-eabi/4.8.3/../../../../arm-none-eabi/lib/armv7e-m\libstdc++.a(stdexcept.o)
 .bss           0x20005d70        0x0 c:/program files (x86)/gnu tools arm embedded/4.8 2013q4/bin/../lib/gcc/arm-none-eabi/4.8.3/../../../../arm-none-eabi/lib/armv7e-m\libstdc++.a(system_error.o)
 .bss           0x20005d70        0x0 c:/program files (x86)/gnu tools arm embedded/4.8 2013q4/bin/../lib/gcc/arm-none-eabi/4.8.3/../../../../arm-none-eabi/lib/armv7e-m\libstdc++.a(future.o)
 .bss           0x20005d70        0x0 c:/program files (x86)/gnu tools arm embedded/4.8 2013q4/bin/../lib/gcc/arm-none-eabi/4.8.3/../../../../arm-none-eabi/lib/armv7e-m\libstdc++.a(regex.o)
 .bss           0x20005d70        0x0 c:/program files (x86)/gnu tools arm embedded/4.8 2013q4/bin/../lib/gcc/arm-none-eabi/4.8.3/../../../../arm-none-eabi/lib/armv7e-m\libstdc++.a(guard.o)
 .bss           0x20005d70        0x0 c:/program files (x86)/gnu tools arm embedded/4.8 2013q4/bin/../lib/gcc/arm-none-eabi/4.8.3/../../../../arm-none-eabi/lib/armv7e-m\libstdc++.a(cp-demangle.o)
 .bss           0x20005d70        0x0 c:/program files (x86)/gnu tools arm embedded/4.8 2013q4/bin/../lib/gcc/arm-none-eabi/4.8.3/../../../../arm-none-eabi/lib/armv7e-m\libstdc++.a(guard_error.o)
 .bss           0x20005d70        0x0 c:/program files (x86)/gnu tools arm embedded/4.8 2013q4/bin/../lib/gcc/arm-none-eabi/4.8.3/armv7e-m\libgcc.a(_arm_addsubdf3.o)
 .bss           0x20005d70        0x0 c:/program files (x86)/gnu tools arm embedded/4.8 2013q4/bin/../lib/gcc/arm-none-eabi/4.8.3/armv7e-m\libgcc.a(_arm_muldivdf3.o)
 .bss           0x20005d70        0x0 c:/program files (x86)/gnu tools arm embedded/4.8 2013q4/bin/../lib/gcc/arm-none-eabi/4.8.3/armv7e-m\libgcc.a(_arm_cmpdf2.o)
 .bss           0x20005d70        0x0 c:/program files (x86)/gnu tools arm embedded/4.8 2013q4/bin/../lib/gcc/arm-none-eabi/4.8.3/armv7e-m\libgcc.a(_arm_fixdfsi.o)
 .bss           0x20005d70        0x0 c:/program files (x86)/gnu tools arm embedded/4.8 2013q4/bin/../lib/gcc/arm-none-eabi/4.8.3/armv7e-m\libgcc.a(_arm_fixunsdfsi.o)
 .bss           0x20005d70        0x0 c:/program files (x86)/gnu tools arm embedded/4.8 2013q4/bin/../lib/gcc/arm-none-eabi/4.8.3/armv7e-m\libgcc.a(unwind-arm.o)
 .bss           0x20005d70        0x0 c:/program files (x86)/gnu tools arm embedded/4.8 2013q4/bin/../lib/gcc/arm-none-eabi/4.8.3/armv7e-m\libgcc.a(libunwind.o)
 .bss           0x20005d70        0x0 c:/program files (x86)/gnu tools arm embedded/4.8 2013q4/bin/../lib/gcc/arm-none-eabi/4.8.3/armv7e-m\libgcc.a(pr-support.o)
 .bss           0x20005d70        0x0 c:/program files (x86)/gnu tools arm embedded/4.8 2013q4/bin/../lib/gcc/arm-none-eabi/4.8.3/../../../../arm-none-eabi/lib/armv7e-m\libc.a(lib_a-abort.o)
 .bss           0x20005d70        0x0 c:/program files (x86)/gnu tools arm embedded/4.8 2013q4/bin/../lib/gcc/arm-none-eabi/4.8.3/../../../../arm-none-eabi/lib/armv7e-m\libc.a(lib_a-assert.o)
 .bss           0x20005d70        0x0 c:/program files (x86)/gnu tools arm embedded/4.8 2013q4/bin/../lib/gcc/arm-none-eabi/4.8.3/../../../../arm-none-eabi/lib/armv7e-m\libc.a(lib_a-ctype_.o)
 .bss           0x20005d70        0x0 c:/program files (x86)/gnu tools arm embedded/4.8 2013q4/bin/../lib/gcc/arm-none-eabi/4.8.3/../../../../arm-none-eabi/lib/armv7e-m\libc.a(lib_a-cxa_atexit.o)
 .bss           0x20005d70        0x0 c:/program files (x86)/gnu tools arm embedded/4.8 2013q4/bin/../lib/gcc/arm-none-eabi/4.8.3/../../../../arm-none-eabi/lib/armv7e-m\libc.a(lib_a-errno.o)
 .bss           0x20005d70        0x0 c:/program files (x86)/gnu tools arm embedded/4.8 2013q4/bin/../lib/gcc/arm-none-eabi/4.8.3/../../../../arm-none-eabi/lib/armv7e-m\libc.a(lib_a-exit.o)
 .bss           0x20005d70        0x0 c:/program files (x86)/gnu tools arm embedded/4.8 2013q4/bin/../lib/gcc/arm-none-eabi/4.8.3/../../../../arm-none-eabi/lib/armv7e-m\libc.a(lib_a-fiprintf.o)
 .bss           0x20005d70        0x0 c:/program files (x86)/gnu tools arm embedded/4.8 2013q4/bin/../lib/gcc/arm-none-eabi/4.8.3/../../../../arm-none-eabi/lib/armv7e-m\libc.a(lib_a-fputc.o)
 .bss           0x20005d70        0x0 c:/program files (x86)/gnu tools arm embedded/4.8 2013q4/bin/../lib/gcc/arm-none-eabi/4.8.3/../../../../arm-none-eabi/lib/armv7e-m\libc.a(lib_a-fputs.o)
 .bss           0x20005d70        0x0 c:/program files (x86)/gnu tools arm embedded/4.8 2013q4/bin/../lib/gcc/arm-none-eabi/4.8.3/../../../../arm-none-eabi/lib/armv7e-m\libc.a(lib_a-fvwrite.o)
 .bss           0x20005d70        0x0 c:/program files (x86)/gnu tools arm embedded/4.8 2013q4/bin/../lib/gcc/arm-none-eabi/4.8.3/../../../../arm-none-eabi/lib/armv7e-m\libc.a(lib_a-fwrite.o)
 .bss           0x20005d70        0x0 c:/program files (x86)/gnu tools arm embedded/4.8 2013q4/bin/../lib/gcc/arm-none-eabi/4.8.3/../../../../arm-none-eabi/lib/armv7e-m\libc.a(lib_a-impure.o)
 .bss           0x20005d70        0x0 c:/program files (x86)/gnu tools arm embedded/4.8 2013q4/bin/../lib/gcc/arm-none-eabi/4.8.3/../../../../arm-none-eabi/lib/armv7e-m\libc.a(lib_a-init.o)
 .bss           0x20005d70        0x0 c:/program files (x86)/gnu tools arm embedded/4.8 2013q4/bin/../lib/gcc/arm-none-eabi/4.8.3/../../../../arm-none-eabi/lib/armv7e-m\libc.a(lib_a-mallocr.o)
 .bss           0x20005d70        0x0 c:/program files (x86)/gnu tools arm embedded/4.8 2013q4/bin/../lib/gcc/arm-none-eabi/4.8.3/../../../../arm-none-eabi/lib/armv7e-m\libc.a(lib_a-memchr-stub.o)
 .bss           0x20005d70        0x0 c:/program files (x86)/gnu tools arm embedded/4.8 2013q4/bin/../lib/gcc/arm-none-eabi/4.8.3/../../../../arm-none-eabi/lib/armv7e-m\libc.a(lib_a-memcmp.o)
 .bss           0x20005d70        0x0 c:/program files (x86)/gnu tools arm embedded/4.8 2013q4/bin/../lib/gcc/arm-none-eabi/4.8.3/../../../../arm-none-eabi/lib/armv7e-m\libc.a(lib_a-memcpy.o)
 .bss           0x20005d70        0x0 c:/program files (x86)/gnu tools arm embedded/4.8 2013q4/bin/../lib/gcc/arm-none-eabi/4.8.3/../../../../arm-none-eabi/lib/armv7e-m\libc.a(lib_a-memmove.o)
 .bss           0x20005d70        0x0 c:/program files (x86)/gnu tools arm embedded/4.8 2013q4/bin/../lib/gcc/arm-none-eabi/4.8.3/../../../../arm-none-eabi/lib/armv7e-m\libc.a(lib_a-memset.o)
 .bss           0x20005d70        0x0 c:/program files (x86)/gnu tools arm embedded/4.8 2013q4/bin/../lib/gcc/arm-none-eabi/4.8.3/../../../../arm-none-eabi/lib/armv7e-m\libc.a(lib_a-mlock.o)
 .bss           0x20005d70        0x0 c:/program files (x86)/gnu tools arm embedded/4.8 2013q4/bin/../lib/gcc/arm-none-eabi/4.8.3/../../../../arm-none-eabi/lib/armv7e-m\libc.a(lib_a-printf.o)
 .bss           0x20005d70        0x0 c:/program files (x86)/gnu tools arm embedded/4.8 2013q4/bin/../lib/gcc/arm-none-eabi/4.8.3/../../../../arm-none-eabi/lib/armv7e-m\libc.a(lib_a-putc.o)
 .bss           0x20005d70        0x0 c:/program files (x86)/gnu tools arm embedded/4.8 2013q4/bin/../lib/gcc/arm-none-eabi/4.8.3/../../../../arm-none-eabi/lib/armv7e-m\libc.a(lib_a-puts.o)
 .bss           0x20005d70        0x0 c:/program files (x86)/gnu tools arm embedded/4.8 2013q4/bin/../lib/gcc/arm-none-eabi/4.8.3/../../../../arm-none-eabi/lib/armv7e-m\libc.a(lib_a-realloc.o)
 .bss           0x20005d70        0x0 c:/program files (x86)/gnu tools arm embedded/4.8 2013q4/bin/../lib/gcc/arm-none-eabi/4.8.3/../../../../arm-none-eabi/lib/armv7e-m\libc.a(lib_a-reallocr.o)
 .bss           0x20005d70        0x0 c:/program files (x86)/gnu tools arm embedded/4.8 2013q4/bin/../lib/gcc/arm-none-eabi/4.8.3/../../../../arm-none-eabi/lib/armv7e-m\libc.a(lib_a-reent.o)
 .bss           0x20005d70        0x0 c:/program files (x86)/gnu tools arm embedded/4.8 2013q4/bin/../lib/gcc/arm-none-eabi/4.8.3/../../../../arm-none-eabi/lib/armv7e-m\libc.a(lib_a-sbrkr.o)
 .bss           0x20005d70        0x0 c:/program files (x86)/gnu tools arm embedded/4.8 2013q4/bin/../lib/gcc/arm-none-eabi/4.8.3/../../../../arm-none-eabi/lib/armv7e-m\libc.a(lib_a-signal.o)
 .bss           0x20005d70        0x0 c:/program files (x86)/gnu tools arm embedded/4.8 2013q4/bin/../lib/gcc/arm-none-eabi/4.8.3/../../../../arm-none-eabi/lib/armv7e-m\libc.a(lib_a-signalr.o)
 .bss           0x20005d70        0x0 c:/program files (x86)/gnu tools arm embedded/4.8 2013q4/bin/../lib/gcc/arm-none-eabi/4.8.3/../../../../arm-none-eabi/lib/armv7e-m\libc.a(lib_a-sprintf.o)
 .bss           0x20005d70        0x0 c:/program files (x86)/gnu tools arm embedded/4.8 2013q4/bin/../lib/gcc/arm-none-eabi/4.8.3/../../../../arm-none-eabi/lib/armv7e-m\libc.a(lib_a-strcmp.o)
 .bss           0x20005d70        0x0 c:/program files (x86)/gnu tools arm embedded/4.8 2013q4/bin/../lib/gcc/arm-none-eabi/4.8.3/../../../../arm-none-eabi/lib/armv7e-m\libc.a(lib_a-strerror.o)
 .bss           0x20005d70        0x0 c:/program files (x86)/gnu tools arm embedded/4.8 2013q4/bin/../lib/gcc/arm-none-eabi/4.8.3/../../../../arm-none-eabi/lib/armv7e-m\libc.a(lib_a-strlen.o)
 .bss           0x20005d70        0x0 c:/program files (x86)/gnu tools arm embedded/4.8 2013q4/bin/../lib/gcc/arm-none-eabi/4.8.3/../../../../arm-none-eabi/lib/armv7e-m\libc.a(lib_a-strncmp.o)
 .bss           0x20005d70        0x0 c:/program files (x86)/gnu tools arm embedded/4.8 2013q4/bin/../lib/gcc/arm-none-eabi/4.8.3/../../../../arm-none-eabi/lib/armv7e-m\libc.a(lib_a-svfprintf.o)
 .bss           0x20005d70        0x0 c:/program files (x86)/gnu tools arm embedded/4.8 2013q4/bin/../lib/gcc/arm-none-eabi/4.8.3/../../../../arm-none-eabi/lib/armv7e-m\libc.a(lib_a-syswrite.o)
 .bss           0x20005d70        0x0 c:/program files (x86)/gnu tools arm embedded/4.8 2013q4/bin/../lib/gcc/arm-none-eabi/4.8.3/../../../../arm-none-eabi/lib/armv7e-m\libc.a(lib_a-u_strerr.o)
 .bss           0x20005d70        0x0 c:/program files (x86)/gnu tools arm embedded/4.8 2013q4/bin/../lib/gcc/arm-none-eabi/4.8.3/../../../../arm-none-eabi/lib/armv7e-m\libc.a(lib_a-vfiprintf.o)
 .bss           0x20005d70        0x0 c:/program files (x86)/gnu tools arm embedded/4.8 2013q4/bin/../lib/gcc/arm-none-eabi/4.8.3/../../../../arm-none-eabi/lib/armv7e-m\libc.a(lib_a-vfprintf.o)
 .bss           0x20005d70        0x0 c:/program files (x86)/gnu tools arm embedded/4.8 2013q4/bin/../lib/gcc/arm-none-eabi/4.8.3/../../../../arm-none-eabi/lib/armv7e-m\libc.a(lib_a-wbuf.o)
 .bss           0x20005d70        0x0 c:/program files (x86)/gnu tools arm embedded/4.8 2013q4/bin/../lib/gcc/arm-none-eabi/4.8.3/../../../../arm-none-eabi/lib/armv7e-m\libc.a(lib_a-writer.o)
 .bss           0x20005d70        0x0 c:/program files (x86)/gnu tools arm embedded/4.8 2013q4/bin/../lib/gcc/arm-none-eabi/4.8.3/../../../../arm-none-eabi/lib/armv7e-m\libc.a(lib_a-wsetup.o)
 .bss           0x20005d70        0x0 c:/program files (x86)/gnu tools arm embedded/4.8 2013q4/bin/../lib/gcc/arm-none-eabi/4.8.3/../../../../arm-none-eabi/lib/armv7e-m\libc.a(lib_a-__atexit.o)
 .bss           0x20005d70        0x0 c:/program files (x86)/gnu tools arm embedded/4.8 2013q4/bin/../lib/gcc/arm-none-eabi/4.8.3/../../../../arm-none-eabi/lib/armv7e-m\libc.a(lib_a-__call_atexit.o)
 .bss           0x20005d70        0x0 c:/program files (x86)/gnu tools arm embedded/4.8 2013q4/bin/../lib/gcc/arm-none-eabi/4.8.3/../../../../arm-none-eabi/lib/armv7e-m\libc.a(lib_a-atexit.o)
 .bss           0x20005d70        0x0 c:/program files (x86)/gnu tools arm embedded/4.8 2013q4/bin/../lib/gcc/arm-none-eabi/4.8.3/../../../../arm-none-eabi/lib/armv7e-m\libc.a(lib_a-dtoa.o)
 .bss           0x20005d70        0x0 c:/program files (x86)/gnu tools arm embedded/4.8 2013q4/bin/../lib/gcc/arm-none-eabi/4.8.3/../../../../arm-none-eabi/lib/armv7e-m\libc.a(lib_a-fflush.o)
 .bss           0x20005d70        0x0 c:/program files (x86)/gnu tools arm embedded/4.8 2013q4/bin/../lib/gcc/arm-none-eabi/4.8.3/../../../../arm-none-eabi/lib/armv7e-m\libc.a(lib_a-findfp.o)
 .bss           0x20005d70        0x0 c:/program files (x86)/gnu tools arm embedded/4.8 2013q4/bin/../lib/gcc/arm-none-eabi/4.8.3/../../../../arm-none-eabi/lib/armv7e-m\libc.a(lib_a-fini.o)
 .bss           0x20005d70        0x0 c:/program files (x86)/gnu tools arm embedded/4.8 2013q4/bin/../lib/gcc/arm-none-eabi/4.8.3/../../../../arm-none-eabi/lib/armv7e-m\libc.a(lib_a-fputwc.o)
 .bss           0x20005d70        0x0 c:/program files (x86)/gnu tools arm embedded/4.8 2013q4/bin/../lib/gcc/arm-none-eabi/4.8.3/../../../../arm-none-eabi/lib/armv7e-m\libc.a(lib_a-freer.o)
 .bss           0x20005d70        0x0 c:/program files (x86)/gnu tools arm embedded/4.8 2013q4/bin/../lib/gcc/arm-none-eabi/4.8.3/../../../../arm-none-eabi/lib/armv7e-m\libc.a(lib_a-fwalk.o)
 .bss           0x20005d70        0x0 c:/program files (x86)/gnu tools arm embedded/4.8 2013q4/bin/../lib/gcc/arm-none-eabi/4.8.3/../../../../arm-none-eabi/lib/armv7e-m\libc.a(lib_a-locale.o)
 .bss           0x20005d70        0x0 c:/program files (x86)/gnu tools arm embedded/4.8 2013q4/bin/../lib/gcc/arm-none-eabi/4.8.3/../../../../arm-none-eabi/lib/armv7e-m\libc.a(lib_a-makebuf.o)
 .bss           0x20005d70        0x0 c:/program files (x86)/gnu tools arm embedded/4.8 2013q4/bin/../lib/gcc/arm-none-eabi/4.8.3/../../../../arm-none-eabi/lib/armv7e-m\libc.a(lib_a-mprec.o)
 .bss           0x20005d70        0x0 c:/program files (x86)/gnu tools arm embedded/4.8 2013q4/bin/../lib/gcc/arm-none-eabi/4.8.3/../../../../arm-none-eabi/lib/armv7e-m\libc.a(lib_a-stdio.o)
 .bss           0x20005d70        0x0 c:/program files (x86)/gnu tools arm embedded/4.8 2013q4/bin/../lib/gcc/arm-none-eabi/4.8.3/../../../../arm-none-eabi/lib/armv7e-m\libc.a(lib_a-svfiprintf.o)
 .bss           0x20005d70        0x0 c:/program files (x86)/gnu tools arm embedded/4.8 2013q4/bin/../lib/gcc/arm-none-eabi/4.8.3/../../../../arm-none-eabi/lib/armv7e-m\libc.a(lib_a-wcrtomb.o)
 .bss           0x20005d70        0x0 c:/program files (x86)/gnu tools arm embedded/4.8 2013q4/bin/../lib/gcc/arm-none-eabi/4.8.3/../../../../arm-none-eabi/lib/armv7e-m\libc.a(lib_a-wctomb_r.o)
 .bss           0x20005d70        0x0 c:/program files (x86)/gnu tools arm embedded/4.8 2013q4/bin/../lib/gcc/arm-none-eabi/4.8.3/../../../../arm-none-eabi/lib/armv7e-m\libc.a(lib_a-callocr.o)
 .bss           0x20005d70        0x0 c:/program files (x86)/gnu tools arm embedded/4.8 2013q4/bin/../lib/gcc/arm-none-eabi/4.8.3/../../../../arm-none-eabi/lib/armv7e-m\libc.a(lib_a-closer.o)
 .bss           0x20005d70        0x0 c:/program files (x86)/gnu tools arm embedded/4.8 2013q4/bin/../lib/gcc/arm-none-eabi/4.8.3/../../../../arm-none-eabi/lib/armv7e-m\libc.a(lib_a-fclose.o)
 .bss           0x20005d70        0x0 c:/program files (x86)/gnu tools arm embedded/4.8 2013q4/bin/../lib/gcc/arm-none-eabi/4.8.3/../../../../arm-none-eabi/lib/armv7e-m\libc.a(lib_a-fstatr.o)
 .bss           0x20005d70        0x0 c:/program files (x86)/gnu tools arm embedded/4.8 2013q4/bin/../lib/gcc/arm-none-eabi/4.8.3/../../../../arm-none-eabi/lib/armv7e-m\libc.a(lib_a-isattyr.o)
 .bss           0x20005d70        0x0 c:/program files (x86)/gnu tools arm embedded/4.8 2013q4/bin/../lib/gcc/arm-none-eabi/4.8.3/../../../../arm-none-eabi/lib/armv7e-m\libc.a(lib_a-lseekr.o)
 .bss           0x20005d70        0x0 c:/program files (x86)/gnu tools arm embedded/4.8 2013q4/bin/../lib/gcc/arm-none-eabi/4.8.3/../../../../arm-none-eabi/lib/armv7e-m\libc.a(lib_a-readr.o)
 .bss           0x20005d70        0x0 c:/program files (x86)/gnu tools arm embedded/4.8 2013q4/bin/../lib/gcc/arm-none-eabi/4.8.3/armv7e-m\libgcc.a(_aeabi_uldivmod.o)
 .bss           0x20005d70        0x0 c:/program files (x86)/gnu tools arm embedded/4.8 2013q4/bin/../lib/gcc/arm-none-eabi/4.8.3/armv7e-m\libgcc.a(bpabi.o)
 .bss           0x20005d70        0x0 c:/program files (x86)/gnu tools arm embedded/4.8 2013q4/bin/../lib/gcc/arm-none-eabi/4.8.3/armv7e-m\libgcc.a(_dvmd_tls.o)
 .bss           0x20005d70        0x0 c:/program files (x86)/gnu tools arm embedded/4.8 2013q4/bin/../lib/gcc/arm-none-eabi/4.8.3/armv7e-m\libgcc.a(_divdi3.o)
 .bss           0x20005d70        0x0 c:/program files (x86)/gnu tools arm embedded/4.8 2013q4/bin/../lib/gcc/arm-none-eabi/4.8.3/armv7e-m\libgcc.a(_udivdi3.o)
 .bss           0x20005d70        0x0 c:/program files (x86)/gnu tools arm embedded/4.8 2013q4/bin/../lib/gcc/arm-none-eabi/4.8.3/armv7e-m/crtend.o
 .bss           0x20005d70        0x0 c:/program files (x86)/gnu tools arm embedded/4.8 2013q4/bin/../lib/gcc/arm-none-eabi/4.8.3/armv7e-m/crtn.o
 .bss           0x20005d70        0x0 c:/program files (x86)/gnu tools arm embedded/4.8 2013q4/bin/../lib/gcc/arm-none-eabi/4.8.3/../../../../arm-none-eabi/lib/armv7e-m\libm.a(lib_a-s_ceil.o)
 .bss           0x20005d70        0x0 c:/program files (x86)/gnu tools arm embedded/4.8 2013q4/bin/../lib/gcc/arm-none-eabi/4.8.3/../../../../arm-none-eabi/lib/armv7e-m\libm.a(lib_a-s_floor.o)
 *(.bss*)
 .bss._ZL15dependents_used
                0x20005d70        0x4 c:/program files (x86)/gnu tools arm embedded/4.8 2013q4/bin/../lib/gcc/arm-none-eabi/4.8.3/../../../../arm-none-eabi/lib/armv7e-m\libstdc++.a(eh_alloc.o)
 *fill*         0x20005d74        0x4 
 .bss._ZL17dependents_buffer
                0x20005d78      0x1e0 c:/program files (x86)/gnu tools arm embedded/4.8 2013q4/bin/../lib/gcc/arm-none-eabi/4.8.3/../../../../arm-none-eabi/lib/armv7e-m\libstdc++.a(eh_alloc.o)
 .bss._ZL14emergency_used
                0x20005f58        0x4 c:/program files (x86)/gnu tools arm embedded/4.8 2013q4/bin/../lib/gcc/arm-none-eabi/4.8.3/../../../../arm-none-eabi/lib/armv7e-m\libstdc++.a(eh_alloc.o)
 *fill*         0x20005f5c        0x4 
 .bss._ZL16emergency_buffer
                0x20005f60      0x800 c:/program files (x86)/gnu tools arm embedded/4.8 2013q4/bin/../lib/gcc/arm-none-eabi/4.8.3/../../../../arm-none-eabi/lib/armv7e-m\libstdc++.a(eh_alloc.o)
 .bss._ZNSs4_Rep20_S_empty_rep_storageE
                0x20006760       0x10 c:/program files (x86)/gnu tools arm embedded/4.8 2013q4/bin/../lib/gcc/arm-none-eabi/4.8.3/../../../../arm-none-eabi/lib/armv7e-m\libstdc++.a(string-inst.o)
                0x20006760                std::string::_Rep::_S_empty_rep_storage
 .bss.__new_handler
                0x20006770        0x4 c:/program files (x86)/gnu tools arm embedded/4.8 2013q4/bin/../lib/gcc/arm-none-eabi/4.8.3/../../../../arm-none-eabi/lib/armv7e-m\libstdc++.a(new_handler.o)
                0x20006770                __new_handler
 .bss._ZL10eh_globals
                0x20006774        0xc c:/program files (x86)/gnu tools arm embedded/4.8 2013q4/bin/../lib/gcc/arm-none-eabi/4.8.3/../../../../arm-none-eabi/lib/armv7e-m\libstdc++.a(eh_globals.o)
 .bss._ZZN9__gnu_cxx27__verbose_terminate_handlerEvE11terminating
                0x20006780        0x1 c:/program files (x86)/gnu tools arm embedded/4.8 2013q4/bin/../lib/gcc/arm-none-eabi/4.8.3/../../../../arm-none-eabi/lib/armv7e-m\libstdc++.a(vterminate.o)
 *fill*         0x20006781        0x3 
 .bss._ZN12_GLOBAL__N_1L24system_category_instanceE
                0x20006784        0x4 c:/program files (x86)/gnu tools arm embedded/4.8 2013q4/bin/../lib/gcc/arm-none-eabi/4.8.3/../../../../arm-none-eabi/lib/armv7e-m\libstdc++.a(system_error.o)
 .bss._ZN12_GLOBAL__N_1L25generic_category_instanceE
                0x20006788        0x4 c:/program files (x86)/gnu tools arm embedded/4.8 2013q4/bin/../lib/gcc/arm-none-eabi/4.8.3/../../../../arm-none-eabi/lib/armv7e-m\libstdc++.a(system_error.o)
 .bss._ZZN12_GLOBAL__N_126__future_category_instanceEvE5__fec
                0x2000678c        0x4 c:/program files (x86)/gnu tools arm embedded/4.8 2013q4/bin/../lib/gcc/arm-none-eabi/4.8.3/../../../../arm-none-eabi/lib/armv7e-m\libstdc++.a(future.o)
 .bss._ZGVZN12_GLOBAL__N_126__future_category_instanceEvE5__fec
                0x20006790        0x4 c:/program files (x86)/gnu tools arm embedded/4.8 2013q4/bin/../lib/gcc/arm-none-eabi/4.8.3/../../../../arm-none-eabi/lib/armv7e-m\libstdc++.a(future.o)
 .bss.__malloc_max_total_mem
                0x20006794        0x4 c:/program files (x86)/gnu tools arm embedded/4.8 2013q4/bin/../lib/gcc/arm-none-eabi/4.8.3/../../../../arm-none-eabi/lib/armv7e-m\libc.a(lib_a-mallocr.o)
                0x20006794                __malloc_max_total_mem
 .bss.__malloc_max_sbrked_mem
                0x20006798        0x4 c:/program files (x86)/gnu tools arm embedded/4.8 2013q4/bin/../lib/gcc/arm-none-eabi/4.8.3/../../../../arm-none-eabi/lib/armv7e-m\libc.a(lib_a-mallocr.o)
                0x20006798                __malloc_max_sbrked_mem
 .bss.__malloc_top_pad
                0x2000679c        0x4 c:/program files (x86)/gnu tools arm embedded/4.8 2013q4/bin/../lib/gcc/arm-none-eabi/4.8.3/../../../../arm-none-eabi/lib/armv7e-m\libc.a(lib_a-mallocr.o)
                0x2000679c                __malloc_top_pad
 .bss.__malloc_current_mallinfo
                0x200067a0       0x28 c:/program files (x86)/gnu tools arm embedded/4.8 2013q4/bin/../lib/gcc/arm-none-eabi/4.8.3/../../../../arm-none-eabi/lib/armv7e-m\libc.a(lib_a-mallocr.o)
                0x200067a0                __malloc_current_mallinfo
 .bss._PathLocale
                0x200067c8        0x4 c:/program files (x86)/gnu tools arm embedded/4.8 2013q4/bin/../lib/gcc/arm-none-eabi/4.8.3/../../../../arm-none-eabi/lib/armv7e-m\libc.a(lib_a-locale.o)
                0x200067c8                _PathLocale
 .bss.__nlocale_changed
                0x200067cc        0x4 c:/program files (x86)/gnu tools arm embedded/4.8 2013q4/bin/../lib/gcc/arm-none-eabi/4.8.3/../../../../arm-none-eabi/lib/armv7e-m\libc.a(lib_a-locale.o)
                0x200067cc                __nlocale_changed
 .bss.__mlocale_changed
                0x200067d0        0x4 c:/program files (x86)/gnu tools arm embedded/4.8 2013q4/bin/../lib/gcc/arm-none-eabi/4.8.3/../../../../arm-none-eabi/lib/armv7e-m\libc.a(lib_a-locale.o)
                0x200067d0                __mlocale_changed
 *(COMMON)
 COMMON         0x200067d4       0x34 ../build/obj/dhcp.o
                0x200067d4                dhcp_rx_options_given
                0x200067e0                dhcp_rx_options_val
 COMMON         0x20006808     0x6414 ../build/obj/mem.o
                0x20006808                ram_heap
 COMMON         0x2000cc1c        0x8 ../build/obj/netif.o
                0x2000cc1c                netif_list
                0x2000cc20                netif_default
 COMMON         0x2000cc24       0xd6 ../build/obj/stats.o
                0x2000cc24                lwip_stats
 *fill*         0x2000ccfa        0x2 
 COMMON         0x2000ccfc        0x4 ../build/obj/udp.o
                0x2000ccfc                udp_pcbs
 COMMON         0x2000cd00       0x10 ../build/obj/ip.o
                0x2000cd00                current_iphdr_src
                0x2000cd04                current_netif
                0x2000cd08                current_iphdr_dest
                0x2000cd0c                current_header
 COMMON         0x2000cd10       0xbc ../build/obj/stm32f4x7_eth_bsp.o
                0x2000cd10                ETH_InitStructure
 COMMON         0x2000cdcc     0x30bc ../build/obj/stm32f4x7_eth.o
                0x2000cdcc                RX_Frame_Descriptor
                0x2000cdd8                DMARxDescToGet
                0x2000cddc                DMATxDescToSet
                0x2000cde0                DMATxDscrTab
                0x2000ce60                Rx_Buff
                0x2000e630                Frame_Rx_index
                0x2000e634                DMA_RX_FRAME_infos
                0x2000e638                DMARxDscrTab
                0x2000e6b8                Tx_Buff
 COMMON         0x2000fe88       0x38 ../build/obj/netconf.o
                0x2000fe88                gnetif
 COMMON         0x2000fec0        0x4 ../build/obj/sys_conf.o
                0x2000fec0                timingdelay
 COMMON         0x2000fec4        0x4 c:/program files (x86)/gnu tools arm embedded/4.8 2013q4/bin/../lib/gcc/arm-none-eabi/4.8.3/../../../../arm-none-eabi/lib/armv7e-m\libc.a(lib_a-reent.o)
                0x2000fec4                errno
                0x2000fec8                . = ALIGN (0x4)
                0x2000fec8                _ebss = .
                0x2000fec8                __bss_end__ = _ebss

._user_heap_stack
                0x2000fec8      0x400
                0x2000fec8                . = ALIGN (0x4)
                0x2000fec8                PROVIDE (end, .)
                0x2000fec8                PROVIDE (_end, .)
                0x2000fec8                . = (. + _Min_Heap_Size)
                0x200102c8                . = (. + _Min_Stack_Size)
 *fill*         0x2000fec8      0x400 
                0x200102c8                . = ALIGN (0x4)

/DISCARD/
 libc.a(*)
 libm.a(*)
 libgcc.a(*)

.ARM.attributes
                0x00000000       0x2a
 *(.ARM.attributes)
 .ARM.attributes
                0x00000000       0x1e c:/program files (x86)/gnu tools arm embedded/4.8 2013q4/bin/../lib/gcc/arm-none-eabi/4.8.3/armv7e-m/crti.o
 .ARM.attributes
                0x0000001e       0x2e c:/program files (x86)/gnu tools arm embedded/4.8 2013q4/bin/../lib/gcc/arm-none-eabi/4.8.3/armv7e-m/crtbegin.o
 .ARM.attributes
                0x0000004c       0x1c c:/program files (x86)/gnu tools arm embedded/4.8 2013q4/bin/../lib/gcc/arm-none-eabi/4.8.3/../../../../arm-none-eabi/lib/armv7e-m/crt0.o
 .ARM.attributes
                0x00000068       0x33 ../build/obj/system_stm32f4xx.o
 .ARM.attributes
                0x0000009b       0x33 ../build/obj/bget.o
 .ARM.attributes
                0x000000ce       0x33 ../build/obj/api_lib.o
 .ARM.attributes
                0x00000101       0x33 ../build/obj/api_msg.o
 .ARM.attributes
                0x00000134       0x33 ../build/obj/err.o
 .ARM.attributes
                0x00000167       0x33 ../build/obj/netbuf.o
 .ARM.attributes
                0x0000019a       0x33 ../build/obj/netdb.o
 .ARM.attributes
                0x000001cd       0x33 ../build/obj/netifapi.o
 .ARM.attributes
                0x00000200       0x33 ../build/obj/sockets.o
 .ARM.attributes
                0x00000233       0x33 ../build/obj/tcpip.o
 .ARM.attributes
                0x00000266       0x33 ../build/obj/def.o
 .ARM.attributes
                0x00000299       0x33 ../build/obj/dhcp.o
 .ARM.attributes
                0x000002cc       0x33 ../build/obj/dns.o
 .ARM.attributes
                0x000002ff       0x33 ../build/obj/init.o
 .ARM.attributes
                0x00000332       0x33 ../build/obj/mem.o
 .ARM.attributes
                0x00000365       0x33 ../build/obj/memp.o
 .ARM.attributes
                0x00000398       0x33 ../build/obj/netif.o
 .ARM.attributes
                0x000003cb       0x33 ../build/obj/pbuf.o
 .ARM.attributes
                0x000003fe       0x33 ../build/obj/raw.o
 .ARM.attributes
                0x00000431       0x33 ../build/obj/stats.o
 .ARM.attributes
                0x00000464       0x33 ../build/obj/sys.o
 .ARM.attributes
                0x00000497       0x33 ../build/obj/tcp.o
 .ARM.attributes
                0x000004ca       0x33 ../build/obj/tcp_in.o
 .ARM.attributes
                0x000004fd       0x33 ../build/obj/tcp_out.o
 .ARM.attributes
                0x00000530       0x33 ../build/obj/timers.o
 .ARM.attributes
                0x00000563       0x33 ../build/obj/udp.o
 .ARM.attributes
                0x00000596       0x33 ../build/obj/autoip.o
 .ARM.attributes
                0x000005c9       0x33 ../build/obj/icmp.o
 .ARM.attributes
                0x000005fc       0x33 ../build/obj/igmp.o
 .ARM.attributes
                0x0000062f       0x33 ../build/obj/inet.o
 .ARM.attributes
                0x00000662       0x33 ../build/obj/inet_chksum.o
 .ARM.attributes
                0x00000695       0x33 ../build/obj/ip.o
 .ARM.attributes
                0x000006c8       0x33 ../build/obj/ip_addr.o
 .ARM.attributes
                0x000006fb       0x33 ../build/obj/ip_frag.o
 .ARM.attributes
                0x0000072e       0x33 ../build/obj/etharp.o
 .ARM.attributes
                0x00000761       0x33 ../build/obj/slipif.o
 .ARM.attributes
                0x00000794       0x33 ../build/obj/ethernetif.o
 .ARM.attributes
                0x000007c7       0x33 ../build/obj/stm32f4x7_eth_bsp.o
 .ARM.attributes
                0x000007fa       0x33 ../build/obj/stm32f4x7_eth.o
 .ARM.attributes
                0x0000082d       0x33 ../build/obj/misc.o
 .ARM.attributes
                0x00000860       0x33 ../build/obj/stm32f4xx_dma.o
 .ARM.attributes
                0x00000893       0x33 ../build/obj/stm32f4xx_exti.o
 .ARM.attributes
                0x000008c6       0x33 ../build/obj/stm32f4xx_gpio.o
 .ARM.attributes
                0x000008f9       0x33 ../build/obj/stm32f4xx_rcc.o
 .ARM.attributes
                0x0000092c       0x33 ../build/obj/stm32f4xx_syscfg.o
 .ARM.attributes
                0x0000095f       0x33 ../build/obj/stm32f4xx_tim.o
 .ARM.attributes
                0x00000992       0x33 ../build/obj/netconf.o
 .ARM.attributes
                0x000009c5       0x21 ../build/obj/startup_stm32f4xx.o
 .ARM.attributes
                0x000009e6       0x33 ../build/obj/oscreceivedelements.o
 .ARM.attributes
                0x00000a19       0x33 ../build/obj/osctypes.o
 .ARM.attributes
                0x00000a4c       0x33 ../build/obj/buffs_iram1.o
 .ARM.attributes
                0x00000a7f       0x33 ../build/obj/buffs_iram2.o
 .ARM.attributes
                0x00000ab2       0x33 ../build/obj/sys_conf.o
 .ARM.attributes
                0x00000ae5       0x33 ../build/obj/stm32f4xx_it.o
 .ARM.attributes
                0x00000b18       0x33 ../build/obj/grizzlysys.o
 .ARM.attributes
                0x00000b4b       0x33 ../build/obj/grizzlyapp.o
 .ARM.attributes
                0x00000b7e       0x33 ../build/obj/udp_color_server.o
 .ARM.attributes
                0x00000bb1       0x33 ../build/obj/main.o
 .ARM.attributes
                0x00000be4       0x2e c:/program files (x86)/gnu tools arm embedded/4.8 2013q4/bin/../lib/gcc/arm-none-eabi/4.8.3/../../../../arm-none-eabi/lib/armv7e-m\libm.a(lib_a-w_pow.o)
 .ARM.attributes
                0x00000c12       0x2e c:/program files (x86)/gnu tools arm embedded/4.8 2013q4/bin/../lib/gcc/arm-none-eabi/4.8.3/../../../../arm-none-eabi/lib/armv7e-m\libm.a(lib_a-e_pow.o)
 .ARM.attributes
                0x00000c40       0x2e c:/program files (x86)/gnu tools arm embedded/4.8 2013q4/bin/../lib/gcc/arm-none-eabi/4.8.3/../../../../arm-none-eabi/lib/armv7e-m\libm.a(lib_a-e_sqrt.o)
 .ARM.attributes
                0x00000c6e       0x2e c:/program files (x86)/gnu tools arm embedded/4.8 2013q4/bin/../lib/gcc/arm-none-eabi/4.8.3/../../../../arm-none-eabi/lib/armv7e-m\libm.a(lib_a-s_fabs.o)
 .ARM.attributes
                0x00000c9c       0x2e c:/program files (x86)/gnu tools arm embedded/4.8 2013q4/bin/../lib/gcc/arm-none-eabi/4.8.3/../../../../arm-none-eabi/lib/armv7e-m\libm.a(lib_a-s_finite.o)
 .ARM.attributes
                0x00000cca       0x2e c:/program files (x86)/gnu tools arm embedded/4.8 2013q4/bin/../lib/gcc/arm-none-eabi/4.8.3/../../../../arm-none-eabi/lib/armv7e-m\libm.a(lib_a-s_fpclassify.o)
 .ARM.attributes
                0x00000cf8       0x2e c:/program files (x86)/gnu tools arm embedded/4.8 2013q4/bin/../lib/gcc/arm-none-eabi/4.8.3/../../../../arm-none-eabi/lib/armv7e-m\libm.a(lib_a-s_lib_ver.o)
 .ARM.attributes
                0x00000d26       0x2e c:/program files (x86)/gnu tools arm embedded/4.8 2013q4/bin/../lib/gcc/arm-none-eabi/4.8.3/../../../../arm-none-eabi/lib/armv7e-m\libm.a(lib_a-s_matherr.o)
 .ARM.attributes
                0x00000d54       0x2e c:/program files (x86)/gnu tools arm embedded/4.8 2013q4/bin/../lib/gcc/arm-none-eabi/4.8.3/../../../../arm-none-eabi/lib/armv7e-m\libm.a(lib_a-s_nan.o)
 .ARM.attributes
                0x00000d82       0x2e c:/program files (x86)/gnu tools arm embedded/4.8 2013q4/bin/../lib/gcc/arm-none-eabi/4.8.3/../../../../arm-none-eabi/lib/armv7e-m\libm.a(lib_a-s_rint.o)
 .ARM.attributes
                0x00000db0       0x2e c:/program files (x86)/gnu tools arm embedded/4.8 2013q4/bin/../lib/gcc/arm-none-eabi/4.8.3/../../../../arm-none-eabi/lib/armv7e-m\libm.a(lib_a-s_scalbn.o)
 .ARM.attributes
                0x00000dde       0x2e c:/program files (x86)/gnu tools arm embedded/4.8 2013q4/bin/../lib/gcc/arm-none-eabi/4.8.3/../../../../arm-none-eabi/lib/armv7e-m\libm.a(lib_a-s_copysign.o)
 .ARM.attributes
                0x00000e0c       0x2e c:/program files (x86)/gnu tools arm embedded/4.8 2013q4/bin/../lib/gcc/arm-none-eabi/4.8.3/../../../../arm-none-eabi/lib/armv7e-m\libstdc++.a(pointer_type_info.o)
 .ARM.attributes
                0x00000e3a       0x2e c:/program files (x86)/gnu tools arm embedded/4.8 2013q4/bin/../lib/gcc/arm-none-eabi/4.8.3/../../../../arm-none-eabi/lib/armv7e-m\libstdc++.a(fundamental_type_info.o)
 .ARM.attributes
                0x00000e68       0x2e c:/program files (x86)/gnu tools arm embedded/4.8 2013q4/bin/../lib/gcc/arm-none-eabi/4.8.3/../../../../arm-none-eabi/lib/armv7e-m\libstdc++.a(si_class_type_info.o)
 .ARM.attributes
                0x00000e96       0x2e c:/program files (x86)/gnu tools arm embedded/4.8 2013q4/bin/../lib/gcc/arm-none-eabi/4.8.3/../../../../arm-none-eabi/lib/armv7e-m\libstdc++.a(pure.o)
 .ARM.attributes
                0x00000ec4       0x2e c:/program files (x86)/gnu tools arm embedded/4.8 2013q4/bin/../lib/gcc/arm-none-eabi/4.8.3/../../../../arm-none-eabi/lib/armv7e-m\libstdc++.a(pbase_type_info.o)
 .ARM.attributes
                0x00000ef2       0x2e c:/program files (x86)/gnu tools arm embedded/4.8 2013q4/bin/../lib/gcc/arm-none-eabi/4.8.3/../../../../arm-none-eabi/lib/armv7e-m\libstdc++.a(eh_exception.o)
 .ARM.attributes
                0x00000f20       0x2e c:/program files (x86)/gnu tools arm embedded/4.8 2013q4/bin/../lib/gcc/arm-none-eabi/4.8.3/../../../../arm-none-eabi/lib/armv7e-m\libstdc++.a(del_op.o)
 .ARM.attributes
                0x00000f4e       0x2e c:/program files (x86)/gnu tools arm embedded/4.8 2013q4/bin/../lib/gcc/arm-none-eabi/4.8.3/../../../../arm-none-eabi/lib/armv7e-m\libstdc++.a(class_type_info.o)
 .ARM.attributes
                0x00000f7c       0x2e c:/program files (x86)/gnu tools arm embedded/4.8 2013q4/bin/../lib/gcc/arm-none-eabi/4.8.3/../../../../arm-none-eabi/lib/armv7e-m\libstdc++.a(atexit_arm.o)
 .ARM.attributes
                0x00000faa       0x2e c:/program files (x86)/gnu tools arm embedded/4.8 2013q4/bin/../lib/gcc/arm-none-eabi/4.8.3/../../../../arm-none-eabi/lib/armv7e-m\libstdc++.a(eh_throw.o)
 .ARM.attributes
                0x00000fd8       0x2e c:/program files (x86)/gnu tools arm embedded/4.8 2013q4/bin/../lib/gcc/arm-none-eabi/4.8.3/../../../../arm-none-eabi/lib/armv7e-m\libstdc++.a(new_op.o)
 .ARM.attributes
                0x00001006       0x2e c:/program files (x86)/gnu tools arm embedded/4.8 2013q4/bin/../lib/gcc/arm-none-eabi/4.8.3/../../../../arm-none-eabi/lib/armv7e-m\libstdc++.a(eh_personality.o)
 .ARM.attributes
                0x00001034       0x2e c:/program files (x86)/gnu tools arm embedded/4.8 2013q4/bin/../lib/gcc/arm-none-eabi/4.8.3/../../../../arm-none-eabi/lib/armv7e-m\libstdc++.a(eh_term_handler.o)
 .ARM.attributes
                0x00001062       0x2e c:/program files (x86)/gnu tools arm embedded/4.8 2013q4/bin/../lib/gcc/arm-none-eabi/4.8.3/../../../../arm-none-eabi/lib/armv7e-m\libstdc++.a(eh_alloc.o)
 .ARM.attributes
                0x00001090       0x2e c:/program files (x86)/gnu tools arm embedded/4.8 2013q4/bin/../lib/gcc/arm-none-eabi/4.8.3/../../../../arm-none-eabi/lib/armv7e-m\libstdc++.a(function_type_info.o)
 .ARM.attributes
                0x000010be       0x2e c:/program files (x86)/gnu tools arm embedded/4.8 2013q4/bin/../lib/gcc/arm-none-eabi/4.8.3/../../../../arm-none-eabi/lib/armv7e-m\libstdc++.a(eh_terminate.o)
 .ARM.attributes
                0x000010ec       0x2e c:/program files (x86)/gnu tools arm embedded/4.8 2013q4/bin/../lib/gcc/arm-none-eabi/4.8.3/../../../../arm-none-eabi/lib/armv7e-m\libstdc++.a(tinfo.o)
 .ARM.attributes
                0x0000111a       0x2e c:/program files (x86)/gnu tools arm embedded/4.8 2013q4/bin/../lib/gcc/arm-none-eabi/4.8.3/../../../../arm-none-eabi/lib/armv7e-m\libstdc++.a(eh_unex_handler.o)
 .ARM.attributes
                0x00001148       0x2e c:/program files (x86)/gnu tools arm embedded/4.8 2013q4/bin/../lib/gcc/arm-none-eabi/4.8.3/../../../../arm-none-eabi/lib/armv7e-m\libstdc++.a(string-inst.o)
 .ARM.attributes
                0x00001176       0x2e c:/program files (x86)/gnu tools arm embedded/4.8 2013q4/bin/../lib/gcc/arm-none-eabi/4.8.3/../../../../arm-none-eabi/lib/armv7e-m\libstdc++.a(hashtable_c++0x.o)
 .ARM.attributes
                0x000011a4       0x2e c:/program files (x86)/gnu tools arm embedded/4.8 2013q4/bin/../lib/gcc/arm-none-eabi/4.8.3/../../../../arm-none-eabi/lib/armv7e-m\libstdc++.a(functexcept.o)
 .ARM.attributes
                0x000011d2       0x2e c:/program files (x86)/gnu tools arm embedded/4.8 2013q4/bin/../lib/gcc/arm-none-eabi/4.8.3/../../../../arm-none-eabi/lib/armv7e-m\libstdc++.a(functional.o)
 .ARM.attributes
                0x00001200       0x2e c:/program files (x86)/gnu tools arm embedded/4.8 2013q4/bin/../lib/gcc/arm-none-eabi/4.8.3/../../../../arm-none-eabi/lib/armv7e-m\libstdc++.a(eh_call.o)
 .ARM.attributes
                0x0000122e       0x2e c:/program files (x86)/gnu tools arm embedded/4.8 2013q4/bin/../lib/gcc/arm-none-eabi/4.8.3/../../../../arm-none-eabi/lib/armv7e-m\libstdc++.a(eh_arm.o)
 .ARM.attributes
                0x0000125c       0x2e c:/program files (x86)/gnu tools arm embedded/4.8 2013q4/bin/../lib/gcc/arm-none-eabi/4.8.3/../../../../arm-none-eabi/lib/armv7e-m\libstdc++.a(new_handler.o)
 .ARM.attributes
                0x0000128a       0x2e c:/program files (x86)/gnu tools arm embedded/4.8 2013q4/bin/../lib/gcc/arm-none-eabi/4.8.3/../../../../arm-none-eabi/lib/armv7e-m\libstdc++.a(bad_alloc.o)
 .ARM.attributes
                0x000012b8       0x2e c:/program files (x86)/gnu tools arm embedded/4.8 2013q4/bin/../lib/gcc/arm-none-eabi/4.8.3/../../../../arm-none-eabi/lib/armv7e-m\libstdc++.a(eh_aux_runtime.o)
 .ARM.attributes
                0x000012e6       0x2e c:/program files (x86)/gnu tools arm embedded/4.8 2013q4/bin/../lib/gcc/arm-none-eabi/4.8.3/../../../../arm-none-eabi/lib/armv7e-m\libstdc++.a(eh_globals.o)
 .ARM.attributes
                0x00001314       0x2e c:/program files (x86)/gnu tools arm embedded/4.8 2013q4/bin/../lib/gcc/arm-none-eabi/4.8.3/../../../../arm-none-eabi/lib/armv7e-m\libstdc++.a(bad_cast.o)
 .ARM.attributes
                0x00001342       0x2e c:/program files (x86)/gnu tools arm embedded/4.8 2013q4/bin/../lib/gcc/arm-none-eabi/4.8.3/../../../../arm-none-eabi/lib/armv7e-m\libstdc++.a(eh_catch.o)
 .ARM.attributes
                0x00001370       0x2e c:/program files (x86)/gnu tools arm embedded/4.8 2013q4/bin/../lib/gcc/arm-none-eabi/4.8.3/../../../../arm-none-eabi/lib/armv7e-m\libstdc++.a(vterminate.o)
 .ARM.attributes
                0x0000139e       0x2e c:/program files (x86)/gnu tools arm embedded/4.8 2013q4/bin/../lib/gcc/arm-none-eabi/4.8.3/../../../../arm-none-eabi/lib/armv7e-m\libstdc++.a(eh_type.o)
 .ARM.attributes
                0x000013cc       0x2e c:/program files (x86)/gnu tools arm embedded/4.8 2013q4/bin/../lib/gcc/arm-none-eabi/4.8.3/../../../../arm-none-eabi/lib/armv7e-m\libstdc++.a(bad_typeid.o)
 .ARM.attributes
                0x000013fa       0x2e c:/program files (x86)/gnu tools arm embedded/4.8 2013q4/bin/../lib/gcc/arm-none-eabi/4.8.3/../../../../arm-none-eabi/lib/armv7e-m\libstdc++.a(ios_failure.o)
 .ARM.attributes
                0x00001428       0x2e c:/program files (x86)/gnu tools arm embedded/4.8 2013q4/bin/../lib/gcc/arm-none-eabi/4.8.3/../../../../arm-none-eabi/lib/armv7e-m\libstdc++.a(stdexcept.o)
 .ARM.attributes
                0x00001456       0x2e c:/program files (x86)/gnu tools arm embedded/4.8 2013q4/bin/../lib/gcc/arm-none-eabi/4.8.3/../../../../arm-none-eabi/lib/armv7e-m\libstdc++.a(system_error.o)
 .ARM.attributes
                0x00001484       0x2e c:/program files (x86)/gnu tools arm embedded/4.8 2013q4/bin/../lib/gcc/arm-none-eabi/4.8.3/../../../../arm-none-eabi/lib/armv7e-m\libstdc++.a(future.o)
 .ARM.attributes
                0x000014b2       0x2e c:/program files (x86)/gnu tools arm embedded/4.8 2013q4/bin/../lib/gcc/arm-none-eabi/4.8.3/../../../../arm-none-eabi/lib/armv7e-m\libstdc++.a(regex.o)
 .ARM.attributes
                0x000014e0       0x2e c:/program files (x86)/gnu tools arm embedded/4.8 2013q4/bin/../lib/gcc/arm-none-eabi/4.8.3/../../../../arm-none-eabi/lib/armv7e-m\libstdc++.a(guard.o)
 .ARM.attributes
                0x0000150e       0x2e c:/program files (x86)/gnu tools arm embedded/4.8 2013q4/bin/../lib/gcc/arm-none-eabi/4.8.3/../../../../arm-none-eabi/lib/armv7e-m\libstdc++.a(cp-demangle.o)
 .ARM.attributes
                0x0000153c       0x2e c:/program files (x86)/gnu tools arm embedded/4.8 2013q4/bin/../lib/gcc/arm-none-eabi/4.8.3/../../../../arm-none-eabi/lib/armv7e-m\libstdc++.a(guard_error.o)
 .ARM.attributes
                0x0000156a       0x1e c:/program files (x86)/gnu tools arm embedded/4.8 2013q4/bin/../lib/gcc/arm-none-eabi/4.8.3/armv7e-m\libgcc.a(_arm_addsubdf3.o)
 .ARM.attributes
                0x00001588       0x1e c:/program files (x86)/gnu tools arm embedded/4.8 2013q4/bin/../lib/gcc/arm-none-eabi/4.8.3/armv7e-m\libgcc.a(_arm_muldivdf3.o)
 .ARM.attributes
                0x000015a6       0x1e c:/program files (x86)/gnu tools arm embedded/4.8 2013q4/bin/../lib/gcc/arm-none-eabi/4.8.3/armv7e-m\libgcc.a(_arm_cmpdf2.o)
 .ARM.attributes
                0x000015c4       0x1e c:/program files (x86)/gnu tools arm embedded/4.8 2013q4/bin/../lib/gcc/arm-none-eabi/4.8.3/armv7e-m\libgcc.a(_arm_fixdfsi.o)
 .ARM.attributes
                0x000015e2       0x1e c:/program files (x86)/gnu tools arm embedded/4.8 2013q4/bin/../lib/gcc/arm-none-eabi/4.8.3/armv7e-m\libgcc.a(_arm_fixunsdfsi.o)
 .ARM.attributes
                0x00001600       0x2e c:/program files (x86)/gnu tools arm embedded/4.8 2013q4/bin/../lib/gcc/arm-none-eabi/4.8.3/armv7e-m\libgcc.a(unwind-arm.o)
 .ARM.attributes
                0x0000162e       0x1e c:/program files (x86)/gnu tools arm embedded/4.8 2013q4/bin/../lib/gcc/arm-none-eabi/4.8.3/armv7e-m\libgcc.a(libunwind.o)
 .ARM.attributes
                0x0000164c       0x2e c:/program files (x86)/gnu tools arm embedded/4.8 2013q4/bin/../lib/gcc/arm-none-eabi/4.8.3/armv7e-m\libgcc.a(pr-support.o)
 .ARM.attributes
                0x0000167a       0x2e c:/program files (x86)/gnu tools arm embedded/4.8 2013q4/bin/../lib/gcc/arm-none-eabi/4.8.3/../../../../arm-none-eabi/lib/armv7e-m\libc.a(lib_a-abort.o)
 .ARM.attributes
                0x000016a8       0x2e c:/program files (x86)/gnu tools arm embedded/4.8 2013q4/bin/../lib/gcc/arm-none-eabi/4.8.3/../../../../arm-none-eabi/lib/armv7e-m\libc.a(lib_a-assert.o)
 .ARM.attributes
                0x000016d6       0x2e c:/program files (x86)/gnu tools arm embedded/4.8 2013q4/bin/../lib/gcc/arm-none-eabi/4.8.3/../../../../arm-none-eabi/lib/armv7e-m\libc.a(lib_a-ctype_.o)
 .ARM.attributes
                0x00001704       0x2e c:/program files (x86)/gnu tools arm embedded/4.8 2013q4/bin/../lib/gcc/arm-none-eabi/4.8.3/../../../../arm-none-eabi/lib/armv7e-m\libc.a(lib_a-cxa_atexit.o)
 .ARM.attributes
                0x00001732       0x2e c:/program files (x86)/gnu tools arm embedded/4.8 2013q4/bin/../lib/gcc/arm-none-eabi/4.8.3/../../../../arm-none-eabi/lib/armv7e-m\libc.a(lib_a-errno.o)
 .ARM.attributes
                0x00001760       0x2e c:/program files (x86)/gnu tools arm embedded/4.8 2013q4/bin/../lib/gcc/arm-none-eabi/4.8.3/../../../../arm-none-eabi/lib/armv7e-m\libc.a(lib_a-exit.o)
 .ARM.attributes
                0x0000178e       0x2e c:/program files (x86)/gnu tools arm embedded/4.8 2013q4/bin/../lib/gcc/arm-none-eabi/4.8.3/../../../../arm-none-eabi/lib/armv7e-m\libc.a(lib_a-fiprintf.o)
 .ARM.attributes
                0x000017bc       0x2e c:/program files (x86)/gnu tools arm embedded/4.8 2013q4/bin/../lib/gcc/arm-none-eabi/4.8.3/../../../../arm-none-eabi/lib/armv7e-m\libc.a(lib_a-fputc.o)
 .ARM.attributes
                0x000017ea       0x2e c:/program files (x86)/gnu tools arm embedded/4.8 2013q4/bin/../lib/gcc/arm-none-eabi/4.8.3/../../../../arm-none-eabi/lib/armv7e-m\libc.a(lib_a-fputs.o)
 .ARM.attributes
                0x00001818       0x2e c:/program files (x86)/gnu tools arm embedded/4.8 2013q4/bin/../lib/gcc/arm-none-eabi/4.8.3/../../../../arm-none-eabi/lib/armv7e-m\libc.a(lib_a-fvwrite.o)
 .ARM.attributes
                0x00001846       0x2e c:/program files (x86)/gnu tools arm embedded/4.8 2013q4/bin/../lib/gcc/arm-none-eabi/4.8.3/../../../../arm-none-eabi/lib/armv7e-m\libc.a(lib_a-fwrite.o)
 .ARM.attributes
                0x00001874       0x2e c:/program files (x86)/gnu tools arm embedded/4.8 2013q4/bin/../lib/gcc/arm-none-eabi/4.8.3/../../../../arm-none-eabi/lib/armv7e-m\libc.a(lib_a-impure.o)
 .ARM.attributes
                0x000018a2       0x2e c:/program files (x86)/gnu tools arm embedded/4.8 2013q4/bin/../lib/gcc/arm-none-eabi/4.8.3/../../../../arm-none-eabi/lib/armv7e-m\libc.a(lib_a-init.o)
 .ARM.attributes
                0x000018d0       0x2e c:/program files (x86)/gnu tools arm embedded/4.8 2013q4/bin/../lib/gcc/arm-none-eabi/4.8.3/../../../../arm-none-eabi/lib/armv7e-m\libc.a(lib_a-mallocr.o)
 .ARM.attributes
                0x000018fe       0x2e c:/program files (x86)/gnu tools arm embedded/4.8 2013q4/bin/../lib/gcc/arm-none-eabi/4.8.3/../../../../arm-none-eabi/lib/armv7e-m\libc.a(lib_a-memchr-stub.o)
 .ARM.attributes
                0x0000192c       0x2e c:/program files (x86)/gnu tools arm embedded/4.8 2013q4/bin/../lib/gcc/arm-none-eabi/4.8.3/../../../../arm-none-eabi/lib/armv7e-m\libc.a(lib_a-memcmp.o)
 .ARM.attributes
                0x0000195a       0x1c c:/program files (x86)/gnu tools arm embedded/4.8 2013q4/bin/../lib/gcc/arm-none-eabi/4.8.3/../../../../arm-none-eabi/lib/armv7e-m\libc.a(lib_a-memcpy.o)
 .ARM.attributes
                0x00001976       0x2e c:/program files (x86)/gnu tools arm embedded/4.8 2013q4/bin/../lib/gcc/arm-none-eabi/4.8.3/../../../../arm-none-eabi/lib/armv7e-m\libc.a(lib_a-memmove.o)
 .ARM.attributes
                0x000019a4       0x2e c:/program files (x86)/gnu tools arm embedded/4.8 2013q4/bin/../lib/gcc/arm-none-eabi/4.8.3/../../../../arm-none-eabi/lib/armv7e-m\libc.a(lib_a-memset.o)
 .ARM.attributes
                0x000019d2       0x2e c:/program files (x86)/gnu tools arm embedded/4.8 2013q4/bin/../lib/gcc/arm-none-eabi/4.8.3/../../../../arm-none-eabi/lib/armv7e-m\libc.a(lib_a-mlock.o)
 .ARM.attributes
                0x00001a00       0x2e c:/program files (x86)/gnu tools arm embedded/4.8 2013q4/bin/../lib/gcc/arm-none-eabi/4.8.3/../../../../arm-none-eabi/lib/armv7e-m\libc.a(lib_a-printf.o)
 .ARM.attributes
                0x00001a2e       0x2e c:/program files (x86)/gnu tools arm embedded/4.8 2013q4/bin/../lib/gcc/arm-none-eabi/4.8.3/../../../../arm-none-eabi/lib/armv7e-m\libc.a(lib_a-putc.o)
 .ARM.attributes
                0x00001a5c       0x2e c:/program files (x86)/gnu tools arm embedded/4.8 2013q4/bin/../lib/gcc/arm-none-eabi/4.8.3/../../../../arm-none-eabi/lib/armv7e-m\libc.a(lib_a-puts.o)
 .ARM.attributes
                0x00001a8a       0x2e c:/program files (x86)/gnu tools arm embedded/4.8 2013q4/bin/../lib/gcc/arm-none-eabi/4.8.3/../../../../arm-none-eabi/lib/armv7e-m\libc.a(lib_a-realloc.o)
 .ARM.attributes
                0x00001ab8       0x2e c:/program files (x86)/gnu tools arm embedded/4.8 2013q4/bin/../lib/gcc/arm-none-eabi/4.8.3/../../../../arm-none-eabi/lib/armv7e-m\libc.a(lib_a-reallocr.o)
 .ARM.attributes
                0x00001ae6       0x2e c:/program files (x86)/gnu tools arm embedded/4.8 2013q4/bin/../lib/gcc/arm-none-eabi/4.8.3/../../../../arm-none-eabi/lib/armv7e-m\libc.a(lib_a-reent.o)
 .ARM.attributes
                0x00001b14       0x2e c:/program files (x86)/gnu tools arm embedded/4.8 2013q4/bin/../lib/gcc/arm-none-eabi/4.8.3/../../../../arm-none-eabi/lib/armv7e-m\libc.a(lib_a-sbrkr.o)
 .ARM.attributes
                0x00001b42       0x2e c:/program files (x86)/gnu tools arm embedded/4.8 2013q4/bin/../lib/gcc/arm-none-eabi/4.8.3/../../../../arm-none-eabi/lib/armv7e-m\libc.a(lib_a-signal.o)
 .ARM.attributes
                0x00001b70       0x2e c:/program files (x86)/gnu tools arm embedded/4.8 2013q4/bin/../lib/gcc/arm-none-eabi/4.8.3/../../../../arm-none-eabi/lib/armv7e-m\libc.a(lib_a-signalr.o)
 .ARM.attributes
                0x00001b9e       0x2e c:/program files (x86)/gnu tools arm embedded/4.8 2013q4/bin/../lib/gcc/arm-none-eabi/4.8.3/../../../../arm-none-eabi/lib/armv7e-m\libc.a(lib_a-sprintf.o)
 .ARM.attributes
                0x00001bcc       0x1c c:/program files (x86)/gnu tools arm embedded/4.8 2013q4/bin/../lib/gcc/arm-none-eabi/4.8.3/../../../../arm-none-eabi/lib/armv7e-m\libc.a(lib_a-strcmp.o)
 .ARM.attributes
                0x00001be8       0x2e c:/program files (x86)/gnu tools arm embedded/4.8 2013q4/bin/../lib/gcc/arm-none-eabi/4.8.3/../../../../arm-none-eabi/lib/armv7e-m\libc.a(lib_a-strerror.o)
 .ARM.attributes
                0x00001c16       0x2e c:/program files (x86)/gnu tools arm embedded/4.8 2013q4/bin/../lib/gcc/arm-none-eabi/4.8.3/../../../../arm-none-eabi/lib/armv7e-m\libc.a(lib_a-strlen.o)
 .ARM.attributes
                0x00001c44       0x2e c:/program files (x86)/gnu tools arm embedded/4.8 2013q4/bin/../lib/gcc/arm-none-eabi/4.8.3/../../../../arm-none-eabi/lib/armv7e-m\libc.a(lib_a-strncmp.o)
 .ARM.attributes
                0x00001c72       0x2e c:/program files (x86)/gnu tools arm embedded/4.8 2013q4/bin/../lib/gcc/arm-none-eabi/4.8.3/../../../../arm-none-eabi/lib/armv7e-m\libc.a(lib_a-svfprintf.o)
 .ARM.attributes
                0x00001ca0       0x2e c:/program files (x86)/gnu tools arm embedded/4.8 2013q4/bin/../lib/gcc/arm-none-eabi/4.8.3/../../../../arm-none-eabi/lib/armv7e-m\libc.a(lib_a-syswrite.o)
 .ARM.attributes
                0x00001cce       0x2e c:/program files (x86)/gnu tools arm embedded/4.8 2013q4/bin/../lib/gcc/arm-none-eabi/4.8.3/../../../../arm-none-eabi/lib/armv7e-m\libc.a(lib_a-u_strerr.o)
 .ARM.attributes
                0x00001cfc       0x2e c:/program files (x86)/gnu tools arm embedded/4.8 2013q4/bin/../lib/gcc/arm-none-eabi/4.8.3/../../../../arm-none-eabi/lib/armv7e-m\libc.a(lib_a-vfiprintf.o)
 .ARM.attributes
                0x00001d2a       0x2e c:/program files (x86)/gnu tools arm embedded/4.8 2013q4/bin/../lib/gcc/arm-none-eabi/4.8.3/../../../../arm-none-eabi/lib/armv7e-m\libc.a(lib_a-vfprintf.o)
 .ARM.attributes
                0x00001d58       0x2e c:/program files (x86)/gnu tools arm embedded/4.8 2013q4/bin/../lib/gcc/arm-none-eabi/4.8.3/../../../../arm-none-eabi/lib/armv7e-m\libc.a(lib_a-wbuf.o)
 .ARM.attributes
                0x00001d86       0x2e c:/program files (x86)/gnu tools arm embedded/4.8 2013q4/bin/../lib/gcc/arm-none-eabi/4.8.3/../../../../arm-none-eabi/lib/armv7e-m\libc.a(lib_a-writer.o)
 .ARM.attributes
                0x00001db4       0x2e c:/program files (x86)/gnu tools arm embedded/4.8 2013q4/bin/../lib/gcc/arm-none-eabi/4.8.3/../../../../arm-none-eabi/lib/armv7e-m\libc.a(lib_a-wsetup.o)
 .ARM.attributes
                0x00001de2       0x2e c:/program files (x86)/gnu tools arm embedded/4.8 2013q4/bin/../lib/gcc/arm-none-eabi/4.8.3/../../../../arm-none-eabi/lib/armv7e-m\libc.a(lib_a-__atexit.o)
 .ARM.attributes
                0x00001e10       0x2e c:/program files (x86)/gnu tools arm embedded/4.8 2013q4/bin/../lib/gcc/arm-none-eabi/4.8.3/../../../../arm-none-eabi/lib/armv7e-m\libc.a(lib_a-__call_atexit.o)
 .ARM.attributes
                0x00001e3e       0x2e c:/program files (x86)/gnu tools arm embedded/4.8 2013q4/bin/../lib/gcc/arm-none-eabi/4.8.3/../../../../arm-none-eabi/lib/armv7e-m\libc.a(lib_a-atexit.o)
 .ARM.attributes
                0x00001e6c       0x2e c:/program files (x86)/gnu tools arm embedded/4.8 2013q4/bin/../lib/gcc/arm-none-eabi/4.8.3/../../../../arm-none-eabi/lib/armv7e-m\libc.a(lib_a-dtoa.o)
 .ARM.attributes
                0x00001e9a       0x2e c:/program files (x86)/gnu tools arm embedded/4.8 2013q4/bin/../lib/gcc/arm-none-eabi/4.8.3/../../../../arm-none-eabi/lib/armv7e-m\libc.a(lib_a-fflush.o)
 .ARM.attributes
                0x00001ec8       0x2e c:/program files (x86)/gnu tools arm embedded/4.8 2013q4/bin/../lib/gcc/arm-none-eabi/4.8.3/../../../../arm-none-eabi/lib/armv7e-m\libc.a(lib_a-findfp.o)
 .ARM.attributes
                0x00001ef6       0x2e c:/program files (x86)/gnu tools arm embedded/4.8 2013q4/bin/../lib/gcc/arm-none-eabi/4.8.3/../../../../arm-none-eabi/lib/armv7e-m\libc.a(lib_a-fini.o)
 .ARM.attributes
                0x00001f24       0x2e c:/program files (x86)/gnu tools arm embedded/4.8 2013q4/bin/../lib/gcc/arm-none-eabi/4.8.3/../../../../arm-none-eabi/lib/armv7e-m\libc.a(lib_a-fputwc.o)
 .ARM.attributes
                0x00001f52       0x2e c:/program files (x86)/gnu tools arm embedded/4.8 2013q4/bin/../lib/gcc/arm-none-eabi/4.8.3/../../../../arm-none-eabi/lib/armv7e-m\libc.a(lib_a-freer.o)
 .ARM.attributes
                0x00001f80       0x2e c:/program files (x86)/gnu tools arm embedded/4.8 2013q4/bin/../lib/gcc/arm-none-eabi/4.8.3/../../../../arm-none-eabi/lib/armv7e-m\libc.a(lib_a-fwalk.o)
 .ARM.attributes
                0x00001fae       0x2e c:/program files (x86)/gnu tools arm embedded/4.8 2013q4/bin/../lib/gcc/arm-none-eabi/4.8.3/../../../../arm-none-eabi/lib/armv7e-m\libc.a(lib_a-locale.o)
 .ARM.attributes
                0x00001fdc       0x2e c:/program files (x86)/gnu tools arm embedded/4.8 2013q4/bin/../lib/gcc/arm-none-eabi/4.8.3/../../../../arm-none-eabi/lib/armv7e-m\libc.a(lib_a-makebuf.o)
 .ARM.attributes
                0x0000200a       0x2e c:/program files (x86)/gnu tools arm embedded/4.8 2013q4/bin/../lib/gcc/arm-none-eabi/4.8.3/../../../../arm-none-eabi/lib/armv7e-m\libc.a(lib_a-mprec.o)
 .ARM.attributes
                0x00002038       0x2e c:/program files (x86)/gnu tools arm embedded/4.8 2013q4/bin/../lib/gcc/arm-none-eabi/4.8.3/../../../../arm-none-eabi/lib/armv7e-m\libc.a(lib_a-stdio.o)
 .ARM.attributes
                0x00002066       0x2e c:/program files (x86)/gnu tools arm embedded/4.8 2013q4/bin/../lib/gcc/arm-none-eabi/4.8.3/../../../../arm-none-eabi/lib/armv7e-m\libc.a(lib_a-svfiprintf.o)
 .ARM.attributes
                0x00002094       0x2e c:/program files (x86)/gnu tools arm embedded/4.8 2013q4/bin/../lib/gcc/arm-none-eabi/4.8.3/../../../../arm-none-eabi/lib/armv7e-m\libc.a(lib_a-wcrtomb.o)
 .ARM.attributes
                0x000020c2       0x2e c:/program files (x86)/gnu tools arm embedded/4.8 2013q4/bin/../lib/gcc/arm-none-eabi/4.8.3/../../../../arm-none-eabi/lib/armv7e-m\libc.a(lib_a-wctomb_r.o)
 .ARM.attributes
                0x000020f0       0x2e c:/program files (x86)/gnu tools arm embedded/4.8 2013q4/bin/../lib/gcc/arm-none-eabi/4.8.3/../../../../arm-none-eabi/lib/armv7e-m\libc.a(lib_a-callocr.o)
 .ARM.attributes
                0x0000211e       0x2e c:/program files (x86)/gnu tools arm embedded/4.8 2013q4/bin/../lib/gcc/arm-none-eabi/4.8.3/../../../../arm-none-eabi/lib/armv7e-m\libc.a(lib_a-closer.o)
 .ARM.attributes
                0x0000214c       0x2e c:/program files (x86)/gnu tools arm embedded/4.8 2013q4/bin/../lib/gcc/arm-none-eabi/4.8.3/../../../../arm-none-eabi/lib/armv7e-m\libc.a(lib_a-fclose.o)
 .ARM.attributes
                0x0000217a       0x2e c:/program files (x86)/gnu tools arm embedded/4.8 2013q4/bin/../lib/gcc/arm-none-eabi/4.8.3/../../../../arm-none-eabi/lib/armv7e-m\libc.a(lib_a-fstatr.o)
 .ARM.attributes
                0x000021a8       0x2e c:/program files (x86)/gnu tools arm embedded/4.8 2013q4/bin/../lib/gcc/arm-none-eabi/4.8.3/../../../../arm-none-eabi/lib/armv7e-m\libc.a(lib_a-isattyr.o)
 .ARM.attributes
                0x000021d6       0x2e c:/program files (x86)/gnu tools arm embedded/4.8 2013q4/bin/../lib/gcc/arm-none-eabi/4.8.3/../../../../arm-none-eabi/lib/armv7e-m\libc.a(lib_a-lseekr.o)
 .ARM.attributes
                0x00002204       0x2e c:/program files (x86)/gnu tools arm embedded/4.8 2013q4/bin/../lib/gcc/arm-none-eabi/4.8.3/../../../../arm-none-eabi/lib/armv7e-m\libc.a(lib_a-readr.o)
 .ARM.attributes
                0x00002232       0x1e c:/program files (x86)/gnu tools arm embedded/4.8 2013q4/bin/../lib/gcc/arm-none-eabi/4.8.3/armv7e-m\libgcc.a(_aeabi_uldivmod.o)
 .ARM.attributes
                0x00002250       0x2e c:/program files (x86)/gnu tools arm embedded/4.8 2013q4/bin/../lib/gcc/arm-none-eabi/4.8.3/armv7e-m\libgcc.a(bpabi.o)
 .ARM.attributes
                0x0000227e       0x1e c:/program files (x86)/gnu tools arm embedded/4.8 2013q4/bin/../lib/gcc/arm-none-eabi/4.8.3/armv7e-m\libgcc.a(_dvmd_tls.o)
 .ARM.attributes
                0x0000229c       0x2e c:/program files (x86)/gnu tools arm embedded/4.8 2013q4/bin/../lib/gcc/arm-none-eabi/4.8.3/armv7e-m\libgcc.a(_divdi3.o)
 .ARM.attributes
                0x000022ca       0x2e c:/program files (x86)/gnu tools arm embedded/4.8 2013q4/bin/../lib/gcc/arm-none-eabi/4.8.3/armv7e-m\libgcc.a(_udivdi3.o)
 .ARM.attributes
                0x000022f8       0x2e c:/program files (x86)/gnu tools arm embedded/4.8 2013q4/bin/../lib/gcc/arm-none-eabi/4.8.3/armv7e-m/crtend.o
 .ARM.attributes
                0x00002326       0x1e c:/program files (x86)/gnu tools arm embedded/4.8 2013q4/bin/../lib/gcc/arm-none-eabi/4.8.3/armv7e-m/crtn.o
OUTPUT(../build/obj/grizzlycpp.elf elf32-littlearm)

.debug_info     0x00000000    0x438fb
 .debug_info    0x00000000      0x672 ../build/obj/system_stm32f4xx.o
 .debug_info    0x00000672     0x1805 ../build/obj/bget.o
 .debug_info    0x00001e77       0x72 ../build/obj/api_lib.o
 .debug_info    0x00001ee9       0x72 ../build/obj/api_msg.o
 .debug_info    0x00001f5b       0x72 ../build/obj/err.o
 .debug_info    0x00001fcd       0x72 ../build/obj/netbuf.o
 .debug_info    0x0000203f       0x72 ../build/obj/netdb.o
 .debug_info    0x000020b1       0x72 ../build/obj/netifapi.o
 .debug_info    0x00002123       0x72 ../build/obj/sockets.o
 .debug_info    0x00002195       0x72 ../build/obj/tcpip.o
 .debug_info    0x00002207      0x15a ../build/obj/def.o
 .debug_info    0x00002361     0x21d6 ../build/obj/dhcp.o
 .debug_info    0x00004537       0x72 ../build/obj/dns.o
 .debug_info    0x000045a9       0xf7 ../build/obj/init.o
 .debug_info    0x000046a0      0x5ba ../build/obj/mem.o
 .debug_info    0x00004c5a      0x402 ../build/obj/memp.o
 .debug_info    0x0000505c      0xbf1 ../build/obj/netif.o
 .debug_info    0x00005c4d      0xc3e ../build/obj/pbuf.o
 .debug_info    0x0000688b      0xa09 ../build/obj/raw.o
 .debug_info    0x00007294      0x27f ../build/obj/stats.o
 .debug_info    0x00007513       0x72 ../build/obj/sys.o
 .debug_info    0x00007585       0x72 ../build/obj/tcp.o
 .debug_info    0x000075f7       0x72 ../build/obj/tcp_in.o
 .debug_info    0x00007669       0x72 ../build/obj/tcp_out.o
 .debug_info    0x000076db       0x90 ../build/obj/timers.o
 .debug_info    0x0000776b     0x1200 ../build/obj/udp.o
 .debug_info    0x0000896b       0x72 ../build/obj/autoip.o
 .debug_info    0x000089dd      0xbf0 ../build/obj/icmp.o
 .debug_info    0x000095cd       0x72 ../build/obj/igmp.o
 .debug_info    0x0000963f       0x72 ../build/obj/inet.o
 .debug_info    0x000096b1      0x47e ../build/obj/inet_chksum.o
 .debug_info    0x00009b2f      0xf39 ../build/obj/ip.o
 .debug_info    0x0000aa68      0x64a ../build/obj/ip_addr.o
 .debug_info    0x0000b0b2     0x1237 ../build/obj/ip_frag.o
 .debug_info    0x0000c2e9     0x1674 ../build/obj/etharp.o
 .debug_info    0x0000d95d       0x72 ../build/obj/slipif.o
 .debug_info    0x0000d9cf      0xeb5 ../build/obj/ethernetif.o
 .debug_info    0x0000e884     0x21bf ../build/obj/stm32f4x7_eth_bsp.o
 .debug_info    0x00010a43     0x2c23 ../build/obj/stm32f4x7_eth.o
 .debug_info    0x00013666      0x6ac ../build/obj/misc.o
 .debug_info    0x00013d12      0xcc5 ../build/obj/stm32f4xx_dma.o
 .debug_info    0x000149d7      0x49e ../build/obj/stm32f4xx_exti.o
 .debug_info    0x00014e75      0xa83 ../build/obj/stm32f4xx_gpio.o
 .debug_info    0x000158f8     0x14c8 ../build/obj/stm32f4xx_rcc.o
 .debug_info    0x00016dc0      0x36f ../build/obj/stm32f4xx_syscfg.o
 .debug_info    0x0001712f     0x3994 ../build/obj/stm32f4xx_tim.o
 .debug_info    0x0001aac3      0x92b ../build/obj/netconf.o
 .debug_info    0x0001b3ee       0x82 ../build/obj/startup_stm32f4xx.o
 .debug_info    0x0001b470     0x3b98 ../build/obj/oscreceivedelements.o
 .debug_info    0x0001f008      0x254 ../build/obj/osctypes.o
 .debug_info    0x0001f25c       0xb8 ../build/obj/buffs_iram1.o
 .debug_info    0x0001f314      0x12d ../build/obj/buffs_iram2.o
 .debug_info    0x0001f441      0x8a5 ../build/obj/sys_conf.o
 .debug_info    0x0001fce6      0x6eb ../build/obj/stm32f4xx_it.o
 .debug_info    0x000203d1     0x415d ../build/obj/grizzlysys.o
 .debug_info    0x0002452e     0x26e5 ../build/obj/grizzlyapp.o
 .debug_info    0x00026c13    0x1a4e4 ../build/obj/udp_color_server.o
 .debug_info    0x000410f7     0x2804 ../build/obj/main.o

.debug_abbrev   0x00000000     0x72ce
 .debug_abbrev  0x00000000      0x15f ../build/obj/system_stm32f4xx.o
 .debug_abbrev  0x0000015f      0x3b2 ../build/obj/bget.o
 .debug_abbrev  0x00000511       0x26 ../build/obj/api_lib.o
 .debug_abbrev  0x00000537       0x26 ../build/obj/api_msg.o
 .debug_abbrev  0x0000055d       0x26 ../build/obj/err.o
 .debug_abbrev  0x00000583       0x26 ../build/obj/netbuf.o
 .debug_abbrev  0x000005a9       0x26 ../build/obj/netdb.o
 .debug_abbrev  0x000005cf       0x26 ../build/obj/netifapi.o
 .debug_abbrev  0x000005f5       0x26 ../build/obj/sockets.o
 .debug_abbrev  0x0000061b       0x26 ../build/obj/tcpip.o
 .debug_abbrev  0x00000641       0xd3 ../build/obj/def.o
 .debug_abbrev  0x00000714      0x421 ../build/obj/dhcp.o
 .debug_abbrev  0x00000b35       0x26 ../build/obj/dns.o
 .debug_abbrev  0x00000b5b       0x7f ../build/obj/init.o
 .debug_abbrev  0x00000bda      0x1f7 ../build/obj/mem.o
 .debug_abbrev  0x00000dd1      0x167 ../build/obj/memp.o
 .debug_abbrev  0x00000f38      0x314 ../build/obj/netif.o
 .debug_abbrev  0x0000124c      0x293 ../build/obj/pbuf.o
 .debug_abbrev  0x000014df      0x291 ../build/obj/raw.o
 .debug_abbrev  0x00001770       0xb5 ../build/obj/stats.o
 .debug_abbrev  0x00001825       0x26 ../build/obj/sys.o
 .debug_abbrev  0x0000184b       0x26 ../build/obj/tcp.o
 .debug_abbrev  0x00001871       0x26 ../build/obj/tcp_in.o
 .debug_abbrev  0x00001897       0x26 ../build/obj/tcp_out.o
 .debug_abbrev  0x000018bd       0x42 ../build/obj/timers.o
 .debug_abbrev  0x000018ff      0x2fc ../build/obj/udp.o
 .debug_abbrev  0x00001bfb       0x26 ../build/obj/autoip.o
 .debug_abbrev  0x00001c21      0x26b ../build/obj/icmp.o
 .debug_abbrev  0x00001e8c       0x26 ../build/obj/igmp.o
 .debug_abbrev  0x00001eb2       0x26 ../build/obj/inet.o
 .debug_abbrev  0x00001ed8      0x17a ../build/obj/inet_chksum.o
 .debug_abbrev  0x00002052      0x22c ../build/obj/ip.o
 .debug_abbrev  0x0000227e      0x238 ../build/obj/ip_addr.o
 .debug_abbrev  0x000024b6      0x34f ../build/obj/ip_frag.o
 .debug_abbrev  0x00002805      0x382 ../build/obj/etharp.o
 .debug_abbrev  0x00002b87       0x26 ../build/obj/slipif.o
 .debug_abbrev  0x00002bad      0x335 ../build/obj/ethernetif.o
 .debug_abbrev  0x00002ee2      0x396 ../build/obj/stm32f4x7_eth_bsp.o
 .debug_abbrev  0x00003278      0x374 ../build/obj/stm32f4x7_eth.o
 .debug_abbrev  0x000035ec      0x167 ../build/obj/misc.o
 .debug_abbrev  0x00003753      0x1cd ../build/obj/stm32f4xx_dma.o
 .debug_abbrev  0x00003920      0x20e ../build/obj/stm32f4xx_exti.o
 .debug_abbrev  0x00003b2e      0x221 ../build/obj/stm32f4xx_gpio.o
 .debug_abbrev  0x00003d4f      0x225 ../build/obj/stm32f4xx_rcc.o
 .debug_abbrev  0x00003f74      0x183 ../build/obj/stm32f4xx_syscfg.o
 .debug_abbrev  0x000040f7      0x285 ../build/obj/stm32f4xx_tim.o
 .debug_abbrev  0x0000437c      0x1f1 ../build/obj/netconf.o
 .debug_abbrev  0x0000456d       0x12 ../build/obj/startup_stm32f4xx.o
 .debug_abbrev  0x0000457f      0x63a ../build/obj/oscreceivedelements.o
 .debug_abbrev  0x00004bb9      0x147 ../build/obj/osctypes.o
 .debug_abbrev  0x00004d00       0x5c ../build/obj/buffs_iram1.o
 .debug_abbrev  0x00004d5c       0x8f ../build/obj/buffs_iram2.o
 .debug_abbrev  0x00004deb      0x269 ../build/obj/sys_conf.o
 .debug_abbrev  0x00005054      0x1d3 ../build/obj/stm32f4xx_it.o
 .debug_abbrev  0x00005227      0x6fe ../build/obj/grizzlysys.o
 .debug_abbrev  0x00005925      0x5cf ../build/obj/grizzlyapp.o
 .debug_abbrev  0x00005ef4      0xdc7 ../build/obj/udp_color_server.o
 .debug_abbrev  0x00006cbb      0x613 ../build/obj/main.o

.debug_loc      0x00000000    0x1497b
 .debug_loc     0x00000000       0xd7 ../build/obj/system_stm32f4xx.o
 .debug_loc     0x000000d7      0xda1 ../build/obj/bget.o
 .debug_loc     0x00000e78       0x84 ../build/obj/def.o
 .debug_loc     0x00000efc     0x13ae ../build/obj/dhcp.o
 .debug_loc     0x000022aa       0x20 ../build/obj/init.o
 .debug_loc     0x000022ca      0x3ab ../build/obj/mem.o
 .debug_loc     0x00002675      0x13c ../build/obj/memp.o
 .debug_loc     0x000027b1      0x3ec ../build/obj/netif.o
 .debug_loc     0x00002b9d     0x110e ../build/obj/pbuf.o
 .debug_loc     0x00003cab      0x469 ../build/obj/raw.o
 .debug_loc     0x00004114      0x89f ../build/obj/udp.o
 .debug_loc     0x000049b3      0x313 ../build/obj/icmp.o
 .debug_loc     0x00004cc6      0x6f1 ../build/obj/inet_chksum.o
 .debug_loc     0x000053b7      0x4ff ../build/obj/ip.o
 .debug_loc     0x000058b6      0x5f4 ../build/obj/ip_addr.o
 .debug_loc     0x00005eaa      0xba5 ../build/obj/ip_frag.o
 .debug_loc     0x00006a4f      0xd7d ../build/obj/etharp.o
 .debug_loc     0x000077cc      0x486 ../build/obj/ethernetif.o
 .debug_loc     0x00007c52      0x1e4 ../build/obj/stm32f4x7_eth_bsp.o
 .debug_loc     0x00007e36     0x2107 ../build/obj/stm32f4x7_eth.o
 .debug_loc     0x00009f3d      0x283 ../build/obj/misc.o
 .debug_loc     0x0000a1c0      0xabd ../build/obj/stm32f4xx_dma.o
 .debug_loc     0x0000ac7d      0x2d3 ../build/obj/stm32f4xx_exti.o
 .debug_loc     0x0000af50      0x75e ../build/obj/stm32f4xx_gpio.o
 .debug_loc     0x0000b6ae     0x1475 ../build/obj/stm32f4xx_rcc.o
 .debug_loc     0x0000cb23      0x1c5 ../build/obj/stm32f4xx_syscfg.o
 .debug_loc     0x0000cce8     0x3607 ../build/obj/stm32f4xx_tim.o
 .debug_loc     0x000102ef       0x76 ../build/obj/netconf.o
 .debug_loc     0x00010365     0x1ca8 ../build/obj/oscreceivedelements.o
 .debug_loc     0x0001200d      0x2c0 ../build/obj/sys_conf.o
 .debug_loc     0x000122cd       0x80 ../build/obj/stm32f4xx_it.o
 .debug_loc     0x0001234d      0x2df ../build/obj/grizzlysys.o
 .debug_loc     0x0001262c       0x4c ../build/obj/grizzlyapp.o
 .debug_loc     0x00012678     0x22e3 ../build/obj/udp_color_server.o
 .debug_loc     0x0001495b       0x20 ../build/obj/main.o

.debug_aranges  0x00000000      0x7d8
 .debug_aranges
                0x00000000       0x20 ../build/obj/system_stm32f4xx.o
 .debug_aranges
                0x00000020       0x20 ../build/obj/bget.o
 .debug_aranges
                0x00000040       0x18 ../build/obj/api_lib.o
 .debug_aranges
                0x00000058       0x18 ../build/obj/api_msg.o
 .debug_aranges
                0x00000070       0x18 ../build/obj/err.o
 .debug_aranges
                0x00000088       0x18 ../build/obj/netbuf.o
 .debug_aranges
                0x000000a0       0x18 ../build/obj/netdb.o
 .debug_aranges
                0x000000b8       0x18 ../build/obj/netifapi.o
 .debug_aranges
                0x000000d0       0x18 ../build/obj/sockets.o
 .debug_aranges
                0x000000e8       0x18 ../build/obj/tcpip.o
 .debug_aranges
                0x00000100       0x20 ../build/obj/def.o
 .debug_aranges
                0x00000120       0x20 ../build/obj/dhcp.o
 .debug_aranges
                0x00000140       0x18 ../build/obj/dns.o
 .debug_aranges
                0x00000158       0x20 ../build/obj/init.o
 .debug_aranges
                0x00000178       0x20 ../build/obj/mem.o
 .debug_aranges
                0x00000198       0x20 ../build/obj/memp.o
 .debug_aranges
                0x000001b8       0x20 ../build/obj/netif.o
 .debug_aranges
                0x000001d8       0x20 ../build/obj/pbuf.o
 .debug_aranges
                0x000001f8       0x20 ../build/obj/raw.o
 .debug_aranges
                0x00000218       0x20 ../build/obj/stats.o
 .debug_aranges
                0x00000238       0x18 ../build/obj/sys.o
 .debug_aranges
                0x00000250       0x18 ../build/obj/tcp.o
 .debug_aranges
                0x00000268       0x18 ../build/obj/tcp_in.o
 .debug_aranges
                0x00000280       0x18 ../build/obj/tcp_out.o
 .debug_aranges
                0x00000298       0x20 ../build/obj/timers.o
 .debug_aranges
                0x000002b8       0x20 ../build/obj/udp.o
 .debug_aranges
                0x000002d8       0x18 ../build/obj/autoip.o
 .debug_aranges
                0x000002f0       0x20 ../build/obj/icmp.o
 .debug_aranges
                0x00000310       0x18 ../build/obj/igmp.o
 .debug_aranges
                0x00000328       0x18 ../build/obj/inet.o
 .debug_aranges
                0x00000340       0x20 ../build/obj/inet_chksum.o
 .debug_aranges
                0x00000360       0x20 ../build/obj/ip.o
 .debug_aranges
                0x00000380       0x20 ../build/obj/ip_addr.o
 .debug_aranges
                0x000003a0       0x20 ../build/obj/ip_frag.o
 .debug_aranges
                0x000003c0       0x20 ../build/obj/etharp.o
 .debug_aranges
                0x000003e0       0x18 ../build/obj/slipif.o
 .debug_aranges
                0x000003f8       0x20 ../build/obj/ethernetif.o
 .debug_aranges
                0x00000418       0x20 ../build/obj/stm32f4x7_eth_bsp.o
 .debug_aranges
                0x00000438       0x20 ../build/obj/stm32f4x7_eth.o
 .debug_aranges
                0x00000458       0x20 ../build/obj/misc.o
 .debug_aranges
                0x00000478       0x20 ../build/obj/stm32f4xx_dma.o
 .debug_aranges
                0x00000498       0x20 ../build/obj/stm32f4xx_exti.o
 .debug_aranges
                0x000004b8       0x20 ../build/obj/stm32f4xx_gpio.o
 .debug_aranges
                0x000004d8       0x20 ../build/obj/stm32f4xx_rcc.o
 .debug_aranges
                0x000004f8       0x20 ../build/obj/stm32f4xx_syscfg.o
 .debug_aranges
                0x00000518       0x20 ../build/obj/stm32f4xx_tim.o
 .debug_aranges
                0x00000538       0x20 ../build/obj/netconf.o
 .debug_aranges
                0x00000558       0x28 ../build/obj/startup_stm32f4xx.o
 .debug_aranges
                0x00000580       0x78 ../build/obj/oscreceivedelements.o
 .debug_aranges
                0x000005f8       0x20 ../build/obj/osctypes.o
 .debug_aranges
                0x00000618       0x18 ../build/obj/buffs_iram1.o
 .debug_aranges
                0x00000630       0x18 ../build/obj/buffs_iram2.o
 .debug_aranges
                0x00000648       0x20 ../build/obj/sys_conf.o
 .debug_aranges
                0x00000668       0x20 ../build/obj/stm32f4xx_it.o
 .debug_aranges
                0x00000688       0x20 ../build/obj/grizzlysys.o
 .debug_aranges
                0x000006a8       0x20 ../build/obj/grizzlyapp.o
 .debug_aranges
                0x000006c8       0xf0 ../build/obj/udp_color_server.o
 .debug_aranges
                0x000007b8       0x20 ../build/obj/main.o

.debug_ranges   0x00000000      0xb58
 .debug_ranges  0x00000000       0x18 ../build/obj/system_stm32f4xx.o
 .debug_ranges  0x00000018       0x78 ../build/obj/bget.o
 .debug_ranges  0x00000090       0x98 ../build/obj/dhcp.o
 .debug_ranges  0x00000128       0x18 ../build/obj/pbuf.o
 .debug_ranges  0x00000140       0x48 ../build/obj/ip_frag.o
 .debug_ranges  0x00000188       0x80 ../build/obj/etharp.o
 .debug_ranges  0x00000208       0x18 ../build/obj/ethernetif.o
 .debug_ranges  0x00000220       0x88 ../build/obj/stm32f4x7_eth_bsp.o
 .debug_ranges  0x000002a8       0x48 ../build/obj/stm32f4xx_tim.o
 .debug_ranges  0x000002f0       0x20 ../build/obj/startup_stm32f4xx.o
 .debug_ranges  0x00000310      0x110 ../build/obj/oscreceivedelements.o
 .debug_ranges  0x00000420       0x10 ../build/obj/osctypes.o
 .debug_ranges  0x00000430      0x718 ../build/obj/udp_color_server.o
 .debug_ranges  0x00000b48       0x10 ../build/obj/main.o

.debug_line     0x00000000     0x90f5
 .debug_line    0x00000000      0x15d ../build/obj/system_stm32f4xx.o
 .debug_line    0x0000015d      0x57f ../build/obj/bget.o
 .debug_line    0x000006dc       0x1d ../build/obj/api_lib.o
 .debug_line    0x000006f9       0x1d ../build/obj/api_msg.o
 .debug_line    0x00000716       0x1d ../build/obj/err.o
 .debug_line    0x00000733       0x1d ../build/obj/netbuf.o
 .debug_line    0x00000750       0x1d ../build/obj/netdb.o
 .debug_line    0x0000076d       0x1d ../build/obj/netifapi.o
 .debug_line    0x0000078a       0x1d ../build/obj/sockets.o
 .debug_line    0x000007a7       0x1d ../build/obj/tcpip.o
 .debug_line    0x000007c4       0x8e ../build/obj/def.o
 .debug_line    0x00000852      0x552 ../build/obj/dhcp.o
 .debug_line    0x00000da4       0x1d ../build/obj/dns.o
 .debug_line    0x00000dc1       0xb3 ../build/obj/init.o
 .debug_line    0x00000e74      0x1ab ../build/obj/mem.o
 .debug_line    0x0000101f      0x134 ../build/obj/memp.o
 .debug_line    0x00001153      0x232 ../build/obj/netif.o
 .debug_line    0x00001385      0x3ef ../build/obj/pbuf.o
 .debug_line    0x00001774      0x1d3 ../build/obj/raw.o
 .debug_line    0x00001947       0xc4 ../build/obj/stats.o
 .debug_line    0x00001a0b       0x1d ../build/obj/sys.o
 .debug_line    0x00001a28       0x1d ../build/obj/tcp.o
 .debug_line    0x00001a45       0x1d ../build/obj/tcp_in.o
 .debug_line    0x00001a62       0x1d ../build/obj/tcp_out.o
 .debug_line    0x00001a7f       0x55 ../build/obj/timers.o
 .debug_line    0x00001ad4      0x33f ../build/obj/udp.o
 .debug_line    0x00001e13       0x1d ../build/obj/autoip.o
 .debug_line    0x00001e30      0x1c7 ../build/obj/icmp.o
 .debug_line    0x00001ff7       0x1d ../build/obj/igmp.o
 .debug_line    0x00002014       0x1d ../build/obj/inet.o
 .debug_line    0x00002031      0x1a1 ../build/obj/inet_chksum.o
 .debug_line    0x000021d2      0x250 ../build/obj/ip.o
 .debug_line    0x00002422      0x1cb ../build/obj/ip_addr.o
 .debug_line    0x000025ed      0x356 ../build/obj/ip_frag.o
 .debug_line    0x00002943      0x45e ../build/obj/etharp.o
 .debug_line    0x00002da1       0x1d ../build/obj/slipif.o
 .debug_line    0x00002dbe      0x29c ../build/obj/ethernetif.o
 .debug_line    0x0000305a      0x409 ../build/obj/stm32f4x7_eth_bsp.o
 .debug_line    0x00003463      0xa39 ../build/obj/stm32f4x7_eth.o
 .debug_line    0x00003e9c      0x1ef ../build/obj/misc.o
 .debug_line    0x0000408b      0x433 ../build/obj/stm32f4xx_dma.o
 .debug_line    0x000044be      0x23c ../build/obj/stm32f4xx_exti.o
 .debug_line    0x000046fa      0x34c ../build/obj/stm32f4xx_gpio.o
 .debug_line    0x00004a46      0x59e ../build/obj/stm32f4xx_rcc.o
 .debug_line    0x00004fe4      0x1da ../build/obj/stm32f4xx_syscfg.o
 .debug_line    0x000051be      0xdc5 ../build/obj/stm32f4xx_tim.o
 .debug_line    0x00005f83      0x238 ../build/obj/netconf.o
 .debug_line    0x000061bb       0x86 ../build/obj/startup_stm32f4xx.o
 .debug_line    0x00006241      0x8a2 ../build/obj/oscreceivedelements.o
 .debug_line    0x00006ae3       0x64 ../build/obj/osctypes.o
 .debug_line    0x00006b47       0xb4 ../build/obj/buffs_iram1.o
 .debug_line    0x00006bfb       0xb4 ../build/obj/buffs_iram2.o
 .debug_line    0x00006caf      0x1ff ../build/obj/sys_conf.o
 .debug_line    0x00006eae      0x1d4 ../build/obj/stm32f4xx_it.o
 .debug_line    0x00007082      0x75b ../build/obj/grizzlysys.o
 .debug_line    0x000077dd      0x580 ../build/obj/grizzlyapp.o
 .debug_line    0x00007d5d      0xe1a ../build/obj/udp_color_server.o
 .debug_line    0x00008b77      0x57e ../build/obj/main.o

.debug_str      0x00000000    0x2a22b
 .debug_str     0x00000000      0x360 ../build/obj/system_stm32f4xx.o
                                0x3d2 (size before relaxing)
 .debug_str     0x00000360      0x270 ../build/obj/bget.o
                                0x45a (size before relaxing)
 .debug_str     0x000005d0       0x25 ../build/obj/api_lib.o
                                0x176 (size before relaxing)
 .debug_str     0x000005f5       0x25 ../build/obj/api_msg.o
                                0x176 (size before relaxing)
 .debug_str     0x0000061a       0x21 ../build/obj/err.o
                                0x172 (size before relaxing)
 .debug_str     0x0000063b       0x24 ../build/obj/netbuf.o
                                0x175 (size before relaxing)
 .debug_str     0x0000065f       0x23 ../build/obj/netdb.o
                                0x174 (size before relaxing)
 .debug_str     0x00000682       0x26 ../build/obj/netifapi.o
                                0x177 (size before relaxing)
 .debug_str     0x000006a8       0x25 ../build/obj/sockets.o
                                0x176 (size before relaxing)
 .debug_str     0x000006cd       0x23 ../build/obj/tcpip.o
                                0x174 (size before relaxing)
 .debug_str     0x000006f0       0x5a ../build/obj/def.o
                                0x1ab (size before relaxing)
 .debug_str     0x0000074a      0x6f1 ../build/obj/dhcp.o
                                0x945 (size before relaxing)
 .debug_str     0x00000e3b       0x22 ../build/obj/dns.o
                                0x173 (size before relaxing)
 .debug_str     0x00000e5d       0x54 ../build/obj/init.o
                                0x1b0 (size before relaxing)
 .debug_str     0x00000eb1      0x10f ../build/obj/mem.o
                                0x31e (size before relaxing)
 .debug_str     0x00000fc0       0x69 ../build/obj/memp.o
                                0x2e9 (size before relaxing)
 .debug_str     0x00001029       0xf8 ../build/obj/netif.o
                                0x5c3 (size before relaxing)
 .debug_str     0x00001121      0x1ec ../build/obj/pbuf.o
                                0x506 (size before relaxing)
 .debug_str     0x0000130d       0xfb ../build/obj/raw.o
                                0x4da (size before relaxing)
 .debug_str     0x00001408       0x24 ../build/obj/stats.o
                                0x286 (size before relaxing)
 .debug_str     0x0000142c       0x22 ../build/obj/sys.o
                                0x173 (size before relaxing)
 .debug_str     0x0000144e       0x22 ../build/obj/tcp.o
                                0x173 (size before relaxing)
 .debug_str     0x00001470       0x25 ../build/obj/tcp_in.o
                                0x176 (size before relaxing)
 .debug_str     0x00001495       0x26 ../build/obj/tcp_out.o
                                0x177 (size before relaxing)
 .debug_str     0x000014bb       0x36 ../build/obj/timers.o
                                0x187 (size before relaxing)
 .debug_str     0x000014f1      0x12f ../build/obj/udp.o
                                0x7e4 (size before relaxing)
 .debug_str     0x00001620       0x2a ../build/obj/autoip.o
                                0x17b (size before relaxing)
 .debug_str     0x0000164a       0xd1 ../build/obj/icmp.o
                                0x584 (size before relaxing)
 .debug_str     0x0000171b       0x28 ../build/obj/igmp.o
                                0x179 (size before relaxing)
 .debug_str     0x00001743       0x28 ../build/obj/inet.o
                                0x179 (size before relaxing)
 .debug_str     0x0000176b       0x96 ../build/obj/inet_chksum.o
                                0x279 (size before relaxing)
 .debug_str     0x00001801       0x8f ../build/obj/ip.o
                                0x71b (size before relaxing)
 .debug_str     0x00001890       0x8e ../build/obj/ip_addr.o
                                0x32f (size before relaxing)
 .debug_str     0x0000191e      0x25e ../build/obj/ip_frag.o
                                0x7b1 (size before relaxing)
 .debug_str     0x00001b7c      0x2e8 ../build/obj/etharp.o
                                0x90e (size before relaxing)
 .debug_str     0x00001e64       0x26 ../build/obj/slipif.o
                                0x177 (size before relaxing)
 .debug_str     0x00001e8a      0x49b ../build/obj/ethernetif.o
                                0x802 (size before relaxing)
 .debug_str     0x00002325      0xe96 ../build/obj/stm32f4x7_eth_bsp.o
                               0x1684 (size before relaxing)
 .debug_str     0x000031bb      0x955 ../build/obj/stm32f4x7_eth.o
                               0x147d (size before relaxing)
 .debug_str     0x00003b10       0xdf ../build/obj/misc.o
                                0x3ee (size before relaxing)
 .debug_str     0x00003bef      0x34c ../build/obj/stm32f4xx_dma.o
                                0x569 (size before relaxing)
 .debug_str     0x00003f3b       0xe4 ../build/obj/stm32f4xx_exti.o
                                0x394 (size before relaxing)
 .debug_str     0x0000401f      0x154 ../build/obj/stm32f4xx_gpio.o
                                0x4df (size before relaxing)
 .debug_str     0x00004173      0x4bd ../build/obj/stm32f4xx_rcc.o
                                0x88e (size before relaxing)
 .debug_str     0x00004630      0x11b ../build/obj/stm32f4xx_syscfg.o
                                0x32b (size before relaxing)
 .debug_str     0x0000474b      0xb18 ../build/obj/stm32f4xx_tim.o
                                0xe13 (size before relaxing)
 .debug_str     0x00005263       0x76 ../build/obj/netconf.o
                                0x53b (size before relaxing)
 .debug_str     0x000052d9     0x1ac4 ../build/obj/oscreceivedelements.o
                               0x1c7c (size before relaxing)
 .debug_str     0x00006d9d      0x260 ../build/obj/osctypes.o
                                0x308 (size before relaxing)
 .debug_str     0x00006ffd       0x3e ../build/obj/buffs_iram1.o
                                0x1a8 (size before relaxing)
 .debug_str     0x0000703b       0x5e ../build/obj/buffs_iram2.o
                                0x1cd (size before relaxing)
 .debug_str     0x00007099      0x202 ../build/obj/sys_conf.o
                                0x40b (size before relaxing)
 .debug_str     0x0000729b       0xe0 ../build/obj/stm32f4xx_it.o
                                0x435 (size before relaxing)
 .debug_str     0x0000737b     0x1b34 ../build/obj/grizzlysys.o
                               0x2f27 (size before relaxing)
 .debug_str     0x00008eaf       0x16 ../build/obj/grizzlyapp.o
                               0x206e (size before relaxing)
 .debug_str     0x00008ec5    0x21351 ../build/obj/udp_color_server.o
                              0x25652 (size before relaxing)
 .debug_str     0x0002a216       0x15 ../build/obj/main.o
                               0x20b6 (size before relaxing)

.comment        0x00000000       0x70
 .comment       0x00000000       0x70 ../build/obj/system_stm32f4xx.o
                                 0x71 (size before relaxing)
 .comment       0x00000000       0x71 ../build/obj/bget.o
 .comment       0x00000000       0x71 ../build/obj/api_lib.o
 .comment       0x00000000       0x71 ../build/obj/api_msg.o
 .comment       0x00000000       0x71 ../build/obj/err.o
 .comment       0x00000000       0x71 ../build/obj/netbuf.o
 .comment       0x00000000       0x71 ../build/obj/netdb.o
 .comment       0x00000000       0x71 ../build/obj/netifapi.o
 .comment       0x00000000       0x71 ../build/obj/sockets.o
 .comment       0x00000000       0x71 ../build/obj/tcpip.o
 .comment       0x00000000       0x71 ../build/obj/def.o
 .comment       0x00000000       0x71 ../build/obj/dhcp.o
 .comment       0x00000000       0x71 ../build/obj/dns.o
 .comment       0x00000000       0x71 ../build/obj/init.o
 .comment       0x00000000       0x71 ../build/obj/mem.o
 .comment       0x00000000       0x71 ../build/obj/memp.o
 .comment       0x00000000       0x71 ../build/obj/netif.o
 .comment       0x00000000       0x71 ../build/obj/pbuf.o
 .comment       0x00000000       0x71 ../build/obj/raw.o
 .comment       0x00000000       0x71 ../build/obj/stats.o
 .comment       0x00000000       0x71 ../build/obj/sys.o
 .comment       0x00000000       0x71 ../build/obj/tcp.o
 .comment       0x00000000       0x71 ../build/obj/tcp_in.o
 .comment       0x00000000       0x71 ../build/obj/tcp_out.o
 .comment       0x00000000       0x71 ../build/obj/timers.o
 .comment       0x00000000       0x71 ../build/obj/udp.o
 .comment       0x00000000       0x71 ../build/obj/autoip.o
 .comment       0x00000000       0x71 ../build/obj/icmp.o
 .comment       0x00000000       0x71 ../build/obj/igmp.o
 .comment       0x00000000       0x71 ../build/obj/inet.o
 .comment       0x00000000       0x71 ../build/obj/inet_chksum.o
 .comment       0x00000000       0x71 ../build/obj/ip.o
 .comment       0x00000000       0x71 ../build/obj/ip_addr.o
 .comment       0x00000000       0x71 ../build/obj/ip_frag.o
 .comment       0x00000000       0x71 ../build/obj/etharp.o
 .comment       0x00000000       0x71 ../build/obj/slipif.o
 .comment       0x00000000       0x71 ../build/obj/ethernetif.o
 .comment       0x00000000       0x71 ../build/obj/stm32f4x7_eth_bsp.o
 .comment       0x00000000       0x71 ../build/obj/stm32f4x7_eth.o
 .comment       0x00000000       0x71 ../build/obj/misc.o
 .comment       0x00000000       0x71 ../build/obj/stm32f4xx_dma.o
 .comment       0x00000000       0x71 ../build/obj/stm32f4xx_exti.o
 .comment       0x00000000       0x71 ../build/obj/stm32f4xx_gpio.o
 .comment       0x00000000       0x71 ../build/obj/stm32f4xx_rcc.o
 .comment       0x00000000       0x71 ../build/obj/stm32f4xx_syscfg.o
 .comment       0x00000000       0x71 ../build/obj/stm32f4xx_tim.o
 .comment       0x00000000       0x71 ../build/obj/netconf.o
 .comment       0x00000000       0x71 ../build/obj/oscreceivedelements.o
 .comment       0x00000000       0x71 ../build/obj/osctypes.o
 .comment       0x00000000       0x71 ../build/obj/buffs_iram1.o
 .comment       0x00000000       0x71 ../build/obj/buffs_iram2.o
 .comment       0x00000000       0x71 ../build/obj/sys_conf.o
 .comment       0x00000000       0x71 ../build/obj/stm32f4xx_it.o
 .comment       0x00000000       0x71 ../build/obj/grizzlysys.o
 .comment       0x00000000       0x71 ../build/obj/grizzlyapp.o
 .comment       0x00000000       0x71 ../build/obj/udp_color_server.o
 .comment       0x00000000       0x71 ../build/obj/main.o

.debug_frame    0x00000000     0x83bc
 .debug_frame   0x00000000       0x34 ../build/obj/system_stm32f4xx.o
 .debug_frame   0x00000034      0x250 ../build/obj/bget.o
 .debug_frame   0x00000284       0x50 ../build/obj/def.o
 .debug_frame   0x000002d4      0x368 ../build/obj/dhcp.o
 .debug_frame   0x0000063c       0x2c ../build/obj/init.o
 .debug_frame   0x00000668       0xc0 ../build/obj/mem.o
 .debug_frame   0x00000728       0x5c ../build/obj/memp.o
 .debug_frame   0x00000784      0x138 ../build/obj/netif.o
 .debug_frame   0x000008bc      0x248 ../build/obj/pbuf.o
 .debug_frame   0x00000b04       0xd4 ../build/obj/raw.o
 .debug_frame   0x00000bd8       0x20 ../build/obj/stats.o
 .debug_frame   0x00000bf8       0x20 ../build/obj/timers.o
 .debug_frame   0x00000c18      0x158 ../build/obj/udp.o
 .debug_frame   0x00000d70       0x90 ../build/obj/icmp.o
 .debug_frame   0x00000e00       0xcc ../build/obj/inet_chksum.o
 .debug_frame   0x00000ecc       0xb8 ../build/obj/ip.o
 .debug_frame   0x00000f84       0xd4 ../build/obj/ip_addr.o
 .debug_frame   0x00001058      0x108 ../build/obj/ip_frag.o
 .debug_frame   0x00001160      0x1cc ../build/obj/etharp.o
 .debug_frame   0x0000132c       0x94 ../build/obj/ethernetif.o
 .debug_frame   0x000013c0       0xb4 ../build/obj/stm32f4x7_eth_bsp.o
 .debug_frame   0x00001474      0x8cc ../build/obj/stm32f4x7_eth.o
 .debug_frame   0x00001d40       0xa4 ../build/obj/misc.o
 .debug_frame   0x00001de4      0x250 ../build/obj/stm32f4xx_dma.o
 .debug_frame   0x00002034       0xdc ../build/obj/stm32f4xx_exti.o
 .debug_frame   0x00002110      0x1c8 ../build/obj/stm32f4xx_gpio.o
 .debug_frame   0x000022d8      0x534 ../build/obj/stm32f4xx_rcc.o
 .debug_frame   0x0000280c       0xb0 ../build/obj/stm32f4xx_syscfg.o
 .debug_frame   0x000028bc      0xb44 ../build/obj/stm32f4xx_tim.o
 .debug_frame   0x00003400       0x50 ../build/obj/netconf.o
 .debug_frame   0x00003450      0x4d8 ../build/obj/oscreceivedelements.o
 .debug_frame   0x00003928       0x20 ../build/obj/osctypes.o
 .debug_frame   0x00003948      0x19c ../build/obj/sys_conf.o
 .debug_frame   0x00003ae4       0xf4 ../build/obj/stm32f4xx_it.o
 .debug_frame   0x00003bd8      0x1a8 ../build/obj/grizzlysys.o
 .debug_frame   0x00003d80       0x80 ../build/obj/grizzlyapp.o
 .debug_frame   0x00003e00      0x388 ../build/obj/udp_color_server.o
 .debug_frame   0x00004188       0x2c ../build/obj/main.o
 .debug_frame   0x000041b4       0x38 c:/program files (x86)/gnu tools arm embedded/4.8 2013q4/bin/../lib/gcc/arm-none-eabi/4.8.3/../../../../arm-none-eabi/lib/armv7e-m\libm.a(lib_a-w_pow.o)
 .debug_frame   0x000041ec       0x38 c:/program files (x86)/gnu tools arm embedded/4.8 2013q4/bin/../lib/gcc/arm-none-eabi/4.8.3/../../../../arm-none-eabi/lib/armv7e-m\libm.a(lib_a-e_pow.o)
 .debug_frame   0x00004224       0x34 c:/program files (x86)/gnu tools arm embedded/4.8 2013q4/bin/../lib/gcc/arm-none-eabi/4.8.3/../../../../arm-none-eabi/lib/armv7e-m\libm.a(lib_a-e_sqrt.o)
 .debug_frame   0x00004258       0x20 c:/program files (x86)/gnu tools arm embedded/4.8 2013q4/bin/../lib/gcc/arm-none-eabi/4.8.3/../../../../arm-none-eabi/lib/armv7e-m\libm.a(lib_a-s_fabs.o)
 .debug_frame   0x00004278       0x20 c:/program files (x86)/gnu tools arm embedded/4.8 2013q4/bin/../lib/gcc/arm-none-eabi/4.8.3/../../../../arm-none-eabi/lib/armv7e-m\libm.a(lib_a-s_finite.o)
 .debug_frame   0x00004298       0x28 c:/program files (x86)/gnu tools arm embedded/4.8 2013q4/bin/../lib/gcc/arm-none-eabi/4.8.3/../../../../arm-none-eabi/lib/armv7e-m\libm.a(lib_a-s_fpclassify.o)
 .debug_frame   0x000042c0       0x20 c:/program files (x86)/gnu tools arm embedded/4.8 2013q4/bin/../lib/gcc/arm-none-eabi/4.8.3/../../../../arm-none-eabi/lib/armv7e-m\libm.a(lib_a-s_matherr.o)
 .debug_frame   0x000042e0       0x20 c:/program files (x86)/gnu tools arm embedded/4.8 2013q4/bin/../lib/gcc/arm-none-eabi/4.8.3/../../../../arm-none-eabi/lib/armv7e-m\libm.a(lib_a-s_nan.o)
 .debug_frame   0x00004300       0x34 c:/program files (x86)/gnu tools arm embedded/4.8 2013q4/bin/../lib/gcc/arm-none-eabi/4.8.3/../../../../arm-none-eabi/lib/armv7e-m\libm.a(lib_a-s_rint.o)
 .debug_frame   0x00004334       0x30 c:/program files (x86)/gnu tools arm embedded/4.8 2013q4/bin/../lib/gcc/arm-none-eabi/4.8.3/../../../../arm-none-eabi/lib/armv7e-m\libm.a(lib_a-s_scalbn.o)
 .debug_frame   0x00004364       0x28 c:/program files (x86)/gnu tools arm embedded/4.8 2013q4/bin/../lib/gcc/arm-none-eabi/4.8.3/../../../../arm-none-eabi/lib/armv7e-m\libm.a(lib_a-s_copysign.o)
 .debug_frame   0x0000438c       0x6c c:/program files (x86)/gnu tools arm embedded/4.8 2013q4/bin/../lib/gcc/arm-none-eabi/4.8.3/../../../../arm-none-eabi/lib/armv7e-m\libstdc++.a(pointer_type_info.o)
 .debug_frame   0x000043f8       0x40 c:/program files (x86)/gnu tools arm embedded/4.8 2013q4/bin/../lib/gcc/arm-none-eabi/4.8.3/../../../../arm-none-eabi/lib/armv7e-m\libstdc++.a(fundamental_type_info.o)
 .debug_frame   0x00004438       0xa8 c:/program files (x86)/gnu tools arm embedded/4.8 2013q4/bin/../lib/gcc/arm-none-eabi/4.8.3/../../../../arm-none-eabi/lib/armv7e-m\libstdc++.a(si_class_type_info.o)
 .debug_frame   0x000044e0       0x40 c:/program files (x86)/gnu tools arm embedded/4.8 2013q4/bin/../lib/gcc/arm-none-eabi/4.8.3/../../../../arm-none-eabi/lib/armv7e-m\libstdc++.a(pure.o)
 .debug_frame   0x00004520       0x78 c:/program files (x86)/gnu tools arm embedded/4.8 2013q4/bin/../lib/gcc/arm-none-eabi/4.8.3/../../../../arm-none-eabi/lib/armv7e-m\libstdc++.a(pbase_type_info.o)
 .debug_frame   0x00004598       0xd0 c:/program files (x86)/gnu tools arm embedded/4.8 2013q4/bin/../lib/gcc/arm-none-eabi/4.8.3/../../../../arm-none-eabi/lib/armv7e-m\libstdc++.a(eh_exception.o)
 .debug_frame   0x00004668       0x20 c:/program files (x86)/gnu tools arm embedded/4.8 2013q4/bin/../lib/gcc/arm-none-eabi/4.8.3/../../../../arm-none-eabi/lib/armv7e-m\libstdc++.a(del_op.o)
 .debug_frame   0x00004688       0xcc c:/program files (x86)/gnu tools arm embedded/4.8 2013q4/bin/../lib/gcc/arm-none-eabi/4.8.3/../../../../arm-none-eabi/lib/armv7e-m\libstdc++.a(class_type_info.o)
 .debug_frame   0x00004754       0x20 c:/program files (x86)/gnu tools arm embedded/4.8 2013q4/bin/../lib/gcc/arm-none-eabi/4.8.3/../../../../arm-none-eabi/lib/armv7e-m\libstdc++.a(atexit_arm.o)
 .debug_frame   0x00004774       0x68 c:/program files (x86)/gnu tools arm embedded/4.8 2013q4/bin/../lib/gcc/arm-none-eabi/4.8.3/../../../../arm-none-eabi/lib/armv7e-m\libstdc++.a(eh_throw.o)
 .debug_frame   0x000047dc       0x2c c:/program files (x86)/gnu tools arm embedded/4.8 2013q4/bin/../lib/gcc/arm-none-eabi/4.8.3/../../../../arm-none-eabi/lib/armv7e-m\libstdc++.a(new_op.o)
 .debug_frame   0x00004808       0xac c:/program files (x86)/gnu tools arm embedded/4.8 2013q4/bin/../lib/gcc/arm-none-eabi/4.8.3/../../../../arm-none-eabi/lib/armv7e-m\libstdc++.a(eh_personality.o)
 .debug_frame   0x000048b4       0x64 c:/program files (x86)/gnu tools arm embedded/4.8 2013q4/bin/../lib/gcc/arm-none-eabi/4.8.3/../../../../arm-none-eabi/lib/armv7e-m\libstdc++.a(eh_alloc.o)
 .debug_frame   0x00004918       0x50 c:/program files (x86)/gnu tools arm embedded/4.8 2013q4/bin/../lib/gcc/arm-none-eabi/4.8.3/../../../../arm-none-eabi/lib/armv7e-m\libstdc++.a(function_type_info.o)
 .debug_frame   0x00004968       0x90 c:/program files (x86)/gnu tools arm embedded/4.8 2013q4/bin/../lib/gcc/arm-none-eabi/4.8.3/../../../../arm-none-eabi/lib/armv7e-m\libstdc++.a(eh_terminate.o)
 .debug_frame   0x000049f8       0x90 c:/program files (x86)/gnu tools arm embedded/4.8 2013q4/bin/../lib/gcc/arm-none-eabi/4.8.3/../../../../arm-none-eabi/lib/armv7e-m\libstdc++.a(tinfo.o)
 .debug_frame   0x00004a88     0x111c c:/program files (x86)/gnu tools arm embedded/4.8 2013q4/bin/../lib/gcc/arm-none-eabi/4.8.3/../../../../arm-none-eabi/lib/armv7e-m\libstdc++.a(string-inst.o)
 .debug_frame   0x00005ba4       0x58 c:/program files (x86)/gnu tools arm embedded/4.8 2013q4/bin/../lib/gcc/arm-none-eabi/4.8.3/../../../../arm-none-eabi/lib/armv7e-m\libstdc++.a(hashtable_c++0x.o)
 .debug_frame   0x00005bfc      0x1fc c:/program files (x86)/gnu tools arm embedded/4.8 2013q4/bin/../lib/gcc/arm-none-eabi/4.8.3/../../../../arm-none-eabi/lib/armv7e-m\libstdc++.a(functexcept.o)
 .debug_frame   0x00005df8       0x50 c:/program files (x86)/gnu tools arm embedded/4.8 2013q4/bin/../lib/gcc/arm-none-eabi/4.8.3/../../../../arm-none-eabi/lib/armv7e-m\libstdc++.a(functional.o)
 .debug_frame   0x00005e48       0x60 c:/program files (x86)/gnu tools arm embedded/4.8 2013q4/bin/../lib/gcc/arm-none-eabi/4.8.3/../../../../arm-none-eabi/lib/armv7e-m\libstdc++.a(eh_call.o)
 .debug_frame   0x00005ea8       0x60 c:/program files (x86)/gnu tools arm embedded/4.8 2013q4/bin/../lib/gcc/arm-none-eabi/4.8.3/../../../../arm-none-eabi/lib/armv7e-m\libstdc++.a(eh_arm.o)
 .debug_frame   0x00005f08       0x20 c:/program files (x86)/gnu tools arm embedded/4.8 2013q4/bin/../lib/gcc/arm-none-eabi/4.8.3/../../../../arm-none-eabi/lib/armv7e-m\libstdc++.a(new_handler.o)
 .debug_frame   0x00005f28       0x50 c:/program files (x86)/gnu tools arm embedded/4.8 2013q4/bin/../lib/gcc/arm-none-eabi/4.8.3/../../../../arm-none-eabi/lib/armv7e-m\libstdc++.a(bad_alloc.o)
 .debug_frame   0x00005f78       0x40 c:/program files (x86)/gnu tools arm embedded/4.8 2013q4/bin/../lib/gcc/arm-none-eabi/4.8.3/../../../../arm-none-eabi/lib/armv7e-m\libstdc++.a(eh_aux_runtime.o)
 .debug_frame   0x00005fb8       0x30 c:/program files (x86)/gnu tools arm embedded/4.8 2013q4/bin/../lib/gcc/arm-none-eabi/4.8.3/../../../../arm-none-eabi/lib/armv7e-m\libstdc++.a(eh_globals.o)
 .debug_frame   0x00005fe8       0x50 c:/program files (x86)/gnu tools arm embedded/4.8 2013q4/bin/../lib/gcc/arm-none-eabi/4.8.3/../../../../arm-none-eabi/lib/armv7e-m\libstdc++.a(bad_cast.o)
 .debug_frame   0x00006038       0x6c c:/program files (x86)/gnu tools arm embedded/4.8 2013q4/bin/../lib/gcc/arm-none-eabi/4.8.3/../../../../arm-none-eabi/lib/armv7e-m\libstdc++.a(eh_catch.o)
 .debug_frame   0x000060a4       0x30 c:/program files (x86)/gnu tools arm embedded/4.8 2013q4/bin/../lib/gcc/arm-none-eabi/4.8.3/../../../../arm-none-eabi/lib/armv7e-m\libstdc++.a(vterminate.o)
 .debug_frame   0x000060d4       0x28 c:/program files (x86)/gnu tools arm embedded/4.8 2013q4/bin/../lib/gcc/arm-none-eabi/4.8.3/../../../../arm-none-eabi/lib/armv7e-m\libstdc++.a(eh_type.o)
 .debug_frame   0x000060fc       0x50 c:/program files (x86)/gnu tools arm embedded/4.8 2013q4/bin/../lib/gcc/arm-none-eabi/4.8.3/../../../../arm-none-eabi/lib/armv7e-m\libstdc++.a(bad_typeid.o)
 .debug_frame   0x0000614c       0x70 c:/program files (x86)/gnu tools arm embedded/4.8 2013q4/bin/../lib/gcc/arm-none-eabi/4.8.3/../../../../arm-none-eabi/lib/armv7e-m\libstdc++.a(ios_failure.o)
 .debug_frame   0x000061bc      0x2c0 c:/program files (x86)/gnu tools arm embedded/4.8 2013q4/bin/../lib/gcc/arm-none-eabi/4.8.3/../../../../arm-none-eabi/lib/armv7e-m\libstdc++.a(stdexcept.o)
 .debug_frame   0x0000647c      0x1b0 c:/program files (x86)/gnu tools arm embedded/4.8 2013q4/bin/../lib/gcc/arm-none-eabi/4.8.3/../../../../arm-none-eabi/lib/armv7e-m\libstdc++.a(system_error.o)
 .debug_frame   0x0000662c       0xd4 c:/program files (x86)/gnu tools arm embedded/4.8 2013q4/bin/../lib/gcc/arm-none-eabi/4.8.3/../../../../arm-none-eabi/lib/armv7e-m\libstdc++.a(future.o)
 .debug_frame   0x00006700       0x5c c:/program files (x86)/gnu tools arm embedded/4.8 2013q4/bin/../lib/gcc/arm-none-eabi/4.8.3/../../../../arm-none-eabi/lib/armv7e-m\libstdc++.a(regex.o)
 .debug_frame   0x0000675c       0x48 c:/program files (x86)/gnu tools arm embedded/4.8 2013q4/bin/../lib/gcc/arm-none-eabi/4.8.3/../../../../arm-none-eabi/lib/armv7e-m\libstdc++.a(guard.o)
 .debug_frame   0x000067a4      0x504 c:/program files (x86)/gnu tools arm embedded/4.8 2013q4/bin/../lib/gcc/arm-none-eabi/4.8.3/../../../../arm-none-eabi/lib/armv7e-m\libstdc++.a(cp-demangle.o)
 .debug_frame   0x00006ca8       0x40 c:/program files (x86)/gnu tools arm embedded/4.8 2013q4/bin/../lib/gcc/arm-none-eabi/4.8.3/../../../../arm-none-eabi/lib/armv7e-m\libstdc++.a(guard_error.o)
 .debug_frame   0x00006ce8      0x2a4 c:/program files (x86)/gnu tools arm embedded/4.8 2013q4/bin/../lib/gcc/arm-none-eabi/4.8.3/armv7e-m\libgcc.a(unwind-arm.o)
 .debug_frame   0x00006f8c       0xe4 c:/program files (x86)/gnu tools arm embedded/4.8 2013q4/bin/../lib/gcc/arm-none-eabi/4.8.3/armv7e-m\libgcc.a(pr-support.o)
 .debug_frame   0x00007070       0x28 c:/program files (x86)/gnu tools arm embedded/4.8 2013q4/bin/../lib/gcc/arm-none-eabi/4.8.3/../../../../arm-none-eabi/lib/armv7e-m\libc.a(lib_a-abort.o)
 .debug_frame   0x00007098       0x40 c:/program files (x86)/gnu tools arm embedded/4.8 2013q4/bin/../lib/gcc/arm-none-eabi/4.8.3/../../../../arm-none-eabi/lib/armv7e-m\libc.a(lib_a-assert.o)
 .debug_frame   0x000070d8       0x28 c:/program files (x86)/gnu tools arm embedded/4.8 2013q4/bin/../lib/gcc/arm-none-eabi/4.8.3/../../../../arm-none-eabi/lib/armv7e-m\libc.a(lib_a-cxa_atexit.o)
 .debug_frame   0x00007100       0x20 c:/program files (x86)/gnu tools arm embedded/4.8 2013q4/bin/../lib/gcc/arm-none-eabi/4.8.3/../../../../arm-none-eabi/lib/armv7e-m\libc.a(lib_a-errno.o)
 .debug_frame   0x00007120       0x28 c:/program files (x86)/gnu tools arm embedded/4.8 2013q4/bin/../lib/gcc/arm-none-eabi/4.8.3/../../../../arm-none-eabi/lib/armv7e-m\libc.a(lib_a-exit.o)
 .debug_frame   0x00007148       0x54 c:/program files (x86)/gnu tools arm embedded/4.8 2013q4/bin/../lib/gcc/arm-none-eabi/4.8.3/../../../../arm-none-eabi/lib/armv7e-m\libc.a(lib_a-fiprintf.o)
 .debug_frame   0x0000719c       0x48 c:/program files (x86)/gnu tools arm embedded/4.8 2013q4/bin/../lib/gcc/arm-none-eabi/4.8.3/../../../../arm-none-eabi/lib/armv7e-m\libc.a(lib_a-fputc.o)
 .debug_frame   0x000071e4       0x3c c:/program files (x86)/gnu tools arm embedded/4.8 2013q4/bin/../lib/gcc/arm-none-eabi/4.8.3/../../../../arm-none-eabi/lib/armv7e-m\libc.a(lib_a-fputs.o)
 .debug_frame   0x00007220       0x38 c:/program files (x86)/gnu tools arm embedded/4.8 2013q4/bin/../lib/gcc/arm-none-eabi/4.8.3/../../../../arm-none-eabi/lib/armv7e-m\libc.a(lib_a-fvwrite.o)
 .debug_frame   0x00007258       0x50 c:/program files (x86)/gnu tools arm embedded/4.8 2013q4/bin/../lib/gcc/arm-none-eabi/4.8.3/../../../../arm-none-eabi/lib/armv7e-m\libc.a(lib_a-fwrite.o)
 .debug_frame   0x000072a8       0x2c c:/program files (x86)/gnu tools arm embedded/4.8 2013q4/bin/../lib/gcc/arm-none-eabi/4.8.3/../../../../arm-none-eabi/lib/armv7e-m\libc.a(lib_a-init.o)
 .debug_frame   0x000072d4       0x38 c:/program files (x86)/gnu tools arm embedded/4.8 2013q4/bin/../lib/gcc/arm-none-eabi/4.8.3/../../../../arm-none-eabi/lib/armv7e-m\libc.a(lib_a-mallocr.o)
 .debug_frame   0x0000730c       0x2c c:/program files (x86)/gnu tools arm embedded/4.8 2013q4/bin/../lib/gcc/arm-none-eabi/4.8.3/../../../../arm-none-eabi/lib/armv7e-m\libc.a(lib_a-memchr-stub.o)
 .debug_frame   0x00007338       0x2c c:/program files (x86)/gnu tools arm embedded/4.8 2013q4/bin/../lib/gcc/arm-none-eabi/4.8.3/../../../../arm-none-eabi/lib/armv7e-m\libc.a(lib_a-memcmp.o)
 .debug_frame   0x00007364       0x2c c:/program files (x86)/gnu tools arm embedded/4.8 2013q4/bin/../lib/gcc/arm-none-eabi/4.8.3/../../../../arm-none-eabi/lib/armv7e-m\libc.a(lib_a-memmove.o)
 .debug_frame   0x00007390       0x2c c:/program files (x86)/gnu tools arm embedded/4.8 2013q4/bin/../lib/gcc/arm-none-eabi/4.8.3/../../../../arm-none-eabi/lib/armv7e-m\libc.a(lib_a-memset.o)
 .debug_frame   0x000073bc       0x30 c:/program files (x86)/gnu tools arm embedded/4.8 2013q4/bin/../lib/gcc/arm-none-eabi/4.8.3/../../../../arm-none-eabi/lib/armv7e-m\libc.a(lib_a-mlock.o)
 .debug_frame   0x000073ec       0x58 c:/program files (x86)/gnu tools arm embedded/4.8 2013q4/bin/../lib/gcc/arm-none-eabi/4.8.3/../../../../arm-none-eabi/lib/armv7e-m\libc.a(lib_a-printf.o)
 .debug_frame   0x00007444       0x48 c:/program files (x86)/gnu tools arm embedded/4.8 2013q4/bin/../lib/gcc/arm-none-eabi/4.8.3/../../../../arm-none-eabi/lib/armv7e-m\libc.a(lib_a-putc.o)
 .debug_frame   0x0000748c       0x40 c:/program files (x86)/gnu tools arm embedded/4.8 2013q4/bin/../lib/gcc/arm-none-eabi/4.8.3/../../../../arm-none-eabi/lib/armv7e-m\libc.a(lib_a-puts.o)
 .debug_frame   0x000074cc       0x20 c:/program files (x86)/gnu tools arm embedded/4.8 2013q4/bin/../lib/gcc/arm-none-eabi/4.8.3/../../../../arm-none-eabi/lib/armv7e-m\libc.a(lib_a-realloc.o)
 .debug_frame   0x000074ec       0x38 c:/program files (x86)/gnu tools arm embedded/4.8 2013q4/bin/../lib/gcc/arm-none-eabi/4.8.3/../../../../arm-none-eabi/lib/armv7e-m\libc.a(lib_a-reallocr.o)
 .debug_frame   0x00007524       0x48 c:/program files (x86)/gnu tools arm embedded/4.8 2013q4/bin/../lib/gcc/arm-none-eabi/4.8.3/../../../../arm-none-eabi/lib/armv7e-m\libc.a(lib_a-reent.o)
 .debug_frame   0x0000756c       0x2c c:/program files (x86)/gnu tools arm embedded/4.8 2013q4/bin/../lib/gcc/arm-none-eabi/4.8.3/../../../../arm-none-eabi/lib/armv7e-m\libc.a(lib_a-sbrkr.o)
 .debug_frame   0x00007598       0xc0 c:/program files (x86)/gnu tools arm embedded/4.8 2013q4/bin/../lib/gcc/arm-none-eabi/4.8.3/../../../../arm-none-eabi/lib/armv7e-m\libc.a(lib_a-signal.o)
 .debug_frame   0x00007658       0x3c c:/program files (x86)/gnu tools arm embedded/4.8 2013q4/bin/../lib/gcc/arm-none-eabi/4.8.3/../../../../arm-none-eabi/lib/armv7e-m\libc.a(lib_a-signalr.o)
 .debug_frame   0x00007694       0x64 c:/program files (x86)/gnu tools arm embedded/4.8 2013q4/bin/../lib/gcc/arm-none-eabi/4.8.3/../../../../arm-none-eabi/lib/armv7e-m\libc.a(lib_a-sprintf.o)
 .debug_frame   0x000076f8       0x38 c:/program files (x86)/gnu tools arm embedded/4.8 2013q4/bin/../lib/gcc/arm-none-eabi/4.8.3/../../../../arm-none-eabi/lib/armv7e-m\libc.a(lib_a-strerror.o)
 .debug_frame   0x00007730       0x20 c:/program files (x86)/gnu tools arm embedded/4.8 2013q4/bin/../lib/gcc/arm-none-eabi/4.8.3/../../../../arm-none-eabi/lib/armv7e-m\libc.a(lib_a-strlen.o)
 .debug_frame   0x00007750       0x28 c:/program files (x86)/gnu tools arm embedded/4.8 2013q4/bin/../lib/gcc/arm-none-eabi/4.8.3/../../../../arm-none-eabi/lib/armv7e-m\libc.a(lib_a-strncmp.o)
 .debug_frame   0x00007778       0x3c c:/program files (x86)/gnu tools arm embedded/4.8 2013q4/bin/../lib/gcc/arm-none-eabi/4.8.3/../../../../arm-none-eabi/lib/armv7e-m\libc.a(lib_a-svfprintf.o)
 .debug_frame   0x000077b4       0x28 c:/program files (x86)/gnu tools arm embedded/4.8 2013q4/bin/../lib/gcc/arm-none-eabi/4.8.3/../../../../arm-none-eabi/lib/armv7e-m\libc.a(lib_a-syswrite.o)
 .debug_frame   0x000077dc       0x20 c:/program files (x86)/gnu tools arm embedded/4.8 2013q4/bin/../lib/gcc/arm-none-eabi/4.8.3/../../../../arm-none-eabi/lib/armv7e-m\libc.a(lib_a-u_strerr.o)
 .debug_frame   0x000077fc       0xb8 c:/program files (x86)/gnu tools arm embedded/4.8 2013q4/bin/../lib/gcc/arm-none-eabi/4.8.3/../../../../arm-none-eabi/lib/armv7e-m\libc.a(lib_a-vfiprintf.o)
 .debug_frame   0x000078b4       0x7c c:/program files (x86)/gnu tools arm embedded/4.8 2013q4/bin/../lib/gcc/arm-none-eabi/4.8.3/../../../../arm-none-eabi/lib/armv7e-m\libc.a(lib_a-vfprintf.o)
 .debug_frame   0x00007930       0x40 c:/program files (x86)/gnu tools arm embedded/4.8 2013q4/bin/../lib/gcc/arm-none-eabi/4.8.3/../../../../arm-none-eabi/lib/armv7e-m\libc.a(lib_a-wbuf.o)
 .debug_frame   0x00007970       0x2c c:/program files (x86)/gnu tools arm embedded/4.8 2013q4/bin/../lib/gcc/arm-none-eabi/4.8.3/../../../../arm-none-eabi/lib/armv7e-m\libc.a(lib_a-writer.o)
 .debug_frame   0x0000799c       0x2c c:/program files (x86)/gnu tools arm embedded/4.8 2013q4/bin/../lib/gcc/arm-none-eabi/4.8.3/../../../../arm-none-eabi/lib/armv7e-m\libc.a(lib_a-wsetup.o)
 .debug_frame   0x000079c8       0x30 c:/program files (x86)/gnu tools arm embedded/4.8 2013q4/bin/../lib/gcc/arm-none-eabi/4.8.3/../../../../arm-none-eabi/lib/armv7e-m\libc.a(lib_a-__atexit.o)
 .debug_frame   0x000079f8       0x48 c:/program files (x86)/gnu tools arm embedded/4.8 2013q4/bin/../lib/gcc/arm-none-eabi/4.8.3/../../../../arm-none-eabi/lib/armv7e-m\libc.a(lib_a-__call_atexit.o)
 .debug_frame   0x00007a40       0x20 c:/program files (x86)/gnu tools arm embedded/4.8 2013q4/bin/../lib/gcc/arm-none-eabi/4.8.3/../../../../arm-none-eabi/lib/armv7e-m\libc.a(lib_a-atexit.o)
 .debug_frame   0x00007a60       0x64 c:/program files (x86)/gnu tools arm embedded/4.8 2013q4/bin/../lib/gcc/arm-none-eabi/4.8.3/../../../../arm-none-eabi/lib/armv7e-m\libc.a(lib_a-dtoa.o)
 .debug_frame   0x00007ac4       0x5c c:/program files (x86)/gnu tools arm embedded/4.8 2013q4/bin/../lib/gcc/arm-none-eabi/4.8.3/../../../../arm-none-eabi/lib/armv7e-m\libc.a(lib_a-fflush.o)
 .debug_frame   0x00007b20      0x110 c:/program files (x86)/gnu tools arm embedded/4.8 2013q4/bin/../lib/gcc/arm-none-eabi/4.8.3/../../../../arm-none-eabi/lib/armv7e-m\libc.a(lib_a-findfp.o)
 .debug_frame   0x00007c30       0x2c c:/program files (x86)/gnu tools arm embedded/4.8 2013q4/bin/../lib/gcc/arm-none-eabi/4.8.3/../../../../arm-none-eabi/lib/armv7e-m\libc.a(lib_a-fini.o)
 .debug_frame   0x00007c5c       0x50 c:/program files (x86)/gnu tools arm embedded/4.8 2013q4/bin/../lib/gcc/arm-none-eabi/4.8.3/../../../../arm-none-eabi/lib/armv7e-m\libc.a(lib_a-fputwc.o)
 .debug_frame   0x00007cac       0x50 c:/program files (x86)/gnu tools arm embedded/4.8 2013q4/bin/../lib/gcc/arm-none-eabi/4.8.3/../../../../arm-none-eabi/lib/armv7e-m\libc.a(lib_a-freer.o)
 .debug_frame   0x00007cfc       0x54 c:/program files (x86)/gnu tools arm embedded/4.8 2013q4/bin/../lib/gcc/arm-none-eabi/4.8.3/../../../../arm-none-eabi/lib/armv7e-m\libc.a(lib_a-fwalk.o)
 .debug_frame   0x00007d50       0x98 c:/program files (x86)/gnu tools arm embedded/4.8 2013q4/bin/../lib/gcc/arm-none-eabi/4.8.3/../../../../arm-none-eabi/lib/armv7e-m\libc.a(lib_a-locale.o)
 .debug_frame   0x00007de8       0x30 c:/program files (x86)/gnu tools arm embedded/4.8 2013q4/bin/../lib/gcc/arm-none-eabi/4.8.3/../../../../arm-none-eabi/lib/armv7e-m\libc.a(lib_a-makebuf.o)
 .debug_frame   0x00007e18      0x22c c:/program files (x86)/gnu tools arm embedded/4.8 2013q4/bin/../lib/gcc/arm-none-eabi/4.8.3/../../../../arm-none-eabi/lib/armv7e-m\libc.a(lib_a-mprec.o)
 .debug_frame   0x00008044       0x80 c:/program files (x86)/gnu tools arm embedded/4.8 2013q4/bin/../lib/gcc/arm-none-eabi/4.8.3/../../../../arm-none-eabi/lib/armv7e-m\libc.a(lib_a-stdio.o)
 .debug_frame   0x000080c4       0x64 c:/program files (x86)/gnu tools arm embedded/4.8 2013q4/bin/../lib/gcc/arm-none-eabi/4.8.3/../../../../arm-none-eabi/lib/armv7e-m\libc.a(lib_a-svfiprintf.o)
 .debug_frame   0x00008128       0x58 c:/program files (x86)/gnu tools arm embedded/4.8 2013q4/bin/../lib/gcc/arm-none-eabi/4.8.3/../../../../arm-none-eabi/lib/armv7e-m\libc.a(lib_a-wcrtomb.o)
 .debug_frame   0x00008180       0x44 c:/program files (x86)/gnu tools arm embedded/4.8 2013q4/bin/../lib/gcc/arm-none-eabi/4.8.3/../../../../arm-none-eabi/lib/armv7e-m\libc.a(lib_a-wctomb_r.o)
 .debug_frame   0x000081c4       0x28 c:/program files (x86)/gnu tools arm embedded/4.8 2013q4/bin/../lib/gcc/arm-none-eabi/4.8.3/../../../../arm-none-eabi/lib/armv7e-m\libc.a(lib_a-callocr.o)
 .debug_frame   0x000081ec       0x2c c:/program files (x86)/gnu tools arm embedded/4.8 2013q4/bin/../lib/gcc/arm-none-eabi/4.8.3/../../../../arm-none-eabi/lib/armv7e-m\libc.a(lib_a-closer.o)
 .debug_frame   0x00008218       0x3c c:/program files (x86)/gnu tools arm embedded/4.8 2013q4/bin/../lib/gcc/arm-none-eabi/4.8.3/../../../../arm-none-eabi/lib/armv7e-m\libc.a(lib_a-fclose.o)
 .debug_frame   0x00008254       0x2c c:/program files (x86)/gnu tools arm embedded/4.8 2013q4/bin/../lib/gcc/arm-none-eabi/4.8.3/../../../../arm-none-eabi/lib/armv7e-m\libc.a(lib_a-fstatr.o)
 .debug_frame   0x00008280       0x2c c:/program files (x86)/gnu tools arm embedded/4.8 2013q4/bin/../lib/gcc/arm-none-eabi/4.8.3/../../../../arm-none-eabi/lib/armv7e-m\libc.a(lib_a-isattyr.o)
 .debug_frame   0x000082ac       0x2c c:/program files (x86)/gnu tools arm embedded/4.8 2013q4/bin/../lib/gcc/arm-none-eabi/4.8.3/../../../../arm-none-eabi/lib/armv7e-m\libc.a(lib_a-lseekr.o)
 .debug_frame   0x000082d8       0x2c c:/program files (x86)/gnu tools arm embedded/4.8 2013q4/bin/../lib/gcc/arm-none-eabi/4.8.3/../../../../arm-none-eabi/lib/armv7e-m\libc.a(lib_a-readr.o)
 .debug_frame   0x00008304       0x50 c:/program files (x86)/gnu tools arm embedded/4.8 2013q4/bin/../lib/gcc/arm-none-eabi/4.8.3/armv7e-m\libgcc.a(bpabi.o)
 .debug_frame   0x00008354       0x34 c:/program files (x86)/gnu tools arm embedded/4.8 2013q4/bin/../lib/gcc/arm-none-eabi/4.8.3/armv7e-m\libgcc.a(_divdi3.o)
 .debug_frame   0x00008388       0x34 c:/program files (x86)/gnu tools arm embedded/4.8 2013q4/bin/../lib/gcc/arm-none-eabi/4.8.3/armv7e-m\libgcc.a(_udivdi3.o)
